.model full
	.sourcedir 'C:\Users\gdr\Documents\source\mobile-app\MobileApp/'
	.sourcefile 'C:\Users\gdr\Documents\source\mobile-app\MobileApp\AlertTab.cpp'
	.stabs	"gcc2_compiled.",60,0,0,0
	.stabs	"__vtbl_ptr_type:t(0,1)=*(0,2)=f(0,3)=r(0,3);-2147483648;2147483647;",128,0,0,0
	.stabs	"bool:t(0,4)=@s8;-16;",128,0,0,0
	.stabs	"wchar_t:t(0,5)=@s16;r(0,5);0;65535;",128,0,0,0
	.stabs	"void:t(0,6)=(0,6)",128,0,0,0
	.stabs	"long double:t(0,7)=r(0,3);8;0;",128,0,0,0
	.stabs	"double:t(0,8)=r(0,3);8;0;",128,0,0,0
	.stabs	"float:t(0,9)=r(0,3);4;0;",128,0,0,0
	.stabs	"unsigned char:t(0,10)=@s8;r(0,10);0;255;",128,0,0,0
	.stabs	"signed char:t(0,11)=@s8;r(0,11);-128;127;",128,0,0,0
	.stabs	"short unsigned int:t(0,12)=@s16;r(0,12);0;65535;",128,0,0,0
	.stabs	"short int:t(0,13)=@s16;r(0,13);-32768;32767;",128,0,0,0
	.stabs	"long long unsigned int:t(0,14)=@s64;r(0,14);0000000000000;01777777777777777777777;",128,0,0,0
	.stabs	"long long int:t(0,15)=@s64;r(0,15);01000000000000000000000;0777777777777777777777;",128,0,0,0
	.stabs	"long unsigned int:t(0,16)=r(0,16);0000000000000;0037777777777;",128,0,0,0
	.stabs	"unsigned int:t(0,17)=r(0,17);0000000000000;0037777777777;",128,0,0,0
	.stabs	"long int:t(0,18)=r(0,18);-2147483648;2147483647;",128,0,0,0
	.stabs	"int:t(0,3)",128,0,0,0
	.stabs	"char:t(0,19)=r(0,19);0;127;",128,0,0,0
	.stabs	"__builtin_va_list:t(0,20)=*(0,6)",128,0,0,0
	.stabs	"complex long double:t(0,21)=R3;16;0;",128,0,0,0
	.stabs	"complex double:t(0,22)=R3;16;0;",128,0,0,0
	.stabs	"complex float:t(0,23)=R3;8;0;",128,0,0,0
	.stabs	"complex int:t(0,24)=s8real:(0,3),0,32;imag:(0,3),32,32;;",128,0,0,0
	.stabs	"C:\\Users\\gdr\\Documents\\source\\mobile-app\\MobileApp\\/AlertTab.h",130,0,0,0
	.stabs	"C:\\Users\\gdr\\Documents\\source\\mobile-app\\MobileApp\\/IncludeFile.h",130,0,0,0
	.stabs	"c:/MoSync/include/MAUtil/Map.h",130,0,0,0
	.stabs	"c:/MoSync/include/MAUtil/Dictionary.h",130,0,0,0
	.stabs	"c:/MoSync/include/ma.h",130,0,0,0
	.stabs	"c:/MoSync/include/maapi.h",130,0,0,0
	.stabs	"c:/MoSync/include/maapi_defs.h",130,0,0,0
	.stabs	"MA_DV:Tt(7,1)=u8:(7,2)=s8hi:(0,3),0,32;lo:(0,3),32,32;;,0,64;ll:(0,15),0,64;d:(0,8),0,64;operator=::(7,3)=#(7,1),(7,4)=&(7,1),(7,5)=*(7,1),(7,6)=&(7,7)=k(7,1),(0,6);:_ZN5MA_DVaSERKS_;2A.;__base_ctor::(7,8)=#(7,1),(0,6),(7,5),(7,6),(0,6);:_ZN5MA_DVC2ERKS_;2A.;__comp_ctor::(7,8):_ZN5MA_DVC1ERKS_;2A.;__base_ctor::(7,9)=#(7,1),(0,6),(7,5),(0,6);:_ZN5MA_DVC2Ev;2A.;__comp_ctor::(7,9):_ZN5MA_DVC1Ev;2A.;;",128,0,60,0
	.stabs	"MA_DV:t(7,10)=(7,1)",128,0,75,0
	.stabs	"MA_FV:Tt(7,11)=u4f:(0,9),0,32;i:(0,3),0,32;operator=::(7,12)=#(7,11),(7,13)=&(7,11),(7,14)=*(7,11),(7,15)=&(7,16)=k(7,11),(0,6);:_ZN5MA_FVaSERKS_;2A.;__base_ctor::(7,17)=#(7,11),(0,6),(7,14),(7,15),(0,6);:_ZN5MA_FVC2ERKS_;2A.;__comp_ctor::(7,17):_ZN5MA_FVC1ERKS_;2A.;__base_ctor::(7,18)=#(7,11),(0,6),(7,14),(0,6);:_ZN5MA_FVC2Ev;2A.;__comp_ctor::(7,18):_ZN5MA_FVC1Ev;2A.;;",128,0,78,0
	.stabs	"MA_FV:t(7,19)=(7,11)",128,0,81,0
	.stabn	162,0,0,0
	.stabs	"wchar:t(6,1)=(0,5)",128,0,668,0
	.stabs	"ushort:t(6,2)=(0,12)",128,0,680,0
	.stabs	"uint:t(6,3)=(0,17)",128,0,681,0
	.stabs	"MAString:t(6,4)=(6,5)=*(0,19)",128,0,684,0
	.stabs	"MAWString:t(6,6)=(6,7)=*(6,1)",128,0,685,0
	.stabs	"MAAddress:t(6,8)=(6,9)=*(0,6)",128,0,686,0
	.stabs	"MAHandle:t(6,10)=(0,3)",128,0,687,0
	.stabs	"MAExtent:t(6,11)=(0,3)",128,0,688,0
	.stabs	"byte:t(6,12)=(0,10)",128,0,689,0
	.stabs	"ulong:t(6,13)=(0,16)",128,0,690,0
	.stabs	"longlong:t(6,14)=(0,15)",128,0,691,0
	.stabs	"MAExtensionModule:t(6,15)=(0,3)",128,0,692,0
	.stabs	"MAExtensionFunction:t(6,16)=(0,3)",128,0,693,0
	.stabs	"MAAudioData:t(6,17)=(0,3)",128,0,695,0
	.stabs	"MAAudioInstance:t(6,18)=(0,3)",128,0,697,0
	.stabs	"MAPoint2d:Tt(6,19)=s8x:(0,3),0,32;y:(0,3),32,32;operator=::(6,20)=#(6,19),(6,21)=&(6,19),(6,22)=*(6,19),(6,23)=&(6,24)=k(6,19),(0,6);:_ZN9MAPoint2daSERKS_;2A.;__base_ctor::(6,25)=#(6,19),(0,6),(6,22),(6,23),(0,6);:_ZN9MAPoint2dC2ERKS_;2A.;__comp_ctor::(6,25):_ZN9MAPoint2dC1ERKS_;2A.;__base_ctor::(6,26)=#(6,19),(0,6),(6,22),(0,6);:_ZN9MAPoint2dC2Ev;2A.;__comp_ctor::(6,26):_ZN9MAPoint2dC1Ev;2A.;;",128,0,3637,0
	.stabs	"MAPoint2d:t(6,27)=(6,19)",128,0,3640,0
	.stabs	"MARect:Tt(6,28)=s16left:(0,3),0,32;top:(0,3),32,32;width:(0,3),64,32;height:(0,3),96,32;operator=::(6,29)=#(6,28),(6,30)=&(6,28),(6,31)=*(6,28),(6,32)=&(6,33)=k(6,28),(0,6);:_ZN6MARectaSERKS_;2A.;__base_ctor::(6,34)=#(6,28),(0,6),(6,31),(6,32),(0,6);:_ZN6MARectC2ERKS_;2A.;__comp_ctor::(6,34):_ZN6MARectC1ERKS_;2A.;__base_ctor::(6,35)=#(6,28),(0,6),(6,31),(0,6);:_ZN6MARectC2Ev;2A.;__comp_ctor::(6,35):_ZN6MARectC1Ev;2A.;;",128,0,3659,0
	.stabs	"MARect:t(6,36)=(6,28)",128,0,3664,0
	.stabs	"MACopyData:Tt(6,37)=s20dst:(6,10),0,32;dstOffset:(0,3),32,32;src:(6,10),64,32;srcOffset:(0,3),96,32;size:(0,3),128,32;operator=::(6,38)=#(6,37),(6,39)=&(6,37),(6,40)=*(6,37),(6,41)=&(6,42)=k(6,37),(0,6);:_ZN10MACopyDataaSERKS_;2A.;__base_ctor::(6,43)=#(6,37),(0,6),(6,40),(6,41),(0,6);:_ZN10MACopyDataC2ERKS_;2A.;__comp_ctor::(6,43):_ZN10MACopyDataC1ERKS_;2A.;__base_ctor::(6,44)=#(6,37),(0,6),(6,40),(0,6);:_ZN10MACopyDataC2Ev;2A.;__comp_ctor::(6,44):_ZN10MACopyDataC1Ev;2A.;;",128,0,3680,0
	.stabs	"MACopyData:t(6,45)=(6,37)",128,0,3686,0
	.stabs	"MAConnAddrInet4:Tt(6,46)=s8addr:(0,3),0,32;port:(0,3),32,32;operator=::(6,47)=#(6,46),(6,48)=&(6,46),(6,49)=*(6,46),(6,50)=&(6,51)=k(6,46),(0,6);:_ZN15MAConnAddrInet4aSERKS_;2A.;__base_ctor::(6,52)=#(6,46),(0,6),(6,49),(6,50),(0,6);:_ZN15MAConnAddrInet4C2ERKS_;2A.;__comp_ctor::(6,52):_ZN15MAConnAddrInet4C1ERKS_;2A.;__base_ctor::(6,53)=#(6,46),(0,6),(6,49),(0,6);:_ZN15MAConnAddrInet4C2Ev;2A.;__comp_ctor::(6,53):_ZN15MAConnAddrInet4C1Ev;2A.;;",128,0,3702,0
	.stabs	"MAConnAddrInet4:t(6,54)=(6,46)",128,0,3705,0
	.stabs	"MAConnAddrInet6:Tt(6,55)=s20port:(0,3),0,32;addr:(6,56)=ar(6,57)=r(6,57);0000000000000;0037777777777;;0;15;(6,12),32,128;operator=::(6,58)=#(6,55),(6,59)=&(6,55),(6,60)=*(6,55),(6,61)=&(6,62)=k(6,55),(0,6);:_ZN15MAConnAddrInet6aSERKS_;2A.;__base_ctor::(6,63)=#(6,55),(0,6),(6,60),(6,61),(0,6);:_ZN15MAConnAddrInet6C2ERKS_;2A.;__comp_ctor::(6,63):_ZN15MAConnAddrInet6C1ERKS_;2A.;__base_ctor::(6,64)=#(6,55),(0,6),(6,60),(0,6);:_ZN15MAConnAddrInet6C2Ev;2A.;__comp_ctor::(6,64):_ZN15MAConnAddrInet6C1Ev;2A.;;",128,0,3721,0
	.stabs	"MAConnAddrInet6:t(6,65)=(6,55)",128,0,3724,0
	.stabs	"MABtAddr:Tt(6,66)=s8a:(6,67)=ar(6,57);0;5;(6,12),0,48;operator=::(6,68)=#(6,66),(6,69)=&(6,66),(6,70)=*(6,66),(6,71)=&(6,72)=k(6,66),(0,6);:_ZN8MABtAddraSERKS_;2A.;__base_ctor::(6,73)=#(6,66),(0,6),(6,70),(6,71),(0,6);:_ZN8MABtAddrC2ERKS_;2A.;__comp_ctor::(6,73):_ZN8MABtAddrC1ERKS_;2A.;__base_ctor::(6,74)=#(6,66),(0,6),(6,70),(0,6);:_ZN8MABtAddrC2Ev;2A.;__comp_ctor::(6,74):_ZN8MABtAddrC1Ev;2A.;;",128,0,3740,0
	.stabs	"MABtAddr:t(6,75)=(6,66)",128,0,3742,0
	.stabs	"MAConnAddrBt:Tt(6,76)=s12port:(0,3),0,32;addr:(6,75),32,64;operator=::(6,77)=#(6,76),(6,78)=&(6,76),(6,79)=*(6,76),(6,80)=&(6,81)=k(6,76),(0,6);:_ZN12MAConnAddrBtaSERKS_;2A.;__base_ctor::(6,82)=#(6,76),(0,6),(6,79),(6,80),(0,6);:_ZN12MAConnAddrBtC2ERKS_;2A.;__comp_ctor::(6,82):_ZN12MAConnAddrBtC1ERKS_;2A.;__base_ctor::(6,83)=#(6,76),(0,6),(6,79),(0,6);:_ZN12MAConnAddrBtC2Ev;2A.;__comp_ctor::(6,83):_ZN12MAConnAddrBtC1Ev;2A.;;",128,0,3758,0
	.stabs	"MAConnAddrBt:t(6,84)=(6,76)",128,0,3761,0
	.stabs	"MAConnAddr:Tt(6,85)=s24family:(0,3),0,32;:(6,86)=u20inet4:(6,54),0,64;bt:(6,84),0,96;inet6:(6,65),0,160;;,32,160;operator=::(6,87)=#(6,85),(6,88)=&(6,85),(6,89)=*(6,85),(6,90)=&(6,91)=k(6,85),(0,6);:_ZN10MAConnAddraSERKS_;2A.;__base_ctor::(6,92)=#(6,85),(0,6),(6,89),(6,90),(0,6);:_ZN10MAConnAddrC2ERKS_;2A.;__comp_ctor::(6,92):_ZN10MAConnAddrC1ERKS_;2A.;__base_ctor::(6,93)=#(6,85),(0,6),(6,89),(0,6);:_ZN10MAConnAddrC2Ev;2A.;__comp_ctor::(6,93):_ZN10MAConnAddrC1Ev;2A.;;",128,0,3777,0
	.stabs	"MAConnAddr:t(6,94)=(6,85)",128,0,3788,0
	.stabs	"MAConnEventData:Tt(6,95)=s12handle:(6,10),0,32;opType:(0,3),32,32;result:(0,3),64,32;operator=::(6,96)=#(6,95),(6,97)=&(6,95),(6,98)=*(6,95),(6,99)=&(6,100)=k(6,95),(0,6);:_ZN15MAConnEventDataaSERKS_;2A.;__base_ctor::(6,101)=#(6,95),(0,6),(6,98),(6,99),(0,6);:_ZN15MAConnEventDataC2ERKS_;2A.;__comp_ctor::(6,101):_ZN15MAConnEventDataC1ERKS_;2A.;__base_ctor::(6,102)=#(6,95),(0,6),(6,98),(0,6);:_ZN15MAConnEventDataC2Ev;2A.;__comp_ctor::(6,102):_ZN15MAConnEventDataC1Ev;2A.;;",128,0,3804,0
	.stabs	"MAConnEventData:t(6,103)=(6,95)",128,0,3813,0
	.stabs	"MASensor:Tt(6,104)=s16type:(0,3),0,32;values:(6,105)=ar(6,57);0;2;(0,9),32,96;operator=::(6,106)=#(6,104),(6,107)=&(6,104),(6,108)=*(6,104),(6,109)=&(6,110)=k(6,104),(0,6);:_ZN8MASensoraSERKS_;2A.;__base_ctor::(6,111)=#(6,104),(0,6),(6,108),(6,109),(0,6);:_ZN8MASensorC2ERKS_;2A.;__comp_ctor::(6,111):_ZN8MASensorC1ERKS_;2A.;__base_ctor::(6,112)=#(6,104),(0,6),(6,108),(0,6);:_ZN8MASensorC2Ev;2A.;__comp_ctor::(6,112):_ZN8MASensorC1Ev;2A.;;",128,0,3829,0
	.stabs	"MASensor:t(6,113)=(6,104)",128,0,3832,0
	.stabs	"MANFCEventData:Tt(6,114)=s12handle:(6,10),0,32;result:(0,3),32,32;dstId:(0,3),64,32;operator=::(6,115)=#(6,114),(6,116)=&(6,114),(6,117)=*(6,114),(6,118)=&(6,119)=k(6,114),(0,6);:_ZN14MANFCEventDataaSERKS_;2A.;__base_ctor::(6,120)=#(6,114),(0,6),(6,117),(6,118),(0,6);:_ZN14MANFCEventDataC2ERKS_;2A.;__comp_ctor::(6,120):_ZN14MANFCEventDataC1ERKS_;2A.;__base_ctor::(6,121)=#(6,114),(0,6),(6,117),(0,6);:_ZN14MANFCEventDataC2Ev;2A.;__comp_ctor::(6,121):_ZN14MANFCEventDataC1Ev;2A.;;",128,0,3848,0
	.stabs	"MANFCEventData:t(6,122)=(6,114)",128,0,3859,0
	.stabs	"MAAdsEventData:Tt(6,123)=s12bannerHandle:(6,10),0,32;bannerEventType:(0,3),32,32;bannerErrorCode:(0,3),64,32;operator=::(6,124)=#(6,123),(6,125)=&(6,123),(6,126)=*(6,123),(6,127)=&(6,128)=k(6,123),(0,6);:_ZN14MAAdsEventDataaSERKS_;2A.;__base_ctor::(6,129)=#(6,123),(0,6),(6,126),(6,127),(0,6);:_ZN14MAAdsEventDataC2ERKS_;2A.;__comp_ctor::(6,129):_ZN14MAAdsEventDataC1ERKS_;2A.;__base_ctor::(6,130)=#(6,123),(0,6),(6,126),(0,6);:_ZN14MAAdsEventDataC2Ev;2A.;__comp_ctor::(6,130):_ZN14MAAdsEventDataC1Ev;2A.;;",128,0,3875,0
	.stabs	"MAAdsEventData:t(6,131)=(6,123)",128,0,3886,0
	.stabs	"MACaptureEventData:Tt(6,132)=s8type:(0,3),0,32;handle:(6,10),32,32;operator=::(6,133)=#(6,132),(6,134)=&(6,132),(6,135)=*(6,132),(6,136)=&(6,137)=k(6,132),(0,6);:_ZN18MACaptureEventDataaSERKS_;2A.;__base_ctor::(6,138)=#(6,132),(0,6),(6,135),(6,136),(0,6);:_ZN18MACaptureEventDataC2ERKS_;2A.;__comp_ctor::(6,138):_ZN18MACaptureEventDataC1ERKS_;2A.;__base_ctor::(6,139)=#(6,132),(0,6),(6,135),(0,6);:_ZN18MACaptureEventDataC2Ev;2A.;__comp_ctor::(6,139):_ZN18MACaptureEventDataC1Ev;2A.;;",128,0,3902,0
	.stabs	"MACaptureEventData:t(6,140)=(6,132)",128,0,3909,0
	.stabs	"MAPurchaseEventData:Tt(6,141)=s16type:(0,3),0,32;state:(0,3),32,32;productHandle:(6,10),64,32;errorCode:(0,3),96,32;operator=::(6,142)=#(6,141),(6,143)=&(6,141),(6,144)=*(6,141),(6,145)=&(6,146)=k(6,141),(0,6);:_ZN19MAPurchaseEventDataaSERKS_;2A.;__base_ctor::(6,147)=#(6,141),(0,6),(6,144),(6,145),(0,6);:_ZN19MAPurchaseEventDataC2ERKS_;2A.;__comp_ctor::(6,147):_ZN19MAPurchaseEventDataC1ERKS_;2A.;__base_ctor::(6,148)=#(6,141),(0,6),(6,144),(0,6);:_ZN19MAPurchaseEventDataC2Ev;2A.;__comp_ctor::(6,148):_ZN19MAPurchaseEventDataC1Ev;2A.;;",128,0,3927,0
	.stabs	"MAPurchaseEventData:t(6,149)=(6,141)",128,0,3952,0
	.stabs	"MAEvent:Tt(6,150)=s20type:(0,3),0,32;:(6,151)=u16:(6,152)=s8key:(0,3),0,32;nativeKey:(0,3),32,32;;,0,64;character:(6,3),0,32;:(6,153)=s12point:(6,27),0,64;touchId:(0,3),64,32;;,0,96;state:(0,3),0,32;conn:(6,103),0,96;:(6,154)=s8textboxResult:(0,3),0,32;textboxLength:(0,3),32,32;;,0,64;:(6,155)=s12imagePickerState:(0,3),0,32;imagePickerItem:(6,10),32,32;imagePickerEncodingType:(0,3),64,32;;,0,96;:(6,156)=s16snapshotImageDataHandle:(6,10),0,32;snapshotSize:(0,3),32,32;snapshotImageDataRepresentation:(0,3),64,32;snapshotReturnCode:(0,3),96,32;;,0,128;:(6,157)=s12mediaType:(0,3),0,32;mediaHandle:(6,10),32,32;operationResultCode:(0,3),64,32;;,0,96;optionsBoxButtonIndex:(0,3),0,32;alertButtonIndex:(0,3),0,32;status:(0,3),0,32;sensor:(6,113),0,128;nfc:(6,122),0,96;adsData:(6,131),0,96;localNotificationHandle:(6,10),0,32;pushNotificationHandle:(6,10),0,32;captureData:(6,140),0,64;data:(6,9),0,32;audioInstance:(6,18),0,32;purchaseData:(6,149),0,128;orientation:(0,3),0,32;;,32,128;operator=::(6,158)=#(6,150),(6,159)=&(6,150),(6,160)=*(6,150),(6,161)=&(6,162)=k(6,150),(0,6);:_ZN7MAEventaSERKS_;2A.;__base_ctor::(6,163)=#(6,150),(0,6),(6,160),(6,161),(0,6);:_ZN7MAEventC2ERKS_;2A.;__comp_ctor::(6,163):_ZN7MAEventC1ERKS_;2A.;__base_ctor::(6,164)=#(6,150),(0,6),(6,160),(0,6);:_ZN7MAEventC2Ev;2A.;__comp_ctor::(6,164):_ZN7MAEventC1Ev;2A.;;",128,0,3968,0
	.stabs	"MAEvent:t(6,165)=(6,150)",128,0,4180,0
	.stabs	"MAPanicReport:Tt(6,166)=s24runtimeId:(0,3),0,32;reportType:(0,3),32,32;time:(0,3),64,32;ip:(0,3),96,32;code:(0,3),128,32;string:(6,167)=ar(6,57);0;0;(0,19),160,8;operator=::(6,168)=#(6,166),(6,169)=&(6,166),(6,170)=*(6,166),(6,171)=&(6,172)=k(6,166),(0,6);:_ZN13MAPanicReportaSERKS_;2A.;__base_ctor::(6,173)=#(6,166),(0,6),(6,170),(6,171),(0,6);:_ZN13MAPanicReportC2ERKS_;2A.;__comp_ctor::(6,173):_ZN13MAPanicReportC1ERKS_;2A.;__base_ctor::(6,174)=#(6,166),(0,6),(6,170),(0,6);:_ZN13MAPanicReportC2Ev;2A.;__comp_ctor::(6,174):_ZN13MAPanicReportC1Ev;2A.;;",128,0,4212,0
	.stabs	"MAPanicReport:t(6,175)=(6,166)",128,0,4234,0
	.stabs	"MABtDevice:Tt(6,176)=s20name:(6,5),0,32;nameBufSize:(0,3),32,32;actualNameLength:(0,3),64,32;address:(6,75),96,64;operator=::(6,177)=#(6,176),(6,178)=&(6,176),(6,179)=*(6,176),(6,180)=&(6,181)=k(6,176),(0,6);:_ZN10MABtDeviceaSERKS_;2A.;__base_ctor::(6,182)=#(6,176),(0,6),(6,179),(6,180),(0,6);:_ZN10MABtDeviceC2ERKS_;2A.;__comp_ctor::(6,182):_ZN10MABtDeviceC1ERKS_;2A.;__base_ctor::(6,183)=#(6,176),(0,6),(6,179),(0,6);:_ZN10MABtDeviceC2Ev;2A.;__comp_ctor::(6,183):_ZN10MABtDeviceC1Ev;2A.;;",128,0,4250,0
	.stabs	"MABtDevice:t(6,184)=(6,176)",128,0,4262,0
	.stabs	"MAUUID:Tt(6,185)=s16i:(6,186)=ar(6,57);0;3;(0,3),0,128;operator=::(6,187)=#(6,185),(6,188)=&(6,185),(6,189)=*(6,185),(6,190)=&(6,191)=k(6,185),(0,6);:_ZN6MAUUIDaSERKS_;2A.;__base_ctor::(6,192)=#(6,185),(0,6),(6,189),(6,190),(0,6);:_ZN6MAUUIDC2ERKS_;2A.;__comp_ctor::(6,192):_ZN6MAUUIDC1ERKS_;2A.;__base_ctor::(6,193)=#(6,185),(0,6),(6,189),(0,6);:_ZN6MAUUIDC2Ev;2A.;__comp_ctor::(6,193):_ZN6MAUUIDC1Ev;2A.;;",128,0,4280,0
	.stabs	"MAUUID:t(6,194)=(6,185)",128,0,4282,0
	.stabs	"MABtServiceSize:Tt(6,195)=s8nameBufSize:(0,3),0,32;nUuids:(0,3),32,32;operator=::(6,196)=#(6,195),(6,197)=&(6,195),(6,198)=*(6,195),(6,199)=&(6,200)=k(6,195),(0,6);:_ZN15MABtServiceSizeaSERKS_;2A.;__base_ctor::(6,201)=#(6,195),(0,6),(6,198),(6,199),(0,6);:_ZN15MABtServiceSizeC2ERKS_;2A.;__comp_ctor::(6,201):_ZN15MABtServiceSizeC1ERKS_;2A.;__base_ctor::(6,202)=#(6,195),(0,6),(6,198),(0,6);:_ZN15MABtServiceSizeC2Ev;2A.;__comp_ctor::(6,202):_ZN15MABtServiceSizeC1Ev;2A.;;",128,0,4298,0
	.stabs	"MABtServiceSize:t(6,203)=(6,195)",128,0,4309,0
	.stabs	"MABtService:Tt(6,204)=s16port:(0,3),0,32;name:(6,5),32,32;nameBufSize:(0,3),64,32;uuids:(6,205)=*(6,194),96,32;operator=::(6,206)=#(6,204),(6,207)=&(6,204),(6,208)=*(6,204),(6,209)=&(6,210)=k(6,204),(0,6);:_ZN11MABtServiceaSERKS_;2A.;__base_ctor::(6,211)=#(6,204),(0,6),(6,208),(6,209),(0,6);:_ZN11MABtServiceC2ERKS_;2A.;__comp_ctor::(6,211):_ZN11MABtServiceC1ERKS_;2A.;__base_ctor::(6,212)=#(6,204),(0,6),(6,208),(0,6);:_ZN11MABtServiceC2Ev;2A.;__comp_ctor::(6,212):_ZN11MABtServiceC1Ev;2A.;;",128,0,4325,0
	.stabs	"MABtService:t(6,213)=(6,204)",128,0,4348,0
	.stabs	"MALocation:Tt(6,214)=s40state:(0,3),0,32;lat:(0,8),32,64;lon:(0,8),96,64;horzAcc:(0,8),160,64;vertAcc:(0,8),224,64;alt:(0,9),288,32;operator=::(6,215)=#(6,214),(6,216)=&(6,214),(6,217)=*(6,214),(6,218)=&(6,219)=k(6,214),(0,6);:_ZN10MALocationaSERKS_;2A.;__base_ctor::(6,220)=#(6,214),(0,6),(6,217),(6,218),(0,6);:_ZN10MALocationC2ERKS_;2A.;__comp_ctor::(6,220):_ZN10MALocationC1ERKS_;2A.;__base_ctor::(6,221)=#(6,214),(0,6),(6,217),(0,6);:_ZN10MALocationC2Ev;2A.;__comp_ctor::(6,221):_ZN10MALocationC1Ev;2A.;;",128,0,4379,0
	.stabs	"MALocation:t(6,222)=(6,214)",128,0,4395,0
	.stabs	"MAFrameBufferInfo:Tt(6,223)=s64sizeInBytes:(0,3),0,32;bytesPerPixel:(0,3),32,32;bitsPerPixel:(0,3),64,32;redMask:(0,3),96,32;redShift:(0,3),128,32;redBits:(0,3),160,32;greenMask:(0,3),192,32;greenShift:(0,3),224,32;greenBits:(0,3),256,32;blueMask:(0,3),288,32;blueShift:(0,3),320,32;blueBits:(0,3),352,32;width:(0,3),384,32;height:(0,3),416,32;pitch:(0,3),448,32;supportsGfxSyscalls:(0,3),480,32;operator=::(6,224)=#(6,223),(6,225)=&(6,223),(6,226)=*(6,223),(6,227)=&(6,228)=k(6,223),(0,6);:_ZN17MAFrameBufferInfoaSERKS_;2A.;__base_ctor::(6,229)=#(6,223),(0,6),(6,226),(6,227),(0,6);:_ZN17MAFrameBufferInfoC2ERKS_;2A.;__comp_ctor::(6,229):_ZN17MAFrameBufferInfoC1ERKS_;2A.;__base_ctor::(6,230)=#(6,223),(0,6),(6,226),(0,6);:_ZN17MAFrameBufferInfoC2Ev;2A.;__comp_ctor::(6,230):_ZN17MAFrameBufferInfoC1Ev;2A.;;",128,0,4413,0
	.stabs	"MAFrameBufferInfo:t(6,231)=(6,223)",128,0,4430,0
	.stabs	"MA_CAMERA_FORMAT:Tt(6,232)=s8width:(0,3),0,32;height:(0,3),32,32;operator=::(6,233)=#(6,232),(6,234)=&(6,232),(6,235)=*(6,232),(6,236)=&(6,237)=k(6,232),(0,6);:_ZN16MA_CAMERA_FORMATaSERKS_;2A.;__base_ctor::(6,238)=#(6,232),(0,6),(6,235),(6,236),(0,6);:_ZN16MA_CAMERA_FORMATC2ERKS_;2A.;__comp_ctor::(6,238):_ZN16MA_CAMERA_FORMATC1ERKS_;2A.;__base_ctor::(6,239)=#(6,232),(0,6),(6,235),(0,6);:_ZN16MA_CAMERA_FORMATC2Ev;2A.;__comp_ctor::(6,239):_ZN16MA_CAMERA_FORMATC1Ev;2A.;;",128,0,4447,0
	.stabs	"MA_CAMERA_FORMAT:t(6,240)=(6,232)",128,0,4450,0
	.stabs	"MADBBlob:Tt(6,241)=s8data:(6,8),0,32;size:(0,3),32,32;operator=::(6,242)=#(6,241),(6,243)=&(6,241),(6,244)=*(6,241),(6,245)=&(6,246)=k(6,241),(0,6);:_ZN8MADBBlobaSERKS_;2A.;__base_ctor::(6,247)=#(6,241),(0,6),(6,244),(6,245),(0,6);:_ZN8MADBBlobC2ERKS_;2A.;__comp_ctor::(6,247):_ZN8MADBBlobC1ERKS_;2A.;__base_ctor::(6,248)=#(6,241),(0,6),(6,244),(0,6);:_ZN8MADBBlobC2Ev;2A.;__comp_ctor::(6,248):_ZN8MADBBlobC1Ev;2A.;;",128,0,4464,0
	.stabs	"MADBBlob:t(6,249)=(6,241)",128,0,4467,0
	.stabs	"MADBText:Tt(6,250)=s8addr:(6,4),0,32;length:(0,3),32,32;operator=::(6,251)=#(6,250),(6,252)=&(6,250),(6,253)=*(6,250),(6,254)=&(6,255)=k(6,250),(0,6);:_ZN8MADBTextaSERKS_;2A.;__base_ctor::(6,256)=#(6,250),(0,6),(6,253),(6,254),(0,6);:_ZN8MADBTextC2ERKS_;2A.;__comp_ctor::(6,256):_ZN8MADBTextC1ERKS_;2A.;__base_ctor::(6,257)=#(6,250),(0,6),(6,253),(0,6);:_ZN8MADBTextC2Ev;2A.;__comp_ctor::(6,257):_ZN8MADBTextC1Ev;2A.;;",128,0,4481,0
	.stabs	"MADBText:t(6,258)=(6,250)",128,0,4486,0
	.stabs	"MADBValue:Tt(6,259)=s12:(6,260)=u8i:(0,3),0,32;d:(0,8),0,64;blob:(6,249),0,64;dataHandle:(6,10),0,32;text:(6,258),0,64;i64:(6,14),0,64;;,0,64;type:(0,3),64,32;operator=::(6,261)=#(6,259),(6,262)=&(6,259),(6,263)=*(6,259),(6,264)=&(6,265)=k(6,259),(0,6);:_ZN9MADBValueaSERKS_;2A.;__base_ctor::(6,266)=#(6,259),(0,6),(6,263),(6,264),(0,6);:_ZN9MADBValueC2ERKS_;2A.;__comp_ctor::(6,266):_ZN9MADBValueC1ERKS_;2A.;__base_ctor::(6,267)=#(6,259),(0,6),(6,263),(0,6);:_ZN9MADBValueC2Ev;2A.;__comp_ctor::(6,267):_ZN9MADBValueC1Ev;2A.;;",128,0,4501,0
	.stabs	"MADBValue:t(6,268)=(6,259)",128,0,4512,0
	.stabs	"MAPushNotificationData:Tt(6,269)=s24type:(0,3),0,32;alertMessage:(6,4),32,32;alertMessageSize:(0,3),64,32;soundFileName:(6,4),96,32;soundFileNameSize:(0,3),128,32;badgeIcon:(0,3),160,32;operator=::(6,270)=#(6,269),(6,271)=&(6,269),(6,272)=*(6,269),(6,273)=&(6,274)=k(6,269),(0,6);:_ZN22MAPushNotificationDataaSERKS_;2A.;__base_ctor::(6,275)=#(6,269),(0,6),(6,272),(6,273),(0,6);:_ZN22MAPushNotificationDataC2ERKS_;2A.;__comp_ctor::(6,275):_ZN22MAPushNotificationDataC1ERKS_;2A.;__base_ctor::(6,276)=#(6,269),(0,6),(6,272),(0,6);:_ZN22MAPushNotificationDataC2Ev;2A.;__comp_ctor::(6,276):_ZN22MAPushNotificationDataC1Ev;2A.;;",128,0,4529,0
	.stabs	"MAPushNotificationData:t(6,277)=(6,269)",128,0,4558,0
	.stabn	162,0,0,0
	.stabs	"size_t:t(5,1)=(0,16)",128,0,32,0
	.stabn	162,0,0,0
	.stabs	"c:/MoSync/include/kazlib/dict.h",130,0,0,0
	.stabs	"dictcount_t:t(8,1)=(0,16)",128,0,39,0
	.stabs	"dnode_color_t:t(8,2)=ednode_red:0,dnode_black:1,;",128,0,46,0
	.stabs	"dnode_t:Tt(8,3)=s24dict_left:(8,4)=*(8,3),0,32;dict_right:(8,4),32,32;dict_parent:(8,4),64,32;dict_color:(8,2),96,32;dict_key:(8,5)=*(8,6)=k(0,6),128,32;dict_data:(6,9),160,32;operator=::(8,7)=#(8,3),(8,8)=&(8,3),(8,4),(8,9)=&(8,10)=k(8,3),(0,6);:_ZN7dnode_taSERKS_;2A.;__base_ctor::(8,11)=#(8,3),(0,6),(8,4),(8,9),(0,6);:_ZN7dnode_tC2ERKS_;2A.;__comp_ctor::(8,11):_ZN7dnode_tC1ERKS_;2A.;__base_ctor::(8,12)=#(8,3),(0,6),(8,4),(0,6);:_ZN7dnode_tC2Ev;2A.;__comp_ctor::(8,12):_ZN7dnode_tC1Ev;2A.;;",128,0,48,0
	.stabs	"dnode_t:t(8,13)=(8,3)",128,0,59,0
	.stabs	"dict_comp_t:t(8,14)=(8,15)=*(8,16)=f(0,3)",128,0,61,0
	.stabs	"dnode_alloc_t:t(8,17)=(8,18)=*(8,19)=f(8,20)=*(8,13)",128,0,62,0
	.stabs	"dnode_free_t:t(8,21)=(8,22)=*(8,23)=f(0,6)",128,0,63,0
	.stabs	"dict_t:Tt(8,24)=s52dict_nilnode:(8,13),0,192;dict_nodecount:(8,1),192,32;dict_maxcount:(8,1),224,32;dict_compare:(8,14),256,32;dict_allocnode:(8,17),288,32;dict_freenode:(8,21),320,32;dict_context:(6,9),352,32;dict_dupes:(0,3),384,32;operator=::(8,25)=#(8,24),(8,26)=&(8,24),(8,27)=*(8,24),(8,28)=&(8,29)=k(8,24),(0,6);:_ZN6dict_taSERKS_;2A.;__base_ctor::(8,30)=#(8,24),(0,6),(8,27),(8,28),(0,6);:_ZN6dict_tC2ERKS_;2A.;__comp_ctor::(8,30):_ZN6dict_tC1ERKS_;2A.;__base_ctor::(8,31)=#(8,24),(0,6),(8,27),(0,6);:_ZN6dict_tC2Ev;2A.;__comp_ctor::(8,31):_ZN6dict_tC1Ev;2A.;;",128,0,65,0
	.stabs	"dict_t:t(8,32)=(8,24)",128,0,78,0
	.stabs	"dnode_process_t:t(8,33)=(8,34)=*(8,35)=f(0,6)",128,0,80,0
	.stabs	"dict_load_t:Tt(8,36)=s28dict_dictptr:(8,37)=*(8,32),0,32;dict_nilnode:(8,13),32,192;operator=::(8,38)=#(8,36),(8,39)=&(8,36),(8,40)=*(8,36),(8,41)=&(8,42)=k(8,36),(0,6);:_ZN11dict_load_taSERKS_;2A.;__base_ctor::(8,43)=#(8,36),(0,6),(8,40),(8,41),(0,6);:_ZN11dict_load_tC2ERKS_;2A.;__comp_ctor::(8,43):_ZN11dict_load_tC1ERKS_;2A.;__base_ctor::(8,44)=#(8,36),(0,6),(8,40),(0,6);:_ZN11dict_load_tC2Ev;2A.;__comp_ctor::(8,44):_ZN11dict_load_tC1Ev;2A.;;",128,0,82,0
	.stabs	"dict_load_t:t(8,45)=(8,36)",128,0,89,0
	.stabn	162,0,0,0
	.stabn	162,0,0,0
	.stabn	162,0,0,0
	.stabs	"c:/MoSync/include/Wormhole/HighLevelHttpConnection.h",130,0,0,0
	.stabs	"c:/MoSync/include/maheap.h",130,0,0,0
	.stabs	"malloc_handler:t(10,1)=(10,2)=*(10,3)=f(0,6)",128,0,108,0
	.stabs	"malloc_hook:t(10,4)=(10,5)=*(10,6)=f(6,9)",128,0,109,0
	.stabs	"free_hook:t(10,7)=(10,8)=*(10,9)=f(0,6)",128,0,110,0
	.stabs	"realloc_hook:t(10,10)=(10,11)=*(10,12)=f(6,9)",128,0,111,0
	.stabs	"block_size_hook:t(10,13)=(10,14)=*(10,15)=f(0,3)",128,0,112,0
	.stabn	162,0,0,0
	.stabs	"c:/MoSync/include/MAUtil/Connection.h",130,0,0,0
	.stabs	"c:/MoSync/include/MAUtil/Environment.h",130,0,0,0
	.stabs	"PLATFORM_TYPE:t(12,1)=eOS_IOS:0,OS_ANDROID:1,OS_WIN:2,OS_UNKNOWN:3,;",128,0,48,0
	.stabs	"Environment::TimerEventInstance:Tt(12,2)=s20e:(12,3)=*(12,4)=xsTimerListener:,0,32;addTime:(0,3),32,32;period:(0,3),64,32;numTimes:(0,3),96,32;nextInvoke:(0,3),128,32;__base_ctor::(12,5)=#(12,2),(0,6),(12,6)=*(12,2),(12,3),(0,3),(0,3),(0,6);:_ZN6MAUtil11Environment18TimerEventInstanceC2EPNS_13TimerListenerEii;2A.;__comp_ctor::(12,5):_ZN6MAUtil11Environment18TimerEventInstanceC1EPNS_13TimerListenerEii;2A.;operator=::(12,7)=#(12,2),(12,8)=&(12,2),(12,6),(12,9)=&(12,10)=k(12,2),(0,6);:_ZN6MAUtil11Environment18TimerEventInstanceaSERKS1_;2A.;__base_ctor::(12,11)=#(12,2),(0,6),(12,6),(12,9),(0,6);:_ZN6MAUtil11Environment18TimerEventInstanceC2ERKS1_;2A.;__comp_ctor::(12,11):_ZN6MAUtil11Environment18TimerEventInstanceC1ERKS1_;2A.;;",128,0,546,0
	.stabs	"Vector<MAUtil::ListenerSet<MAUtil::KeyListener>::Combo>:Tt(12,12)=s12mSize:/1(0,3),0,32;mCapacity:/1(0,3),32,32;mData:/1(12,13)=*(12,14)=xsCombo:,64,32;__base_ctor::(12,15)=#(12,12),(0,6),(12,16)=*(12,12),(0,3),(0,6);:_ZN6MAUtil6VectorINS_11ListenerSetINS_11KeyListenerEE5ComboEEC2Ei;2A.;__comp_ctor::(12,15):_ZN6MAUtil6VectorINS_11ListenerSetINS_11KeyListenerEE5ComboEEC1Ei;2A.;__base_ctor::(12,17)=#(12,12),(0,6),(12,16),(12,18)=*(12,19)=k(12,14),(0,3),(0,6);:_ZN6MAUtil6VectorINS_11ListenerSetINS_11KeyListenerEE5ComboEEC2EPKS4_i;2A.;__comp_ctor::(12,17):_ZN6MAUtil6VectorINS_11ListenerSetINS_11KeyListenerEE5ComboEEC1EPKS4_i;2A.;__base_ctor::(12,20)=#(12,12),(0,6),(12,16),(12,21)=&(12,22)=k(12,12),(0,6);:_ZN6MAUtil6VectorINS_11ListenerSetINS_11KeyListenerEE5ComboEEC2ERKS5_;2A.;__comp_ctor::(12,20):_ZN6MAUtil6VectorINS_11ListenerSetINS_11KeyListenerEE5ComboEEC1ERKS5_;2A.;__base_dtor::(12,23)=#(12,12),(0,6),(12,16),(0,6);:_ZN6MAUtil6VectorINS_11ListenerSetINS_11KeyListenerEE5ComboEED2Ev;2A.;__comp_dtor::(12,23):_ZN6MAUtil6VectorINS_11ListenerSetINS_11KeyListenerEE5ComboEED1Ev;2A.;operator=::(12,24)=#(12,12),(12,25)=&(12,12),(12,16),(12,21),(0,6);:_ZN6MAUtil6VectorINS_11ListenerSetINS_11KeyListenerEE5ComboEEaSERKS5_;2A.;add::(12,26)=#(12,12),(0,6),(12,16),(12,27)=&(12,19),(0,6);:_ZN6MAUtil6VectorINS_11ListenerSetINS_11KeyListenerEE5ComboEE3addERKS4_;2A.(12,17):_ZN6MAUtil6VectorINS_11ListenerSetINS_11KeyListenerEE5ComboEE3addEPKS4_i;2A.;remove::(12,28)=#(12,12),(0,6),(12,16),(12,13),(0,6);:_ZN6MAUtil6VectorINS_11ListenerSetINS_11KeyListenerEE5ComboEE6removeEPS4_;2A.(12,29)=#(12,12),(0,6),(12,16),(0,3),(0,6);:_ZN6MAUtil6VectorINS_11ListenerSetINS_11KeyListenerEE5ComboEE6removeEi;2A.(12,30)=#(12,12),(0,6),(12,16),(0,3),(0,3),(0,6);:_ZN6MAUtil6VectorINS_11ListenerSetINS_11KeyListenerEE5ComboEE6removeEii;2A.;insert::(12,31)=#(12,12),(0,6),(12,16),(0,3),(12,14),(0,6);:_ZN6MAUtil6VectorINS_11ListenerSetINS_11KeyListenerEE5ComboEE6insertEiS4_;2A.;size::(12,32)=#(12,12),(0,3),(12,33)=*(12,22),(0,6);:_ZNK6MAUtil6VectorINS_11ListenerSetINS_11KeyListenerEE5ComboEE4sizeEv;2B.;resize::(12,29):_ZN6MAUtil6VectorINS_11ListenerSetINS_11KeyListenerEE5ComboEE6resizeEi;2A.;reserve::(12,29):_ZN6MAUtil6VectorINS_11ListenerSetINS_11KeyListenerEE5ComboEE7reserveEi;2A.;clear::(12,23):_ZN6MAUtil6VectorINS_11ListenerSetINS_11KeyListenerEE5ComboEE5clearEv;2A.;empty::(12,34)=#(12,12),(0,4),(12,33),(0,6);:_ZNK6MAUtil6VectorINS_11ListenerSetINS_11KeyListenerEE5ComboEE5emptyEv;2B.;capacity::(12,32):_ZNK6MAUtil6VectorINS_11ListenerSetINS_11KeyListenerEE5ComboEE8capacityEv;2B.;begin::(12,35)=#(12,12),(12,13),(12,16),(0,6);:_ZN6MAUtil6VectorINS_11ListenerSetINS_11KeyListenerEE5ComboEE5beginEv;2A.;end::(12,35):_ZN6MAUtil6VectorINS_11ListenerSetINS_11KeyListenerEE5ComboEE3endEv;2A.;begin::(12,36)=#(12,12),(12,18),(12,33),(0,6);:_ZNK6MAUtil6VectorINS_11ListenerSetINS_11KeyListenerEE5ComboEE5beginEv;2B.;end::(12,36):_ZNK6MAUtil6VectorINS_11ListenerSetINS_11KeyListenerEE5ComboEE3endEv;2B.;operator[]::(12,37)=#(12,12),(12,38)=&(12,14),(12,16),(0,3),(0,6);:_ZN6MAUtil6VectorINS_11ListenerSetINS_11KeyListenerEE5ComboEEixEi;2A.(12,39)=#(12,12),(12,27),(12,33),(0,3),(0,6);:_ZNK6MAUtil6VectorINS_11ListenerSetINS_11KeyListenerEE5ComboEEixEi;2B.;pointer::(12,36):_ZNK6MAUtil6VectorINS_11ListenerSetINS_11KeyListenerEE5ComboEE7pointerEv;2B.(12,35):_ZN6MAUtil6VectorINS_11ListenerSetINS_11KeyListenerEE5ComboEE7pointerEv;2A.;;",128,0,95,0
	.stabs	"ListenerSet<MAUtil::KeyListener>:Tt(12,40)=s16mRunning:/0(0,4),0,8;mUpdateRequired:/0(0,4),8,8;mShouldDelete:/0(0,4),16,8;mVec:/0(12,12),32,96;__base_ctor::(12,41)=#(12,40),(0,6),(12,42)=*(12,40),(0,4),(0,6);:_ZN6MAUtil11ListenerSetINS_11KeyListenerEEC2Eb;2A.;__comp_ctor::(12,41):_ZN6MAUtil11ListenerSetINS_11KeyListenerEEC1Eb;2A.;begin::(12,43)=#(12,40),(12,44)=xsiterator:,(12,42),(0,6);:_ZN6MAUtil11ListenerSetINS_11KeyListenerEE5beginEv;2A.;add::(12,45)=#(12,40),(0,6),(12,42),(12,46)=*(12,47)=xsKeyListener:,(0,6);:_ZN6MAUtil11ListenerSetINS_11KeyListenerEE3addEPS1_;2A.;remove::(12,45):_ZN6MAUtil11ListenerSetINS_11KeyListenerEE6removeEPS1_;2A.;contains::(12,48)=#(12,40),(0,4),(12,42),(12,46),(0,6);:_ZN6MAUtil11ListenerSetINS_11KeyListenerEE8containsEPS1_;2A.;setRunning::(12,49)=#(12,40),(0,6),(12,42),(0,4),(0,6);:_ZN6MAUtil11ListenerSetINS_11KeyListenerEE10setRunningEb;2A.;size::(12,50)=#(12,40),(0,3),(12,51)=*(12,52)=k(12,40),(0,6);:_ZNK6MAUtil11ListenerSetINS_11KeyListenerEE4sizeEv;2B.;operator=::(12,53)=#(12,40),(12,54)=&(12,40),(12,42),(12,55)=&(12,52),(0,6);:_ZN6MAUtil11ListenerSetINS_11KeyListenerEEaSERKS2_;2A.;__base_ctor::(12,56)=#(12,40),(0,6),(12,42),(12,55),(0,6);:_ZN6MAUtil11ListenerSetINS_11KeyListenerEEC2ERKS2_;2A.;__comp_ctor::(12,56):_ZN6MAUtil11ListenerSetINS_11KeyListenerEEC1ERKS2_;2A.;__base_dtor::(12,57)=#(12,40),(0,6),(12,42),(0,6);:_ZN6MAUtil11ListenerSetINS_11KeyListenerEED2Ev;2A.;__comp_dtor::(12,57):_ZN6MAUtil11ListenerSetINS_11KeyListenerEED1Ev;2A.;;",128,0,46,0
	.stabs	"Vector<MAUtil::ListenerSet<MAUtil::PointerListener>::Combo>:Tt(12,58)=s12mSize:/1(0,3),0,32;mCapacity:/1(0,3),32,32;mData:/1(12,59)=*(12,60)=xsCombo:,64,32;__base_ctor::(12,61)=#(12,58),(0,6),(12,62)=*(12,58),(0,3),(0,6);:_ZN6MAUtil6VectorINS_11ListenerSetINS_15PointerListenerEE5ComboEEC2Ei;2A.;__comp_ctor::(12,61):_ZN6MAUtil6VectorINS_11ListenerSetINS_15PointerListenerEE5ComboEEC1Ei;2A.;__base_ctor::(12,63)=#(12,58),(0,6),(12,62),(12,64)=*(12,65)=k(12,60),(0,3),(0,6);:_ZN6MAUtil6VectorINS_11ListenerSetINS_15PointerListenerEE5ComboEEC2EPKS4_i;2A.;__comp_ctor::(12,63):_ZN6MAUtil6VectorINS_11ListenerSetINS_15PointerListenerEE5ComboEEC1EPKS4_i;2A.;__base_ctor::(12,66)=#(12,58),(0,6),(12,62),(12,67)=&(12,68)=k(12,58),(0,6);:_ZN6MAUtil6VectorINS_11ListenerSetINS_15PointerListenerEE5ComboEEC2ERKS5_;2A.;__comp_ctor::(12,66):_ZN6MAUtil6VectorINS_11ListenerSetINS_15PointerListenerEE5ComboEEC1ERKS5_;2A.;__base_dtor::(12,69)=#(12,58),(0,6),(12,62),(0,6);:_ZN6MAUtil6VectorINS_11ListenerSetINS_15PointerListenerEE5ComboEED2Ev;2A.;__comp_dtor::(12,69):_ZN6MAUtil6VectorINS_11ListenerSetINS_15PointerListenerEE5ComboEED1Ev;2A.;operator=::(12,70)=#(12,58),(12,71)=&(12,58),(12,62),(12,67),(0,6);:_ZN6MAUtil6VectorINS_11ListenerSetINS_15PointerListenerEE5ComboEEaSERKS5_;2A.;add::(12,72)=#(12,58),(0,6),(12,62),(12,73)=&(12,65),(0,6);:_ZN6MAUtil6VectorINS_11ListenerSetINS_15PointerListenerEE5ComboEE3addERKS4_;2A.(12,63):_ZN6MAUtil6VectorINS_11ListenerSetINS_15PointerListenerEE5ComboEE3addEPKS4_i;2A.;remove::(12,74)=#(12,58),(0,6),(12,62),(12,59),(0,6);:_ZN6MAUtil6VectorINS_11ListenerSetINS_15PointerListenerEE5ComboEE6removeEPS4_;2A.(12,75)=#(12,58),(0,6),(12,62),(0,3),(0,6);:_ZN6MAUtil6VectorINS_11ListenerSetINS_15PointerListenerEE5ComboEE6removeEi;2A.(12,76)=#(12,58),(0,6),(12,62),(0,3),(0,3),(0,6);:_ZN6MAUtil6VectorINS_11ListenerSetINS_15PointerListenerEE5ComboEE6removeEii;2A.;insert::(12,77)=#(12,58),(0,6),(12,62),(0,3),(12,60),(0,6);:_ZN6MAUtil6VectorINS_11ListenerSetINS_15PointerListenerEE5ComboEE6insertEiS4_;2A.;size::(12,78)=#(12,58),(0,3),(12,79)=*(12,68),(0,6);:_ZNK6MAUtil6VectorINS_11ListenerSetINS_15PointerListenerEE5ComboEE4sizeEv;2B.;resize::(12,75):_ZN6MAUtil6VectorINS_11ListenerSetINS_15PointerListenerEE5ComboEE6resizeEi;2A.;reserve::(12,75):_ZN6MAUtil6VectorINS_11ListenerSetINS_15PointerListenerEE5ComboEE7reserveEi;2A.;clear::(12,69):_ZN6MAUtil6VectorINS_11ListenerSetINS_15PointerListenerEE5ComboEE5clearEv;2A.;empty::(12,80)=#(12,58),(0,4),(12,79),(0,6);:_ZNK6MAUtil6VectorINS_11ListenerSetINS_15PointerListenerEE5ComboEE5emptyEv;2B.;capacity::(12,78):_ZNK6MAUtil6VectorINS_11ListenerSetINS_15PointerListenerEE5ComboEE8capacityEv;2B.;begin::(12,81)=#(12,58),(12,59),(12,62),(0,6);:_ZN6MAUtil6VectorINS_11ListenerSetINS_15PointerListenerEE5ComboEE5beginEv;2A.;end::(12,81):_ZN6MAUtil6VectorINS_11ListenerSetINS_15PointerListenerEE5ComboEE3endEv;2A.;begin::(12,82)=#(12,58),(12,64),(12,79),(0,6);:_ZNK6MAUtil6VectorINS_11ListenerSetINS_15PointerListenerEE5ComboEE5beginEv;2B.;end::(12,82):_ZNK6MAUtil6VectorINS_11ListenerSetINS_15PointerListenerEE5ComboEE3endEv;2B.;operator[]::(12,83)=#(12,58),(12,84)=&(12,60),(12,62),(0,3),(0,6);:_ZN6MAUtil6VectorINS_11ListenerSetINS_15PointerListenerEE5ComboEEixEi;2A.(12,85)=#(12,58),(12,73),(12,79),(0,3),(0,6);:_ZNK6MAUtil6VectorINS_11ListenerSetINS_15PointerListenerEE5ComboEEixEi;2B.;pointer::(12,82):_ZNK6MAUtil6VectorINS_11ListenerSetINS_15PointerListenerEE5ComboEE7pointerEv;2B.(12,81):_ZN6MAUtil6VectorINS_11ListenerSetINS_15PointerListenerEE5ComboEE7pointerEv;2A.;;",128,0,95,0
	.stabs	"ListenerSet<MAUtil::PointerListener>:Tt(12,86)=s16mRunning:/0(0,4),0,8;mUpdateRequired:/0(0,4),8,8;mShouldDelete:/0(0,4),16,8;mVec:/0(12,58),32,96;__base_ctor::(12,87)=#(12,86),(0,6),(12,88)=*(12,86),(0,4),(0,6);:_ZN6MAUtil11ListenerSetINS_15PointerListenerEEC2Eb;2A.;__comp_ctor::(12,87):_ZN6MAUtil11ListenerSetINS_15PointerListenerEEC1Eb;2A.;begin::(12,89)=#(12,86),(12,90)=xsiterator:,(12,88),(0,6);:_ZN6MAUtil11ListenerSetINS_15PointerListenerEE5beginEv;2A.;add::(12,91)=#(12,86),(0,6),(12,88),(12,92)=*(12,93)=xsPointerListener:,(0,6);:_ZN6MAUtil11ListenerSetINS_15PointerListenerEE3addEPS1_;2A.;remove::(12,91):_ZN6MAUtil11ListenerSetINS_15PointerListenerEE6removeEPS1_;2A.;contains::(12,94)=#(12,86),(0,4),(12,88),(12,92),(0,6);:_ZN6MAUtil11ListenerSetINS_15PointerListenerEE8containsEPS1_;2A.;setRunning::(12,95)=#(12,86),(0,6),(12,88),(0,4),(0,6);:_ZN6MAUtil11ListenerSetINS_15PointerListenerEE10setRunningEb;2A.;size::(12,96)=#(12,86),(0,3),(12,97)=*(12,98)=k(12,86),(0,6);:_ZNK6MAUtil11ListenerSetINS_15PointerListenerEE4sizeEv;2B.;operator=::(12,99)=#(12,86),(12,100)=&(12,86),(12,88),(12,101)=&(12,98),(0,6);:_ZN6MAUtil11ListenerSetINS_15PointerListenerEEaSERKS2_;2A.;__base_ctor::(12,102)=#(12,86),(0,6),(12,88),(12,101),(0,6);:_ZN6MAUtil11ListenerSetINS_15PointerListenerEEC2ERKS2_;2A.;__comp_ctor::(12,102):_ZN6MAUtil11ListenerSetINS_15PointerListenerEEC1ERKS2_;2A.;__base_dtor::(12,103)=#(12,86),(0,6),(12,88),(0,6);:_ZN6MAUtil11ListenerSetINS_15PointerListenerEED2Ev;2A.;__comp_dtor::(12,103):_ZN6MAUtil11ListenerSetINS_15PointerListenerEED1Ev;2A.;;",128,0,46,0
	.stabs	"Vector<MAUtil::CloseListener*>:Tt(12,104)=s12mSize:/1(0,3),0,32;mCapacity:/1(0,3),32,32;mData:/1(12,105)=*(12,106)=*(12,107)=xsCloseListener:,64,32;__base_ctor::(12,108)=#(12,104),(0,6),(12,109)=*(12,104),(0,3),(0,6);:_ZN6MAUtil6VectorIPNS_13CloseListenerEEC2Ei;2A.;__comp_ctor::(12,108):_ZN6MAUtil6VectorIPNS_13CloseListenerEEC1Ei;2A.;__base_ctor::(12,110)=#(12,104),(0,6),(12,109),(12,111)=*(12,112)=k(12,106),(0,3),(0,6);:_ZN6MAUtil6VectorIPNS_13CloseListenerEEC2EPKS2_i;2A.;__comp_ctor::(12,110):_ZN6MAUtil6VectorIPNS_13CloseListenerEEC1EPKS2_i;2A.;__base_ctor::(12,113)=#(12,104),(0,6),(12,109),(12,114)=&(12,115)=k(12,104),(0,6);:_ZN6MAUtil6VectorIPNS_13CloseListenerEEC2ERKS3_;2A.;__comp_ctor::(12,113):_ZN6MAUtil6VectorIPNS_13CloseListenerEEC1ERKS3_;2A.;__base_dtor::(12,116)=#(12,104),(0,6),(12,109),(0,6);:_ZN6MAUtil6VectorIPNS_13CloseListenerEED2Ev;2A.;__comp_dtor::(12,116):_ZN6MAUtil6VectorIPNS_13CloseListenerEED1Ev;2A.;operator=::(12,117)=#(12,104),(12,118)=&(12,104),(12,109),(12,114),(0,6);:_ZN6MAUtil6VectorIPNS_13CloseListenerEEaSERKS3_;2A.;add::(12,119)=#(12,104),(0,6),(12,109),(12,120)=&(12,112),(0,6);:_ZN6MAUtil6VectorIPNS_13CloseListenerEE3addERKS2_;2A.(12,110):_ZN6MAUtil6VectorIPNS_13CloseListenerEE3addEPKS2_i;2A.;remove::(12,121)=#(12,104),(0,6),(12,109),(12,105),(0,6);:_ZN6MAUtil6VectorIPNS_13CloseListenerEE6removeEPS2_;2A.(12,122)=#(12,104),(0,6),(12,109),(0,3),(0,6);:_ZN6MAUtil6VectorIPNS_13CloseListenerEE6removeEi;2A.(12,123)=#(12,104),(0,6),(12,109),(0,3),(0,3),(0,6);:_ZN6MAUtil6VectorIPNS_13CloseListenerEE6removeEii;2A.;insert::(12,124)=#(12,104),(0,6),(12,109),(0,3),(12,106),(0,6);:_ZN6MAUtil6VectorIPNS_13CloseListenerEE6insertEiS2_;2A.;size::(12,125)=#(12,104),(0,3),(12,126)=*(12,115),(0,6);:_ZNK6MAUtil6VectorIPNS_13CloseListenerEE4sizeEv;2B.;resize::(12,122):_ZN6MAUtil6VectorIPNS_13CloseListenerEE6resizeEi;2A.;reserve::(12,122):_ZN6MAUtil6VectorIPNS_13CloseListenerEE7reserveEi;2A.;clear::(12,116):_ZN6MAUtil6VectorIPNS_13CloseListenerEE5clearEv;2A.;empty::(12,127)=#(12,104),(0,4),(12,126),(0,6);:_ZNK6MAUtil6VectorIPNS_13CloseListenerEE5emptyEv;2B.;capacity::(12,125):_ZNK6MAUtil6VectorIPNS_13CloseListenerEE8capacityEv;2B.;begin::(12,128)=#(12,104),(12,105),(12,109),(0,6);:_ZN6MAUtil6VectorIPNS_13CloseListenerEE5beginEv;2A.;end::(12,128):_ZN6MAUtil6VectorIPNS_13CloseListenerEE3endEv;2A.;begin::(12,129)=#(12,104),(12,111),(12,126),(0,6);:_ZNK6MAUtil6VectorIPNS_13CloseListenerEE5beginEv;2B.;end::(12,129):_ZNK6MAUtil6VectorIPNS_13CloseListenerEE3endEv;2B.;operator[]::(12,130)=#(12,104),(12,131)=&(12,106),(12,109),(0,3),(0,6);:_ZN6MAUtil6VectorIPNS_13CloseListenerEEixEi;2A.(12,132)=#(12,104),(12,120),(12,126),(0,3),(0,6);:_ZNK6MAUtil6VectorIPNS_13CloseListenerEEixEi;2B.;pointer::(12,129):_ZNK6MAUtil6VectorIPNS_13CloseListenerEE7pointerEv;2B.(12,128):_ZN6MAUtil6VectorIPNS_13CloseListenerEE7pointerEv;2A.;;",128,0,95,0
	.stabs	"Vector<MAUtil::ListenerSet<MAUtil::ConnListener>::Combo>:Tt(12,133)=s12mSize:/1(0,3),0,32;mCapacity:/1(0,3),32,32;mData:/1(12,134)=*(12,135)=xsCombo:,64,32;__base_ctor::(12,136)=#(12,133),(0,6),(12,137)=*(12,133),(0,3),(0,6);:_ZN6MAUtil6VectorINS_11ListenerSetINS_12ConnListenerEE5ComboEEC2Ei;2A.;__comp_ctor::(12,136):_ZN6MAUtil6VectorINS_11ListenerSetINS_12ConnListenerEE5ComboEEC1Ei;2A.;__base_ctor::(12,138)=#(12,133),(0,6),(12,137),(12,139)=*(12,140)=k(12,135),(0,3),(0,6);:_ZN6MAUtil6VectorINS_11ListenerSetINS_12ConnListenerEE5ComboEEC2EPKS4_i;2A.;__comp_ctor::(12,138):_ZN6MAUtil6VectorINS_11ListenerSetINS_12ConnListenerEE5ComboEEC1EPKS4_i;2A.;__base_ctor::(12,141)=#(12,133),(0,6),(12,137),(12,142)=&(12,143)=k(12,133),(0,6);:_ZN6MAUtil6VectorINS_11ListenerSetINS_12ConnListenerEE5ComboEEC2ERKS5_;2A.;__comp_ctor::(12,141):_ZN6MAUtil6VectorINS_11ListenerSetINS_12ConnListenerEE5ComboEEC1ERKS5_;2A.;__base_dtor::(12,144)=#(12,133),(0,6),(12,137),(0,6);:_ZN6MAUtil6VectorINS_11ListenerSetINS_12ConnListenerEE5ComboEED2Ev;2A.;__comp_dtor::(12,144):_ZN6MAUtil6VectorINS_11ListenerSetINS_12ConnListenerEE5ComboEED1Ev;2A.;operator=::(12,145)=#(12,133),(12,146)=&(12,133),(12,137),(12,142),(0,6);:_ZN6MAUtil6VectorINS_11ListenerSetINS_12ConnListenerEE5ComboEEaSERKS5_;2A.;add::(12,147)=#(12,133),(0,6),(12,137),(12,148)=&(12,140),(0,6);:_ZN6MAUtil6VectorINS_11ListenerSetINS_12ConnListenerEE5ComboEE3addERKS4_;2A.(12,138):_ZN6MAUtil6VectorINS_11ListenerSetINS_12ConnListenerEE5ComboEE3addEPKS4_i;2A.;remove::(12,149)=#(12,133),(0,6),(12,137),(12,134),(0,6);:_ZN6MAUtil6VectorINS_11ListenerSetINS_12ConnListenerEE5ComboEE6removeEPS4_;2A.(12,150)=#(12,133),(0,6),(12,137),(0,3),(0,6);:_ZN6MAUtil6VectorINS_11ListenerSetINS_12ConnListenerEE5ComboEE6removeEi;2A.(12,151)=#(12,133),(0,6),(12,137),(0,3),(0,3),(0,6);:_ZN6MAUtil6VectorINS_11ListenerSetINS_12ConnListenerEE5ComboEE6removeEii;2A.;insert::(12,152)=#(12,133),(0,6),(12,137),(0,3),(12,135),(0,6);:_ZN6MAUtil6VectorINS_11ListenerSetINS_12ConnListenerEE5ComboEE6insertEiS4_;2A.;size::(12,153)=#(12,133),(0,3),(12,154)=*(12,143),(0,6);:_ZNK6MAUtil6VectorINS_11ListenerSetINS_12ConnListenerEE5ComboEE4sizeEv;2B.;resize::(12,150):_ZN6MAUtil6VectorINS_11ListenerSetINS_12ConnListenerEE5ComboEE6resizeEi;2A.;reserve::(12,150):_ZN6MAUtil6VectorINS_11ListenerSetINS_12ConnListenerEE5ComboEE7reserveEi;2A.;clear::(12,144):_ZN6MAUtil6VectorINS_11ListenerSetINS_12ConnListenerEE5ComboEE5clearEv;2A.;empty::(12,155)=#(12,133),(0,4),(12,154),(0,6);:_ZNK6MAUtil6VectorINS_11ListenerSetINS_12ConnListenerEE5ComboEE5emptyEv;2B.;capacity::(12,153):_ZNK6MAUtil6VectorINS_11ListenerSetINS_12ConnListenerEE5ComboEE8capacityEv;2B.;begin::(12,156)=#(12,133),(12,134),(12,137),(0,6);:_ZN6MAUtil6VectorINS_11ListenerSetINS_12ConnListenerEE5ComboEE5beginEv;2A.;end::(12,156):_ZN6MAUtil6VectorINS_11ListenerSetINS_12ConnListenerEE5ComboEE3endEv;2A.;begin::(12,157)=#(12,133),(12,139),(12,154),(0,6);:_ZNK6MAUtil6VectorINS_11ListenerSetINS_12ConnListenerEE5ComboEE5beginEv;2B.;end::(12,157):_ZNK6MAUtil6VectorINS_11ListenerSetINS_12ConnListenerEE5ComboEE3endEv;2B.;operator[]::(12,158)=#(12,133),(12,159)=&(12,135),(12,137),(0,3),(0,6);:_ZN6MAUtil6VectorINS_11ListenerSetINS_12ConnListenerEE5ComboEEixEi;2A.(12,160)=#(12,133),(12,148),(12,154),(0,3),(0,6);:_ZNK6MAUtil6VectorINS_11ListenerSetINS_12ConnListenerEE5ComboEEixEi;2B.;pointer::(12,157):_ZNK6MAUtil6VectorINS_11ListenerSetINS_12ConnListenerEE5ComboEE7pointerEv;2B.(12,156):_ZN6MAUtil6VectorINS_11ListenerSetINS_12ConnListenerEE5ComboEE7pointerEv;2A.;;",128,0,95,0
	.stabs	"ListenerSet<MAUtil::ConnListener>:Tt(12,161)=s16mRunning:/0(0,4),0,8;mUpdateRequired:/0(0,4),8,8;mShouldDelete:/0(0,4),16,8;mVec:/0(12,133),32,96;__base_ctor::(12,162)=#(12,161),(0,6),(12,163)=*(12,161),(0,4),(0,6);:_ZN6MAUtil11ListenerSetINS_12ConnListenerEEC2Eb;2A.;__comp_ctor::(12,162):_ZN6MAUtil11ListenerSetINS_12ConnListenerEEC1Eb;2A.;begin::(12,164)=#(12,161),(12,165)=xsiterator:,(12,163),(0,6);:_ZN6MAUtil11ListenerSetINS_12ConnListenerEE5beginEv;2A.;add::(12,166)=#(12,161),(0,6),(12,163),(12,167)=*(12,168)=xsConnListener:,(0,6);:_ZN6MAUtil11ListenerSetINS_12ConnListenerEE3addEPS1_;2A.;remove::(12,166):_ZN6MAUtil11ListenerSetINS_12ConnListenerEE6removeEPS1_;2A.;contains::(12,169)=#(12,161),(0,4),(12,163),(12,167),(0,6);:_ZN6MAUtil11ListenerSetINS_12ConnListenerEE8containsEPS1_;2A.;setRunning::(12,170)=#(12,161),(0,6),(12,163),(0,4),(0,6);:_ZN6MAUtil11ListenerSetINS_12ConnListenerEE10setRunningEb;2A.;size::(12,171)=#(12,161),(0,3),(12,172)=*(12,173)=k(12,161),(0,6);:_ZNK6MAUtil11ListenerSetINS_12ConnListenerEE4sizeEv;2B.;operator=::(12,174)=#(12,161),(12,175)=&(12,161),(12,163),(12,176)=&(12,173),(0,6);:_ZN6MAUtil11ListenerSetINS_12ConnListenerEEaSERKS2_;2A.;__base_ctor::(12,177)=#(12,161),(0,6),(12,163),(12,176),(0,6);:_ZN6MAUtil11ListenerSetINS_12ConnListenerEEC2ERKS2_;2A.;__comp_ctor::(12,177):_ZN6MAUtil11ListenerSetINS_12ConnListenerEEC1ERKS2_;2A.;__base_dtor::(12,178)=#(12,161),(0,6),(12,163),(0,6);:_ZN6MAUtil11ListenerSetINS_12ConnListenerEED2Ev;2A.;__comp_dtor::(12,178):_ZN6MAUtil11ListenerSetINS_12ConnListenerEED1Ev;2A.;;",128,0,46,0
	.stabs	"Vector<MAUtil::ListenerSet<MAUtil::IdleListener>::Combo>:Tt(12,179)=s12mSize:/1(0,3),0,32;mCapacity:/1(0,3),32,32;mData:/1(12,180)=*(12,181)=xsCombo:,64,32;__base_ctor::(12,182)=#(12,179),(0,6),(12,183)=*(12,179),(0,3),(0,6);:_ZN6MAUtil6VectorINS_11ListenerSetINS_12IdleListenerEE5ComboEEC2Ei;2A.;__comp_ctor::(12,182):_ZN6MAUtil6VectorINS_11ListenerSetINS_12IdleListenerEE5ComboEEC1Ei;2A.;__base_ctor::(12,184)=#(12,179),(0,6),(12,183),(12,185)=*(12,186)=k(12,181),(0,3),(0,6);:_ZN6MAUtil6VectorINS_11ListenerSetINS_12IdleListenerEE5ComboEEC2EPKS4_i;2A.;__comp_ctor::(12,184):_ZN6MAUtil6VectorINS_11ListenerSetINS_12IdleListenerEE5ComboEEC1EPKS4_i;2A.;__base_ctor::(12,187)=#(12,179),(0,6),(12,183),(12,188)=&(12,189)=k(12,179),(0,6);:_ZN6MAUtil6VectorINS_11ListenerSetINS_12IdleListenerEE5ComboEEC2ERKS5_;2A.;__comp_ctor::(12,187):_ZN6MAUtil6VectorINS_11ListenerSetINS_12IdleListenerEE5ComboEEC1ERKS5_;2A.;__base_dtor::(12,190)=#(12,179),(0,6),(12,183),(0,6);:_ZN6MAUtil6VectorINS_11ListenerSetINS_12IdleListenerEE5ComboEED2Ev;2A.;__comp_dtor::(12,190):_ZN6MAUtil6VectorINS_11ListenerSetINS_12IdleListenerEE5ComboEED1Ev;2A.;operator=::(12,191)=#(12,179),(12,192)=&(12,179),(12,183),(12,188),(0,6);:_ZN6MAUtil6VectorINS_11ListenerSetINS_12IdleListenerEE5ComboEEaSERKS5_;2A.;add::(12,193)=#(12,179),(0,6),(12,183),(12,194)=&(12,186),(0,6);:_ZN6MAUtil6VectorINS_11ListenerSetINS_12IdleListenerEE5ComboEE3addERKS4_;2A.(12,184):_ZN6MAUtil6VectorINS_11ListenerSetINS_12IdleListenerEE5ComboEE3addEPKS4_i;2A.;remove::(12,195)=#(12,179),(0,6),(12,183),(12,180),(0,6);:_ZN6MAUtil6VectorINS_11ListenerSetINS_12IdleListenerEE5ComboEE6removeEPS4_;2A.(12,196)=#(12,179),(0,6),(12,183),(0,3),(0,6);:_ZN6MAUtil6VectorINS_11ListenerSetINS_12IdleListenerEE5ComboEE6removeEi;2A.(12,197)=#(12,179),(0,6),(12,183),(0,3),(0,3),(0,6);:_ZN6MAUtil6VectorINS_11ListenerSetINS_12IdleListenerEE5ComboEE6removeEii;2A.;insert::(12,198)=#(12,179),(0,6),(12,183),(0,3),(12,181),(0,6);:_ZN6MAUtil6VectorINS_11ListenerSetINS_12IdleListenerEE5ComboEE6insertEiS4_;2A.;size::(12,199)=#(12,179),(0,3),(12,200)=*(12,189),(0,6);:_ZNK6MAUtil6VectorINS_11ListenerSetINS_12IdleListenerEE5ComboEE4sizeEv;2B.;resize::(12,196):_ZN6MAUtil6VectorINS_11ListenerSetINS_12IdleListenerEE5ComboEE6resizeEi;2A.;reserve::(12,196):_ZN6MAUtil6VectorINS_11ListenerSetINS_12IdleListenerEE5ComboEE7reserveEi;2A.;clear::(12,190):_ZN6MAUtil6VectorINS_11ListenerSetINS_12IdleListenerEE5ComboEE5clearEv;2A.;empty::(12,201)=#(12,179),(0,4),(12,200),(0,6);:_ZNK6MAUtil6VectorINS_11ListenerSetINS_12IdleListenerEE5ComboEE5emptyEv;2B.;capacity::(12,199):_ZNK6MAUtil6VectorINS_11ListenerSetINS_12IdleListenerEE5ComboEE8capacityEv;2B.;begin::(12,202)=#(12,179),(12,180),(12,183),(0,6);:_ZN6MAUtil6VectorINS_11ListenerSetINS_12IdleListenerEE5ComboEE5beginEv;2A.;end::(12,202):_ZN6MAUtil6VectorINS_11ListenerSetINS_12IdleListenerEE5ComboEE3endEv;2A.;begin::(12,203)=#(12,179),(12,185),(12,200),(0,6);:_ZNK6MAUtil6VectorINS_11ListenerSetINS_12IdleListenerEE5ComboEE5beginEv;2B.;end::(12,203):_ZNK6MAUtil6VectorINS_11ListenerSetINS_12IdleListenerEE5ComboEE3endEv;2B.;operator[]::(12,204)=#(12,179),(12,205)=&(12,181),(12,183),(0,3),(0,6);:_ZN6MAUtil6VectorINS_11ListenerSetINS_12IdleListenerEE5ComboEEixEi;2A.(12,206)=#(12,179),(12,194),(12,200),(0,3),(0,6);:_ZNK6MAUtil6VectorINS_11ListenerSetINS_12IdleListenerEE5ComboEEixEi;2B.;pointer::(12,203):_ZNK6MAUtil6VectorINS_11ListenerSetINS_12IdleListenerEE5ComboEE7pointerEv;2B.(12,202):_ZN6MAUtil6VectorINS_11ListenerSetINS_12IdleListenerEE5ComboEE7pointerEv;2A.;;",128,0,95,0
	.stabs	"ListenerSet<MAUtil::IdleListener>:Tt(12,207)=s16mRunning:/0(0,4),0,8;mUpdateRequired:/0(0,4),8,8;mShouldDelete:/0(0,4),16,8;mVec:/0(12,179),32,96;__base_ctor::(12,208)=#(12,207),(0,6),(12,209)=*(12,207),(0,4),(0,6);:_ZN6MAUtil11ListenerSetINS_12IdleListenerEEC2Eb;2A.;__comp_ctor::(12,208):_ZN6MAUtil11ListenerSetINS_12IdleListenerEEC1Eb;2A.;begin::(12,210)=#(12,207),(12,211)=xsiterator:,(12,209),(0,6);:_ZN6MAUtil11ListenerSetINS_12IdleListenerEE5beginEv;2A.;add::(12,212)=#(12,207),(0,6),(12,209),(12,213)=*(12,214)=xsIdleListener:,(0,6);:_ZN6MAUtil11ListenerSetINS_12IdleListenerEE3addEPS1_;2A.;remove::(12,212):_ZN6MAUtil11ListenerSetINS_12IdleListenerEE6removeEPS1_;2A.;contains::(12,215)=#(12,207),(0,4),(12,209),(12,213),(0,6);:_ZN6MAUtil11ListenerSetINS_12IdleListenerEE8containsEPS1_;2A.;setRunning::(12,216)=#(12,207),(0,6),(12,209),(0,4),(0,6);:_ZN6MAUtil11ListenerSetINS_12IdleListenerEE10setRunningEb;2A.;size::(12,217)=#(12,207),(0,3),(12,218)=*(12,219)=k(12,207),(0,6);:_ZNK6MAUtil11ListenerSetINS_12IdleListenerEE4sizeEv;2B.;operator=::(12,220)=#(12,207),(12,221)=&(12,207),(12,209),(12,222)=&(12,219),(0,6);:_ZN6MAUtil11ListenerSetINS_12IdleListenerEEaSERKS2_;2A.;__base_ctor::(12,223)=#(12,207),(0,6),(12,209),(12,222),(0,6);:_ZN6MAUtil11ListenerSetINS_12IdleListenerEEC2ERKS2_;2A.;__comp_ctor::(12,223):_ZN6MAUtil11ListenerSetINS_12IdleListenerEEC1ERKS2_;2A.;__base_dtor::(12,224)=#(12,207),(0,6),(12,209),(0,6);:_ZN6MAUtil11ListenerSetINS_12IdleListenerEED2Ev;2A.;__comp_dtor::(12,224):_ZN6MAUtil11ListenerSetINS_12IdleListenerEED1Ev;2A.;;",128,0,46,0
	.stabs	"Vector<MAUtil::ListenerSet<MAUtil::Environment::TimerEventInstance>::Combo>:Tt(12,225)=s12mSize:/1(0,3),0,32;mCapacity:/1(0,3),32,32;mData:/1(12,226)=*(12,227)=xsCombo:,64,32;__base_ctor::(12,228)=#(12,225),(0,6),(12,229)=*(12,225),(0,3),(0,6);:_ZN6MAUtil6VectorINS_11ListenerSetINS_11Environment18TimerEventInstanceEE5ComboEEC2Ei;2A.;__comp_ctor::(12,228):_ZN6MAUtil6VectorINS_11ListenerSetINS_11Environment18TimerEventInstanceEE5ComboEEC1Ei;2A.;__base_ctor::(12,230)=#(12,225),(0,6),(12,229),(12,231)=*(12,232)=k(12,227),(0,3),(0,6);:_ZN6MAUtil6VectorINS_11ListenerSetINS_11Environment18TimerEventInstanceEE5ComboEEC2EPKS5_i;2A.;__comp_ctor::(12,230):_ZN6MAUtil6VectorINS_11ListenerSetINS_11Environment18TimerEventInstanceEE5ComboEEC1EPKS5_i;2A.;__base_ctor::(12,233)=#(12,225),(0,6),(12,229),(12,234)=&(12,235)=k(12,225),(0,6);:_ZN6MAUtil6VectorINS_11ListenerSetINS_11Environment18TimerEventInstanceEE5ComboEEC2ERKS6_;2A.;__comp_ctor::(12,233):_ZN6MAUtil6VectorINS_11ListenerSetINS_11Environment18TimerEventInstanceEE5ComboEEC1ERKS6_;2A.;__base_dtor::(12,236)=#(12,225),(0,6),(12,229),(0,6);:_ZN6MAUtil6VectorINS_11ListenerSetINS_11Environment18TimerEventInstanceEE5ComboEED2Ev;2A.;__comp_dtor::(12,236):_ZN6MAUtil6VectorINS_11ListenerSetINS_11Environment18TimerEventInstanceEE5ComboEED1Ev;2A.;operator=::(12,237)=#(12,225),(12,238)=&(12,225),(12,229),(12,234),(0,6);:_ZN6MAUtil6VectorINS_11ListenerSetINS_11Environment18TimerEventInstanceEE5ComboEEaSERKS6_;2A.;add::(12,239)=#(12,225),(0,6),(12,229),(12,240)=&(12,232),(0,6);:_ZN6MAUtil6VectorINS_11ListenerSetINS_11Environment18TimerEventInstanceEE5ComboEE3addERKS5_;2A.(12,230):_ZN6MAUtil6VectorINS_11ListenerSetINS_11Environment18TimerEventInstanceEE5ComboEE3addEPKS5_i;2A.;remove::(12,241)=#(12,225),(0,6),(12,229),(12,226),(0,6);:_ZN6MAUtil6VectorINS_11ListenerSetINS_11Environment18TimerEventInstanceEE5ComboEE6removeEPS5_;2A.(12,242)=#(12,225),(0,6),(12,229),(0,3),(0,6);:_ZN6MAUtil6VectorINS_11ListenerSetINS_11Environment18TimerEventInstanceEE5ComboEE6removeEi;2A.(12,243)=#(12,225),(0,6),(12,229),(0,3),(0,3),(0,6);:_ZN6MAUtil6VectorINS_11ListenerSetINS_11Environment18TimerEventInstanceEE5ComboEE6removeEii;2A.;insert::(12,244)=#(12,225),(0,6),(12,229),(0,3),(12,227),(0,6);:_ZN6MAUtil6VectorINS_11ListenerSetINS_11Environment18TimerEventInstanceEE5ComboEE6insertEiS5_;2A.;size::(12,245)=#(12,225),(0,3),(12,246)=*(12,235),(0,6);:_ZNK6MAUtil6VectorINS_11ListenerSetINS_11Environment18TimerEventInstanceEE5ComboEE4sizeEv;2B.;resize::(12,242):_ZN6MAUtil6VectorINS_11ListenerSetINS_11Environment18TimerEventInstanceEE5ComboEE6resizeEi;2A.;reserve::(12,242):_ZN6MAUtil6VectorINS_11ListenerSetINS_11Environment18TimerEventInstanceEE5ComboEE7reserveEi;2A.;clear::(12,236):_ZN6MAUtil6VectorINS_11ListenerSetINS_11Environment18TimerEventInstanceEE5ComboEE5clearEv;2A.;empty::(12,247)=#(12,225),(0,4),(12,246),(0,6);:_ZNK6MAUtil6VectorINS_11ListenerSetINS_11Environment18TimerEventInstanceEE5ComboEE5emptyEv;2B.;capacity::(12,245):_ZNK6MAUtil6VectorINS_11ListenerSetINS_11Environment18TimerEventInstanceEE5ComboEE8capacityEv;2B.;begin::(12,248)=#(12,225),(12,226),(12,229),(0,6);:_ZN6MAUtil6VectorINS_11ListenerSetINS_11Environment18TimerEventInstanceEE5ComboEE5beginEv;2A.;end::(12,248):_ZN6MAUtil6VectorINS_11ListenerSetINS_11Environment18TimerEventInstanceEE5ComboEE3endEv;2A.;begin::(12,249)=#(12,225),(12,231),(12,246),(0,6);:_ZNK6MAUtil6VectorINS_11ListenerSetINS_11Environment18TimerEventInstanceEE5ComboEE5beginEv;2B.;end::(12,249):_ZNK6MAUtil6VectorINS_11ListenerSetINS_11Environment18TimerEventInstanceEE5ComboEE3endEv;2B.;operator[]::(12,250)=#(12,225),(12,251)=&(12,227),(12,229),(0,3),(0,6);:_ZN6MAUtil6VectorINS_11ListenerSetINS_11Environment18TimerEventInstanceEE5ComboEEixEi;2A.(12,252)=#(12,225),(12,240),(12,246),(0,3),(0,6);:_ZNK6MAUtil6VectorINS_11ListenerSetINS_11Environment18TimerEventInstanceEE5ComboEEixEi;2B.;pointer::(12,249):_ZNK6MAUtil6VectorINS_11ListenerSetINS_11Environment18TimerEventInstanceEE5ComboEE7pointerEv;2B.(12,248):_ZN6MAUtil6VectorINS_11ListenerSetINS_11Environment18TimerEventInstanceEE5ComboEE7pointerEv;2A.;;",128,0,95,0
	.stabs	"ListenerSet<MAUtil::Environment::TimerEventInstance>:Tt(12,253)=s16mRunning:/0(0,4),0,8;mUpdateRequired:/0(0,4),8,8;mShouldDelete:/0(0,4),16,8;mVec:/0(12,225),32,96;__base_ctor::(12,254)=#(12,253),(0,6),(12,255)=*(12,253),(0,4),(0,6);:_ZN6MAUtil11ListenerSetINS_11Environment18TimerEventInstanceEEC2Eb;2A.;__comp_ctor::(12,254):_ZN6MAUtil11ListenerSetINS_11Environment18TimerEventInstanceEEC1Eb;2A.;begin::(12,256)=#(12,253),(12,257)=xsiterator:,(12,255),(0,6);:_ZN6MAUtil11ListenerSetINS_11Environment18TimerEventInstanceEE5beginEv;2A.;add::(12,258)=#(12,253),(0,6),(12,255),(12,6),(0,6);:_ZN6MAUtil11ListenerSetINS_11Environment18TimerEventInstanceEE3addEPS2_;2A.;remove::(12,258):_ZN6MAUtil11ListenerSetINS_11Environment18TimerEventInstanceEE6removeEPS2_;2A.;contains::(12,259)=#(12,253),(0,4),(12,255),(12,6),(0,6);:_ZN6MAUtil11ListenerSetINS_11Environment18TimerEventInstanceEE8containsEPS2_;2A.;setRunning::(12,260)=#(12,253),(0,6),(12,255),(0,4),(0,6);:_ZN6MAUtil11ListenerSetINS_11Environment18TimerEventInstanceEE10setRunningEb;2A.;size::(12,261)=#(12,253),(0,3),(12,262)=*(12,263)=k(12,253),(0,6);:_ZNK6MAUtil11ListenerSetINS_11Environment18TimerEventInstanceEE4sizeEv;2B.;operator=::(12,264)=#(12,253),(12,265)=&(12,253),(12,255),(12,266)=&(12,263),(0,6);:_ZN6MAUtil11ListenerSetINS_11Environment18TimerEventInstanceEEaSERKS3_;2A.;__base_ctor::(12,267)=#(12,253),(0,6),(12,255),(12,266),(0,6);:_ZN6MAUtil11ListenerSetINS_11Environment18TimerEventInstanceEEC2ERKS3_;2A.;__comp_ctor::(12,267):_ZN6MAUtil11ListenerSetINS_11Environment18TimerEventInstanceEEC1ERKS3_;2A.;__base_dtor::(12,268)=#(12,253),(0,6),(12,255),(0,6);:_ZN6MAUtil11ListenerSetINS_11Environment18TimerEventInstanceEED2Ev;2A.;__comp_dtor::(12,268):_ZN6MAUtil11ListenerSetINS_11Environment18TimerEventInstanceEED1Ev;2A.;;",128,0,46,0
	.stabs	"Vector<MAUtil::ListenerSet<MAUtil::FocusListener>::Combo>:Tt(12,269)=s12mSize:/1(0,3),0,32;mCapacity:/1(0,3),32,32;mData:/1(12,270)=*(12,271)=xsCombo:,64,32;__base_ctor::(12,272)=#(12,269),(0,6),(12,273)=*(12,269),(0,3),(0,6);:_ZN6MAUtil6VectorINS_11ListenerSetINS_13FocusListenerEE5ComboEEC2Ei;2A.;__comp_ctor::(12,272):_ZN6MAUtil6VectorINS_11ListenerSetINS_13FocusListenerEE5ComboEEC1Ei;2A.;__base_ctor::(12,274)=#(12,269),(0,6),(12,273),(12,275)=*(12,276)=k(12,271),(0,3),(0,6);:_ZN6MAUtil6VectorINS_11ListenerSetINS_13FocusListenerEE5ComboEEC2EPKS4_i;2A.;__comp_ctor::(12,274):_ZN6MAUtil6VectorINS_11ListenerSetINS_13FocusListenerEE5ComboEEC1EPKS4_i;2A.;__base_ctor::(12,277)=#(12,269),(0,6),(12,273),(12,278)=&(12,279)=k(12,269),(0,6);:_ZN6MAUtil6VectorINS_11ListenerSetINS_13FocusListenerEE5ComboEEC2ERKS5_;2A.;__comp_ctor::(12,277):_ZN6MAUtil6VectorINS_11ListenerSetINS_13FocusListenerEE5ComboEEC1ERKS5_;2A.;__base_dtor::(12,280)=#(12,269),(0,6),(12,273),(0,6);:_ZN6MAUtil6VectorINS_11ListenerSetINS_13FocusListenerEE5ComboEED2Ev;2A.;__comp_dtor::(12,280):_ZN6MAUtil6VectorINS_11ListenerSetINS_13FocusListenerEE5ComboEED1Ev;2A.;operator=::(12,281)=#(12,269),(12,282)=&(12,269),(12,273),(12,278),(0,6);:_ZN6MAUtil6VectorINS_11ListenerSetINS_13FocusListenerEE5ComboEEaSERKS5_;2A.;add::(12,283)=#(12,269),(0,6),(12,273),(12,284)=&(12,276),(0,6);:_ZN6MAUtil6VectorINS_11ListenerSetINS_13FocusListenerEE5ComboEE3addERKS4_;2A.(12,274):_ZN6MAUtil6VectorINS_11ListenerSetINS_13FocusListenerEE5ComboEE3addEPKS4_i;2A.;remove::(12,285)=#(12,269),(0,6),(12,273),(12,270),(0,6);:_ZN6MAUtil6VectorINS_11ListenerSetINS_13FocusListenerEE5ComboEE6removeEPS4_;2A.(12,286)=#(12,269),(0,6),(12,273),(0,3),(0,6);:_ZN6MAUtil6VectorINS_11ListenerSetINS_13FocusListenerEE5ComboEE6removeEi;2A.(12,287)=#(12,269),(0,6),(12,273),(0,3),(0,3),(0,6);:_ZN6MAUtil6VectorINS_11ListenerSetINS_13FocusListenerEE5ComboEE6removeEii;2A.;insert::(12,288)=#(12,269),(0,6),(12,273),(0,3),(12,271),(0,6);:_ZN6MAUtil6VectorINS_11ListenerSetINS_13FocusListenerEE5ComboEE6insertEiS4_;2A.;size::(12,289)=#(12,269),(0,3),(12,290)=*(12,279),(0,6);:_ZNK6MAUtil6VectorINS_11ListenerSetINS_13FocusListenerEE5ComboEE4sizeEv;2B.;resize::(12,286):_ZN6MAUtil6VectorINS_11ListenerSetINS_13FocusListenerEE5ComboEE6resizeEi;2A.;reserve::(12,286):_ZN6MAUtil6VectorINS_11ListenerSetINS_13FocusListenerEE5ComboEE7reserveEi;2A.;clear::(12,280):_ZN6MAUtil6VectorINS_11ListenerSetINS_13FocusListenerEE5ComboEE5clearEv;2A.;empty::(12,291)=#(12,269),(0,4),(12,290),(0,6);:_ZNK6MAUtil6VectorINS_11ListenerSetINS_13FocusListenerEE5ComboEE5emptyEv;2B.;capacity::(12,289):_ZNK6MAUtil6VectorINS_11ListenerSetINS_13FocusListenerEE5ComboEE8capacityEv;2B.;begin::(12,292)=#(12,269),(12,270),(12,273),(0,6);:_ZN6MAUtil6VectorINS_11ListenerSetINS_13FocusListenerEE5ComboEE5beginEv;2A.;end::(12,292):_ZN6MAUtil6VectorINS_11ListenerSetINS_13FocusListenerEE5ComboEE3endEv;2A.;begin::(12,293)=#(12,269),(12,275),(12,290),(0,6);:_ZNK6MAUtil6VectorINS_11ListenerSetINS_13FocusListenerEE5ComboEE5beginEv;2B.;end::(12,293):_ZNK6MAUtil6VectorINS_11ListenerSetINS_13FocusListenerEE5ComboEE3endEv;2B.;operator[]::(12,294)=#(12,269),(12,295)=&(12,271),(12,273),(0,3),(0,6);:_ZN6MAUtil6VectorINS_11ListenerSetINS_13FocusListenerEE5ComboEEixEi;2A.(12,296)=#(12,269),(12,284),(12,290),(0,3),(0,6);:_ZNK6MAUtil6VectorINS_11ListenerSetINS_13FocusListenerEE5ComboEEixEi;2B.;pointer::(12,293):_ZNK6MAUtil6VectorINS_11ListenerSetINS_13FocusListenerEE5ComboEE7pointerEv;2B.(12,292):_ZN6MAUtil6VectorINS_11ListenerSetINS_13FocusListenerEE5ComboEE7pointerEv;2A.;;",128,0,95,0
	.stabs	"ListenerSet<MAUtil::FocusListener>:Tt(12,297)=s16mRunning:/0(0,4),0,8;mUpdateRequired:/0(0,4),8,8;mShouldDelete:/0(0,4),16,8;mVec:/0(12,269),32,96;__base_ctor::(12,298)=#(12,297),(0,6),(12,299)=*(12,297),(0,4),(0,6);:_ZN6MAUtil11ListenerSetINS_13FocusListenerEEC2Eb;2A.;__comp_ctor::(12,298):_ZN6MAUtil11ListenerSetINS_13FocusListenerEEC1Eb;2A.;begin::(12,300)=#(12,297),(12,301)=xsiterator:,(12,299),(0,6);:_ZN6MAUtil11ListenerSetINS_13FocusListenerEE5beginEv;2A.;add::(12,302)=#(12,297),(0,6),(12,299),(12,303)=*(12,304)=xsFocusListener:,(0,6);:_ZN6MAUtil11ListenerSetINS_13FocusListenerEE3addEPS1_;2A.;remove::(12,302):_ZN6MAUtil11ListenerSetINS_13FocusListenerEE6removeEPS1_;2A.;contains::(12,305)=#(12,297),(0,4),(12,299),(12,303),(0,6);:_ZN6MAUtil11ListenerSetINS_13FocusListenerEE8containsEPS1_;2A.;setRunning::(12,306)=#(12,297),(0,6),(12,299),(0,4),(0,6);:_ZN6MAUtil11ListenerSetINS_13FocusListenerEE10setRunningEb;2A.;size::(12,307)=#(12,297),(0,3),(12,308)=*(12,309)=k(12,297),(0,6);:_ZNK6MAUtil11ListenerSetINS_13FocusListenerEE4sizeEv;2B.;operator=::(12,310)=#(12,297),(12,311)=&(12,297),(12,299),(12,312)=&(12,309),(0,6);:_ZN6MAUtil11ListenerSetINS_13FocusListenerEEaSERKS2_;2A.;__base_ctor::(12,313)=#(12,297),(0,6),(12,299),(12,312),(0,6);:_ZN6MAUtil11ListenerSetINS_13FocusListenerEEC2ERKS2_;2A.;__comp_ctor::(12,313):_ZN6MAUtil11ListenerSetINS_13FocusListenerEEC1ERKS2_;2A.;__base_dtor::(12,314)=#(12,297),(0,6),(12,299),(0,6);:_ZN6MAUtil11ListenerSetINS_13FocusListenerEED2Ev;2A.;__comp_dtor::(12,314):_ZN6MAUtil11ListenerSetINS_13FocusListenerEED1Ev;2A.;;",128,0,46,0
	.stabs	"Vector<MAUtil::ListenerSet<MAUtil::CustomEventListener>::Combo>:Tt(12,315)=s12mSize:/1(0,3),0,32;mCapacity:/1(0,3),32,32;mData:/1(12,316)=*(12,317)=xsCombo:,64,32;__base_ctor::(12,318)=#(12,315),(0,6),(12,319)=*(12,315),(0,3),(0,6);:_ZN6MAUtil6VectorINS_11ListenerSetINS_19CustomEventListenerEE5ComboEEC2Ei;2A.;__comp_ctor::(12,318):_ZN6MAUtil6VectorINS_11ListenerSetINS_19CustomEventListenerEE5ComboEEC1Ei;2A.;__base_ctor::(12,320)=#(12,315),(0,6),(12,319),(12,321)=*(12,322)=k(12,317),(0,3),(0,6);:_ZN6MAUtil6VectorINS_11ListenerSetINS_19CustomEventListenerEE5ComboEEC2EPKS4_i;2A.;__comp_ctor::(12,320):_ZN6MAUtil6VectorINS_11ListenerSetINS_19CustomEventListenerEE5ComboEEC1EPKS4_i;2A.;__base_ctor::(12,323)=#(12,315),(0,6),(12,319),(12,324)=&(12,325)=k(12,315),(0,6);:_ZN6MAUtil6VectorINS_11ListenerSetINS_19CustomEventListenerEE5ComboEEC2ERKS5_;2A.;__comp_ctor::(12,323):_ZN6MAUtil6VectorINS_11ListenerSetINS_19CustomEventListenerEE5ComboEEC1ERKS5_;2A.;__base_dtor::(12,326)=#(12,315),(0,6),(12,319),(0,6);:_ZN6MAUtil6VectorINS_11ListenerSetINS_19CustomEventListenerEE5ComboEED2Ev;2A.;__comp_dtor::(12,326):_ZN6MAUtil6VectorINS_11ListenerSetINS_19CustomEventListenerEE5ComboEED1Ev;2A.;operator=::(12,327)=#(12,315),(12,328)=&(12,315),(12,319),(12,324),(0,6);:_ZN6MAUtil6VectorINS_11ListenerSetINS_19CustomEventListenerEE5ComboEEaSERKS5_;2A.;add::(12,329)=#(12,315),(0,6),(12,319),(12,330)=&(12,322),(0,6);:_ZN6MAUtil6VectorINS_11ListenerSetINS_19CustomEventListenerEE5ComboEE3addERKS4_;2A.(12,320):_ZN6MAUtil6VectorINS_11ListenerSetINS_19CustomEventListenerEE5ComboEE3addEPKS4_i;2A.;remove::(12,331)=#(12,315),(0,6),(12,319),(12,316),(0,6);:_ZN6MAUtil6VectorINS_11ListenerSetINS_19CustomEventListenerEE5ComboEE6removeEPS4_;2A.(12,332)=#(12,315),(0,6),(12,319),(0,3),(0,6);:_ZN6MAUtil6VectorINS_11ListenerSetINS_19CustomEventListenerEE5ComboEE6removeEi;2A.(12,333)=#(12,315),(0,6),(12,319),(0,3),(0,3),(0,6);:_ZN6MAUtil6VectorINS_11ListenerSetINS_19CustomEventListenerEE5ComboEE6removeEii;2A.;insert::(12,334)=#(12,315),(0,6),(12,319),(0,3),(12,317),(0,6);:_ZN6MAUtil6VectorINS_11ListenerSetINS_19CustomEventListenerEE5ComboEE6insertEiS4_;2A.;size::(12,335)=#(12,315),(0,3),(12,336)=*(12,325),(0,6);:_ZNK6MAUtil6VectorINS_11ListenerSetINS_19CustomEventListenerEE5ComboEE4sizeEv;2B.;resize::(12,332):_ZN6MAUtil6VectorINS_11ListenerSetINS_19CustomEventListenerEE5ComboEE6resizeEi;2A.;reserve::(12,332):_ZN6MAUtil6VectorINS_11ListenerSetINS_19CustomEventListenerEE5ComboEE7reserveEi;2A.;clear::(12,326):_ZN6MAUtil6VectorINS_11ListenerSetINS_19CustomEventListenerEE5ComboEE5clearEv;2A.;empty::(12,337)=#(12,315),(0,4),(12,336),(0,6);:_ZNK6MAUtil6VectorINS_11ListenerSetINS_19CustomEventListenerEE5ComboEE5emptyEv;2B.;capacity::(12,335):_ZNK6MAUtil6VectorINS_11ListenerSetINS_19CustomEventListenerEE5ComboEE8capacityEv;2B.;begin::(12,338)=#(12,315),(12,316),(12,319),(0,6);:_ZN6MAUtil6VectorINS_11ListenerSetINS_19CustomEventListenerEE5ComboEE5beginEv;2A.;end::(12,338):_ZN6MAUtil6VectorINS_11ListenerSetINS_19CustomEventListenerEE5ComboEE3endEv;2A.;begin::(12,339)=#(12,315),(12,321),(12,336),(0,6);:_ZNK6MAUtil6VectorINS_11ListenerSetINS_19CustomEventListenerEE5ComboEE5beginEv;2B.;end::(12,339):_ZNK6MAUtil6VectorINS_11ListenerSetINS_19CustomEventListenerEE5ComboEE3endEv;2B.;operator[]::(12,340)=#(12,315),(12,341)=&(12,317),(12,319),(0,3),(0,6);:_ZN6MAUtil6VectorINS_11ListenerSetINS_19CustomEventListenerEE5ComboEEixEi;2A.(12,342)=#(12,315),(12,330),(12,336),(0,3),(0,6);:_ZNK6MAUtil6VectorINS_11ListenerSetINS_19CustomEventListenerEE5ComboEEixEi;2B.;pointer::(12,339):_ZNK6MAUtil6VectorINS_11ListenerSetINS_19CustomEventListenerEE5ComboEE7pointerEv;2B.(12,338):_ZN6MAUtil6VectorINS_11ListenerSetINS_19CustomEventListenerEE5ComboEE7pointerEv;2A.;;",128,0,95,0
	.stabs	"ListenerSet<MAUtil::CustomEventListener>:Tt(12,343)=s16mRunning:/0(0,4),0,8;mUpdateRequired:/0(0,4),8,8;mShouldDelete:/0(0,4),16,8;mVec:/0(12,315),32,96;__base_ctor::(12,344)=#(12,343),(0,6),(12,345)=*(12,343),(0,4),(0,6);:_ZN6MAUtil11ListenerSetINS_19CustomEventListenerEEC2Eb;2A.;__comp_ctor::(12,344):_ZN6MAUtil11ListenerSetINS_19CustomEventListenerEEC1Eb;2A.;begin::(12,346)=#(12,343),(12,347)=xsiterator:,(12,345),(0,6);:_ZN6MAUtil11ListenerSetINS_19CustomEventListenerEE5beginEv;2A.;add::(12,348)=#(12,343),(0,6),(12,345),(12,349)=*(12,350)=xsCustomEventListener:,(0,6);:_ZN6MAUtil11ListenerSetINS_19CustomEventListenerEE3addEPS1_;2A.;remove::(12,348):_ZN6MAUtil11ListenerSetINS_19CustomEventListenerEE6removeEPS1_;2A.;contains::(12,351)=#(12,343),(0,4),(12,345),(12,349),(0,6);:_ZN6MAUtil11ListenerSetINS_19CustomEventListenerEE8containsEPS1_;2A.;setRunning::(12,352)=#(12,343),(0,6),(12,345),(0,4),(0,6);:_ZN6MAUtil11ListenerSetINS_19CustomEventListenerEE10setRunningEb;2A.;size::(12,353)=#(12,343),(0,3),(12,354)=*(12,355)=k(12,343),(0,6);:_ZNK6MAUtil11ListenerSetINS_19CustomEventListenerEE4sizeEv;2B.;operator=::(12,356)=#(12,343),(12,357)=&(12,343),(12,345),(12,358)=&(12,355),(0,6);:_ZN6MAUtil11ListenerSetINS_19CustomEventListenerEEaSERKS2_;2A.;__base_ctor::(12,359)=#(12,343),(0,6),(12,345),(12,358),(0,6);:_ZN6MAUtil11ListenerSetINS_19CustomEventListenerEEC2ERKS2_;2A.;__comp_ctor::(12,359):_ZN6MAUtil11ListenerSetINS_19CustomEventListenerEEC1ERKS2_;2A.;__base_dtor::(12,360)=#(12,343),(0,6),(12,345),(0,6);:_ZN6MAUtil11ListenerSetINS_19CustomEventListenerEED2Ev;2A.;__comp_dtor::(12,360):_ZN6MAUtil11ListenerSetINS_19CustomEventListenerEED1Ev;2A.;;",128,0,46,0
	.stabs	"Vector<MAUtil::ListenerSet<MAUtil::TextBoxListener>::Combo>:Tt(12,361)=s12mSize:/1(0,3),0,32;mCapacity:/1(0,3),32,32;mData:/1(12,362)=*(12,363)=xsCombo:,64,32;__base_ctor::(12,364)=#(12,361),(0,6),(12,365)=*(12,361),(0,3),(0,6);:_ZN6MAUtil6VectorINS_11ListenerSetINS_15TextBoxListenerEE5ComboEEC2Ei;2A.;__comp_ctor::(12,364):_ZN6MAUtil6VectorINS_11ListenerSetINS_15TextBoxListenerEE5ComboEEC1Ei;2A.;__base_ctor::(12,366)=#(12,361),(0,6),(12,365),(12,367)=*(12,368)=k(12,363),(0,3),(0,6);:_ZN6MAUtil6VectorINS_11ListenerSetINS_15TextBoxListenerEE5ComboEEC2EPKS4_i;2A.;__comp_ctor::(12,366):_ZN6MAUtil6VectorINS_11ListenerSetINS_15TextBoxListenerEE5ComboEEC1EPKS4_i;2A.;__base_ctor::(12,369)=#(12,361),(0,6),(12,365),(12,370)=&(12,371)=k(12,361),(0,6);:_ZN6MAUtil6VectorINS_11ListenerSetINS_15TextBoxListenerEE5ComboEEC2ERKS5_;2A.;__comp_ctor::(12,369):_ZN6MAUtil6VectorINS_11ListenerSetINS_15TextBoxListenerEE5ComboEEC1ERKS5_;2A.;__base_dtor::(12,372)=#(12,361),(0,6),(12,365),(0,6);:_ZN6MAUtil6VectorINS_11ListenerSetINS_15TextBoxListenerEE5ComboEED2Ev;2A.;__comp_dtor::(12,372):_ZN6MAUtil6VectorINS_11ListenerSetINS_15TextBoxListenerEE5ComboEED1Ev;2A.;operator=::(12,373)=#(12,361),(12,374)=&(12,361),(12,365),(12,370),(0,6);:_ZN6MAUtil6VectorINS_11ListenerSetINS_15TextBoxListenerEE5ComboEEaSERKS5_;2A.;add::(12,375)=#(12,361),(0,6),(12,365),(12,376)=&(12,368),(0,6);:_ZN6MAUtil6VectorINS_11ListenerSetINS_15TextBoxListenerEE5ComboEE3addERKS4_;2A.(12,366):_ZN6MAUtil6VectorINS_11ListenerSetINS_15TextBoxListenerEE5ComboEE3addEPKS4_i;2A.;remove::(12,377)=#(12,361),(0,6),(12,365),(12,362),(0,6);:_ZN6MAUtil6VectorINS_11ListenerSetINS_15TextBoxListenerEE5ComboEE6removeEPS4_;2A.(12,378)=#(12,361),(0,6),(12,365),(0,3),(0,6);:_ZN6MAUtil6VectorINS_11ListenerSetINS_15TextBoxListenerEE5ComboEE6removeEi;2A.(12,379)=#(12,361),(0,6),(12,365),(0,3),(0,3),(0,6);:_ZN6MAUtil6VectorINS_11ListenerSetINS_15TextBoxListenerEE5ComboEE6removeEii;2A.;insert::(12,380)=#(12,361),(0,6),(12,365),(0,3),(12,363),(0,6);:_ZN6MAUtil6VectorINS_11ListenerSetINS_15TextBoxListenerEE5ComboEE6insertEiS4_;2A.;size::(12,381)=#(12,361),(0,3),(12,382)=*(12,371),(0,6);:_ZNK6MAUtil6VectorINS_11ListenerSetINS_15TextBoxListenerEE5ComboEE4sizeEv;2B.;resize::(12,378):_ZN6MAUtil6VectorINS_11ListenerSetINS_15TextBoxListenerEE5ComboEE6resizeEi;2A.;reserve::(12,378):_ZN6MAUtil6VectorINS_11ListenerSetINS_15TextBoxListenerEE5ComboEE7reserveEi;2A.;clear::(12,372):_ZN6MAUtil6VectorINS_11ListenerSetINS_15TextBoxListenerEE5ComboEE5clearEv;2A.;empty::(12,383)=#(12,361),(0,4),(12,382),(0,6);:_ZNK6MAUtil6VectorINS_11ListenerSetINS_15TextBoxListenerEE5ComboEE5emptyEv;2B.;capacity::(12,381):_ZNK6MAUtil6VectorINS_11ListenerSetINS_15TextBoxListenerEE5ComboEE8capacityEv;2B.;begin::(12,384)=#(12,361),(12,362),(12,365),(0,6);:_ZN6MAUtil6VectorINS_11ListenerSetINS_15TextBoxListenerEE5ComboEE5beginEv;2A.;end::(12,384):_ZN6MAUtil6VectorINS_11ListenerSetINS_15TextBoxListenerEE5ComboEE3endEv;2A.;begin::(12,385)=#(12,361),(12,367),(12,382),(0,6);:_ZNK6MAUtil6VectorINS_11ListenerSetINS_15TextBoxListenerEE5ComboEE5beginEv;2B.;end::(12,385):_ZNK6MAUtil6VectorINS_11ListenerSetINS_15TextBoxListenerEE5ComboEE3endEv;2B.;operator[]::(12,386)=#(12,361),(12,387)=&(12,363),(12,365),(0,3),(0,6);:_ZN6MAUtil6VectorINS_11ListenerSetINS_15TextBoxListenerEE5ComboEEixEi;2A.(12,388)=#(12,361),(12,376),(12,382),(0,3),(0,6);:_ZNK6MAUtil6VectorINS_11ListenerSetINS_15TextBoxListenerEE5ComboEEixEi;2B.;pointer::(12,385):_ZNK6MAUtil6VectorINS_11ListenerSetINS_15TextBoxListenerEE5ComboEE7pointerEv;2B.(12,384):_ZN6MAUtil6VectorINS_11ListenerSetINS_15TextBoxListenerEE5ComboEE7pointerEv;2A.;;",128,0,95,0
	.stabs	"ListenerSet<MAUtil::TextBoxListener>:Tt(12,389)=s16mRunning:/0(0,4),0,8;mUpdateRequired:/0(0,4),8,8;mShouldDelete:/0(0,4),16,8;mVec:/0(12,361),32,96;__base_ctor::(12,390)=#(12,389),(0,6),(12,391)=*(12,389),(0,4),(0,6);:_ZN6MAUtil11ListenerSetINS_15TextBoxListenerEEC2Eb;2A.;__comp_ctor::(12,390):_ZN6MAUtil11ListenerSetINS_15TextBoxListenerEEC1Eb;2A.;begin::(12,392)=#(12,389),(12,393)=xsiterator:,(12,391),(0,6);:_ZN6MAUtil11ListenerSetINS_15TextBoxListenerEE5beginEv;2A.;add::(12,394)=#(12,389),(0,6),(12,391),(12,395)=*(12,396)=xsTextBoxListener:,(0,6);:_ZN6MAUtil11ListenerSetINS_15TextBoxListenerEE3addEPS1_;2A.;remove::(12,394):_ZN6MAUtil11ListenerSetINS_15TextBoxListenerEE6removeEPS1_;2A.;contains::(12,397)=#(12,389),(0,4),(12,391),(12,395),(0,6);:_ZN6MAUtil11ListenerSetINS_15TextBoxListenerEE8containsEPS1_;2A.;setRunning::(12,398)=#(12,389),(0,6),(12,391),(0,4),(0,6);:_ZN6MAUtil11ListenerSetINS_15TextBoxListenerEE10setRunningEb;2A.;size::(12,399)=#(12,389),(0,3),(12,400)=*(12,401)=k(12,389),(0,6);:_ZNK6MAUtil11ListenerSetINS_15TextBoxListenerEE4sizeEv;2B.;operator=::(12,402)=#(12,389),(12,403)=&(12,389),(12,391),(12,404)=&(12,401),(0,6);:_ZN6MAUtil11ListenerSetINS_15TextBoxListenerEEaSERKS2_;2A.;__base_ctor::(12,405)=#(12,389),(0,6),(12,391),(12,404),(0,6);:_ZN6MAUtil11ListenerSetINS_15TextBoxListenerEEC2ERKS2_;2A.;__comp_ctor::(12,405):_ZN6MAUtil11ListenerSetINS_15TextBoxListenerEEC1ERKS2_;2A.;__base_dtor::(12,406)=#(12,389),(0,6),(12,391),(0,6);:_ZN6MAUtil11ListenerSetINS_15TextBoxListenerEED2Ev;2A.;__comp_dtor::(12,406):_ZN6MAUtil11ListenerSetINS_15TextBoxListenerEED1Ev;2A.;;",128,0,46,0
	.stabs	"Vector<MAUtil::ListenerSet<MAUtil::SensorListener>::Combo>:Tt(12,407)=s12mSize:/1(0,3),0,32;mCapacity:/1(0,3),32,32;mData:/1(12,408)=*(12,409)=xsCombo:,64,32;__base_ctor::(12,410)=#(12,407),(0,6),(12,411)=*(12,407),(0,3),(0,6);:_ZN6MAUtil6VectorINS_11ListenerSetINS_14SensorListenerEE5ComboEEC2Ei;2A.;__comp_ctor::(12,410):_ZN6MAUtil6VectorINS_11ListenerSetINS_14SensorListenerEE5ComboEEC1Ei;2A.;__base_ctor::(12,412)=#(12,407),(0,6),(12,411),(12,413)=*(12,414)=k(12,409),(0,3),(0,6);:_ZN6MAUtil6VectorINS_11ListenerSetINS_14SensorListenerEE5ComboEEC2EPKS4_i;2A.;__comp_ctor::(12,412):_ZN6MAUtil6VectorINS_11ListenerSetINS_14SensorListenerEE5ComboEEC1EPKS4_i;2A.;__base_ctor::(12,415)=#(12,407),(0,6),(12,411),(12,416)=&(12,417)=k(12,407),(0,6);:_ZN6MAUtil6VectorINS_11ListenerSetINS_14SensorListenerEE5ComboEEC2ERKS5_;2A.;__comp_ctor::(12,415):_ZN6MAUtil6VectorINS_11ListenerSetINS_14SensorListenerEE5ComboEEC1ERKS5_;2A.;__base_dtor::(12,418)=#(12,407),(0,6),(12,411),(0,6);:_ZN6MAUtil6VectorINS_11ListenerSetINS_14SensorListenerEE5ComboEED2Ev;2A.;__comp_dtor::(12,418):_ZN6MAUtil6VectorINS_11ListenerSetINS_14SensorListenerEE5ComboEED1Ev;2A.;operator=::(12,419)=#(12,407),(12,420)=&(12,407),(12,411),(12,416),(0,6);:_ZN6MAUtil6VectorINS_11ListenerSetINS_14SensorListenerEE5ComboEEaSERKS5_;2A.;add::(12,421)=#(12,407),(0,6),(12,411),(12,422)=&(12,414),(0,6);:_ZN6MAUtil6VectorINS_11ListenerSetINS_14SensorListenerEE5ComboEE3addERKS4_;2A.(12,412):_ZN6MAUtil6VectorINS_11ListenerSetINS_14SensorListenerEE5ComboEE3addEPKS4_i;2A.;remove::(12,423)=#(12,407),(0,6),(12,411),(12,408),(0,6);:_ZN6MAUtil6VectorINS_11ListenerSetINS_14SensorListenerEE5ComboEE6removeEPS4_;2A.(12,424)=#(12,407),(0,6),(12,411),(0,3),(0,6);:_ZN6MAUtil6VectorINS_11ListenerSetINS_14SensorListenerEE5ComboEE6removeEi;2A.(12,425)=#(12,407),(0,6),(12,411),(0,3),(0,3),(0,6);:_ZN6MAUtil6VectorINS_11ListenerSetINS_14SensorListenerEE5ComboEE6removeEii;2A.;insert::(12,426)=#(12,407),(0,6),(12,411),(0,3),(12,409),(0,6);:_ZN6MAUtil6VectorINS_11ListenerSetINS_14SensorListenerEE5ComboEE6insertEiS4_;2A.;size::(12,427)=#(12,407),(0,3),(12,428)=*(12,417),(0,6);:_ZNK6MAUtil6VectorINS_11ListenerSetINS_14SensorListenerEE5ComboEE4sizeEv;2B.;resize::(12,424):_ZN6MAUtil6VectorINS_11ListenerSetINS_14SensorListenerEE5ComboEE6resizeEi;2A.;reserve::(12,424):_ZN6MAUtil6VectorINS_11ListenerSetINS_14SensorListenerEE5ComboEE7reserveEi;2A.;clear::(12,418):_ZN6MAUtil6VectorINS_11ListenerSetINS_14SensorListenerEE5ComboEE5clearEv;2A.;empty::(12,429)=#(12,407),(0,4),(12,428),(0,6);:_ZNK6MAUtil6VectorINS_11ListenerSetINS_14SensorListenerEE5ComboEE5emptyEv;2B.;capacity::(12,427):_ZNK6MAUtil6VectorINS_11ListenerSetINS_14SensorListenerEE5ComboEE8capacityEv;2B.;begin::(12,430)=#(12,407),(12,408),(12,411),(0,6);:_ZN6MAUtil6VectorINS_11ListenerSetINS_14SensorListenerEE5ComboEE5beginEv;2A.;end::(12,430):_ZN6MAUtil6VectorINS_11ListenerSetINS_14SensorListenerEE5ComboEE3endEv;2A.;begin::(12,431)=#(12,407),(12,413),(12,428),(0,6);:_ZNK6MAUtil6VectorINS_11ListenerSetINS_14SensorListenerEE5ComboEE5beginEv;2B.;end::(12,431):_ZNK6MAUtil6VectorINS_11ListenerSetINS_14SensorListenerEE5ComboEE3endEv;2B.;operator[]::(12,432)=#(12,407),(12,433)=&(12,409),(12,411),(0,3),(0,6);:_ZN6MAUtil6VectorINS_11ListenerSetINS_14SensorListenerEE5ComboEEixEi;2A.(12,434)=#(12,407),(12,422),(12,428),(0,3),(0,6);:_ZNK6MAUtil6VectorINS_11ListenerSetINS_14SensorListenerEE5ComboEEixEi;2B.;pointer::(12,431):_ZNK6MAUtil6VectorINS_11ListenerSetINS_14SensorListenerEE5ComboEE7pointerEv;2B.(12,430):_ZN6MAUtil6VectorINS_11ListenerSetINS_14SensorListenerEE5ComboEE7pointerEv;2A.;;",128,0,95,0
	.stabs	"ListenerSet<MAUtil::SensorListener>:Tt(12,435)=s16mRunning:/0(0,4),0,8;mUpdateRequired:/0(0,4),8,8;mShouldDelete:/0(0,4),16,8;mVec:/0(12,407),32,96;__base_ctor::(12,436)=#(12,435),(0,6),(12,437)=*(12,435),(0,4),(0,6);:_ZN6MAUtil11ListenerSetINS_14SensorListenerEEC2Eb;2A.;__comp_ctor::(12,436):_ZN6MAUtil11ListenerSetINS_14SensorListenerEEC1Eb;2A.;begin::(12,438)=#(12,435),(12,439)=xsiterator:,(12,437),(0,6);:_ZN6MAUtil11ListenerSetINS_14SensorListenerEE5beginEv;2A.;add::(12,440)=#(12,435),(0,6),(12,437),(12,441)=*(12,442)=xsSensorListener:,(0,6);:_ZN6MAUtil11ListenerSetINS_14SensorListenerEE3addEPS1_;2A.;remove::(12,440):_ZN6MAUtil11ListenerSetINS_14SensorListenerEE6removeEPS1_;2A.;contains::(12,443)=#(12,435),(0,4),(12,437),(12,441),(0,6);:_ZN6MAUtil11ListenerSetINS_14SensorListenerEE8containsEPS1_;2A.;setRunning::(12,444)=#(12,435),(0,6),(12,437),(0,4),(0,6);:_ZN6MAUtil11ListenerSetINS_14SensorListenerEE10setRunningEb;2A.;size::(12,445)=#(12,435),(0,3),(12,446)=*(12,447)=k(12,435),(0,6);:_ZNK6MAUtil11ListenerSetINS_14SensorListenerEE4sizeEv;2B.;operator=::(12,448)=#(12,435),(12,449)=&(12,435),(12,437),(12,450)=&(12,447),(0,6);:_ZN6MAUtil11ListenerSetINS_14SensorListenerEEaSERKS2_;2A.;__base_ctor::(12,451)=#(12,435),(0,6),(12,437),(12,450),(0,6);:_ZN6MAUtil11ListenerSetINS_14SensorListenerEEC2ERKS2_;2A.;__comp_ctor::(12,451):_ZN6MAUtil11ListenerSetINS_14SensorListenerEEC1ERKS2_;2A.;__base_dtor::(12,452)=#(12,435),(0,6),(12,437),(0,6);:_ZN6MAUtil11ListenerSetINS_14SensorListenerEED2Ev;2A.;__comp_dtor::(12,452):_ZN6MAUtil11ListenerSetINS_14SensorListenerEED1Ev;2A.;;",128,0,46,0
	.stabs	"Vector<MAUtil::ListenerSet<MAUtil::OrientationListener>::Combo>:Tt(12,453)=s12mSize:/1(0,3),0,32;mCapacity:/1(0,3),32,32;mData:/1(12,454)=*(12,455)=xsCombo:,64,32;__base_ctor::(12,456)=#(12,453),(0,6),(12,457)=*(12,453),(0,3),(0,6);:_ZN6MAUtil6VectorINS_11ListenerSetINS_19OrientationListenerEE5ComboEEC2Ei;2A.;__comp_ctor::(12,456):_ZN6MAUtil6VectorINS_11ListenerSetINS_19OrientationListenerEE5ComboEEC1Ei;2A.;__base_ctor::(12,458)=#(12,453),(0,6),(12,457),(12,459)=*(12,460)=k(12,455),(0,3),(0,6);:_ZN6MAUtil6VectorINS_11ListenerSetINS_19OrientationListenerEE5ComboEEC2EPKS4_i;2A.;__comp_ctor::(12,458):_ZN6MAUtil6VectorINS_11ListenerSetINS_19OrientationListenerEE5ComboEEC1EPKS4_i;2A.;__base_ctor::(12,461)=#(12,453),(0,6),(12,457),(12,462)=&(12,463)=k(12,453),(0,6);:_ZN6MAUtil6VectorINS_11ListenerSetINS_19OrientationListenerEE5ComboEEC2ERKS5_;2A.;__comp_ctor::(12,461):_ZN6MAUtil6VectorINS_11ListenerSetINS_19OrientationListenerEE5ComboEEC1ERKS5_;2A.;__base_dtor::(12,464)=#(12,453),(0,6),(12,457),(0,6);:_ZN6MAUtil6VectorINS_11ListenerSetINS_19OrientationListenerEE5ComboEED2Ev;2A.;__comp_dtor::(12,464):_ZN6MAUtil6VectorINS_11ListenerSetINS_19OrientationListenerEE5ComboEED1Ev;2A.;operator=::(12,465)=#(12,453),(12,466)=&(12,453),(12,457),(12,462),(0,6);:_ZN6MAUtil6VectorINS_11ListenerSetINS_19OrientationListenerEE5ComboEEaSERKS5_;2A.;add::(12,467)=#(12,453),(0,6),(12,457),(12,468)=&(12,460),(0,6);:_ZN6MAUtil6VectorINS_11ListenerSetINS_19OrientationListenerEE5ComboEE3addERKS4_;2A.(12,458):_ZN6MAUtil6VectorINS_11ListenerSetINS_19OrientationListenerEE5ComboEE3addEPKS4_i;2A.;remove::(12,469)=#(12,453),(0,6),(12,457),(12,454),(0,6);:_ZN6MAUtil6VectorINS_11ListenerSetINS_19OrientationListenerEE5ComboEE6removeEPS4_;2A.(12,470)=#(12,453),(0,6),(12,457),(0,3),(0,6);:_ZN6MAUtil6VectorINS_11ListenerSetINS_19OrientationListenerEE5ComboEE6removeEi;2A.(12,471)=#(12,453),(0,6),(12,457),(0,3),(0,3),(0,6);:_ZN6MAUtil6VectorINS_11ListenerSetINS_19OrientationListenerEE5ComboEE6removeEii;2A.;insert::(12,472)=#(12,453),(0,6),(12,457),(0,3),(12,455),(0,6);:_ZN6MAUtil6VectorINS_11ListenerSetINS_19OrientationListenerEE5ComboEE6insertEiS4_;2A.;size::(12,473)=#(12,453),(0,3),(12,474)=*(12,463),(0,6);:_ZNK6MAUtil6VectorINS_11ListenerSetINS_19OrientationListenerEE5ComboEE4sizeEv;2B.;resize::(12,470):_ZN6MAUtil6VectorINS_11ListenerSetINS_19OrientationListenerEE5ComboEE6resizeEi;2A.;reserve::(12,470):_ZN6MAUtil6VectorINS_11ListenerSetINS_19OrientationListenerEE5ComboEE7reserveEi;2A.;clear::(12,464):_ZN6MAUtil6VectorINS_11ListenerSetINS_19OrientationListenerEE5ComboEE5clearEv;2A.;empty::(12,475)=#(12,453),(0,4),(12,474),(0,6);:_ZNK6MAUtil6VectorINS_11ListenerSetINS_19OrientationListenerEE5ComboEE5emptyEv;2B.;capacity::(12,473):_ZNK6MAUtil6VectorINS_11ListenerSetINS_19OrientationListenerEE5ComboEE8capacityEv;2B.;begin::(12,476)=#(12,453),(12,454),(12,457),(0,6);:_ZN6MAUtil6VectorINS_11ListenerSetINS_19OrientationListenerEE5ComboEE5beginEv;2A.;end::(12,476):_ZN6MAUtil6VectorINS_11ListenerSetINS_19OrientationListenerEE5ComboEE3endEv;2A.;begin::(12,477)=#(12,453),(12,459),(12,474),(0,6);:_ZNK6MAUtil6VectorINS_11ListenerSetINS_19OrientationListenerEE5ComboEE5beginEv;2B.;end::(12,477):_ZNK6MAUtil6VectorINS_11ListenerSetINS_19OrientationListenerEE5ComboEE3endEv;2B.;operator[]::(12,478)=#(12,453),(12,479)=&(12,455),(12,457),(0,3),(0,6);:_ZN6MAUtil6VectorINS_11ListenerSetINS_19OrientationListenerEE5ComboEEixEi;2A.(12,480)=#(12,453),(12,468),(12,474),(0,3),(0,6);:_ZNK6MAUtil6VectorINS_11ListenerSetINS_19OrientationListenerEE5ComboEEixEi;2B.;pointer::(12,477):_ZNK6MAUtil6VectorINS_11ListenerSetINS_19OrientationListenerEE5ComboEE7pointerEv;2B.(12,476):_ZN6MAUtil6VectorINS_11ListenerSetINS_19OrientationListenerEE5ComboEE7pointerEv;2A.;;",128,0,95,0
	.stabs	"ListenerSet<MAUtil::OrientationListener>:Tt(12,481)=s16mRunning:/0(0,4),0,8;mUpdateRequired:/0(0,4),8,8;mShouldDelete:/0(0,4),16,8;mVec:/0(12,453),32,96;__base_ctor::(12,482)=#(12,481),(0,6),(12,483)=*(12,481),(0,4),(0,6);:_ZN6MAUtil11ListenerSetINS_19OrientationListenerEEC2Eb;2A.;__comp_ctor::(12,482):_ZN6MAUtil11ListenerSetINS_19OrientationListenerEEC1Eb;2A.;begin::(12,484)=#(12,481),(12,485)=xsiterator:,(12,483),(0,6);:_ZN6MAUtil11ListenerSetINS_19OrientationListenerEE5beginEv;2A.;add::(12,486)=#(12,481),(0,6),(12,483),(12,487)=*(12,488)=xsOrientationListener:,(0,6);:_ZN6MAUtil11ListenerSetINS_19OrientationListenerEE3addEPS1_;2A.;remove::(12,486):_ZN6MAUtil11ListenerSetINS_19OrientationListenerEE6removeEPS1_;2A.;contains::(12,489)=#(12,481),(0,4),(12,483),(12,487),(0,6);:_ZN6MAUtil11ListenerSetINS_19OrientationListenerEE8containsEPS1_;2A.;setRunning::(12,490)=#(12,481),(0,6),(12,483),(0,4),(0,6);:_ZN6MAUtil11ListenerSetINS_19OrientationListenerEE10setRunningEb;2A.;size::(12,491)=#(12,481),(0,3),(12,492)=*(12,493)=k(12,481),(0,6);:_ZNK6MAUtil11ListenerSetINS_19OrientationListenerEE4sizeEv;2B.;operator=::(12,494)=#(12,481),(12,495)=&(12,481),(12,483),(12,496)=&(12,493),(0,6);:_ZN6MAUtil11ListenerSetINS_19OrientationListenerEEaSERKS2_;2A.;__base_ctor::(12,497)=#(12,481),(0,6),(12,483),(12,496),(0,6);:_ZN6MAUtil11ListenerSetINS_19OrientationListenerEEC2ERKS2_;2A.;__comp_ctor::(12,497):_ZN6MAUtil11ListenerSetINS_19OrientationListenerEEC1ERKS2_;2A.;__base_dtor::(12,498)=#(12,481),(0,6),(12,483),(0,6);:_ZN6MAUtil11ListenerSetINS_19OrientationListenerEED2Ev;2A.;__comp_dtor::(12,498):_ZN6MAUtil11ListenerSetINS_19OrientationListenerEED1Ev;2A.;;",128,0,46,0
	.stabs	"Vector<MAUtil::ListenerSet<MAUtil::CameraListener>::Combo>:Tt(12,499)=s12mSize:/1(0,3),0,32;mCapacity:/1(0,3),32,32;mData:/1(12,500)=*(12,501)=xsCombo:,64,32;__base_ctor::(12,502)=#(12,499),(0,6),(12,503)=*(12,499),(0,3),(0,6);:_ZN6MAUtil6VectorINS_11ListenerSetINS_14CameraListenerEE5ComboEEC2Ei;2A.;__comp_ctor::(12,502):_ZN6MAUtil6VectorINS_11ListenerSetINS_14CameraListenerEE5ComboEEC1Ei;2A.;__base_ctor::(12,504)=#(12,499),(0,6),(12,503),(12,505)=*(12,506)=k(12,501),(0,3),(0,6);:_ZN6MAUtil6VectorINS_11ListenerSetINS_14CameraListenerEE5ComboEEC2EPKS4_i;2A.;__comp_ctor::(12,504):_ZN6MAUtil6VectorINS_11ListenerSetINS_14CameraListenerEE5ComboEEC1EPKS4_i;2A.;__base_ctor::(12,507)=#(12,499),(0,6),(12,503),(12,508)=&(12,509)=k(12,499),(0,6);:_ZN6MAUtil6VectorINS_11ListenerSetINS_14CameraListenerEE5ComboEEC2ERKS5_;2A.;__comp_ctor::(12,507):_ZN6MAUtil6VectorINS_11ListenerSetINS_14CameraListenerEE5ComboEEC1ERKS5_;2A.;__base_dtor::(12,510)=#(12,499),(0,6),(12,503),(0,6);:_ZN6MAUtil6VectorINS_11ListenerSetINS_14CameraListenerEE5ComboEED2Ev;2A.;__comp_dtor::(12,510):_ZN6MAUtil6VectorINS_11ListenerSetINS_14CameraListenerEE5ComboEED1Ev;2A.;operator=::(12,511)=#(12,499),(12,512)=&(12,499),(12,503),(12,508),(0,6);:_ZN6MAUtil6VectorINS_11ListenerSetINS_14CameraListenerEE5ComboEEaSERKS5_;2A.;add::(12,513)=#(12,499),(0,6),(12,503),(12,514)=&(12,506),(0,6);:_ZN6MAUtil6VectorINS_11ListenerSetINS_14CameraListenerEE5ComboEE3addERKS4_;2A.(12,504):_ZN6MAUtil6VectorINS_11ListenerSetINS_14CameraListenerEE5ComboEE3addEPKS4_i;2A.;remove::(12,515)=#(12,499),(0,6),(12,503),(12,500),(0,6);:_ZN6MAUtil6VectorINS_11ListenerSetINS_14CameraListenerEE5ComboEE6removeEPS4_;2A.(12,516)=#(12,499),(0,6),(12,503),(0,3),(0,6);:_ZN6MAUtil6VectorINS_11ListenerSetINS_14CameraListenerEE5ComboEE6removeEi;2A.(12,517)=#(12,499),(0,6),(12,503),(0,3),(0,3),(0,6);:_ZN6MAUtil6VectorINS_11ListenerSetINS_14CameraListenerEE5ComboEE6removeEii;2A.;insert::(12,518)=#(12,499),(0,6),(12,503),(0,3),(12,501),(0,6);:_ZN6MAUtil6VectorINS_11ListenerSetINS_14CameraListenerEE5ComboEE6insertEiS4_;2A.;size::(12,519)=#(12,499),(0,3),(12,520)=*(12,509),(0,6);:_ZNK6MAUtil6VectorINS_11ListenerSetINS_14CameraListenerEE5ComboEE4sizeEv;2B.;resize::(12,516):_ZN6MAUtil6VectorINS_11ListenerSetINS_14CameraListenerEE5ComboEE6resizeEi;2A.;reserve::(12,516):_ZN6MAUtil6VectorINS_11ListenerSetINS_14CameraListenerEE5ComboEE7reserveEi;2A.;clear::(12,510):_ZN6MAUtil6VectorINS_11ListenerSetINS_14CameraListenerEE5ComboEE5clearEv;2A.;empty::(12,521)=#(12,499),(0,4),(12,520),(0,6);:_ZNK6MAUtil6VectorINS_11ListenerSetINS_14CameraListenerEE5ComboEE5emptyEv;2B.;capacity::(12,519):_ZNK6MAUtil6VectorINS_11ListenerSetINS_14CameraListenerEE5ComboEE8capacityEv;2B.;begin::(12,522)=#(12,499),(12,500),(12,503),(0,6);:_ZN6MAUtil6VectorINS_11ListenerSetINS_14CameraListenerEE5ComboEE5beginEv;2A.;end::(12,522):_ZN6MAUtil6VectorINS_11ListenerSetINS_14CameraListenerEE5ComboEE3endEv;2A.;begin::(12,523)=#(12,499),(12,505),(12,520),(0,6);:_ZNK6MAUtil6VectorINS_11ListenerSetINS_14CameraListenerEE5ComboEE5beginEv;2B.;end::(12,523):_ZNK6MAUtil6VectorINS_11ListenerSetINS_14CameraListenerEE5ComboEE3endEv;2B.;operator[]::(12,524)=#(12,499),(12,525)=&(12,501),(12,503),(0,3),(0,6);:_ZN6MAUtil6VectorINS_11ListenerSetINS_14CameraListenerEE5ComboEEixEi;2A.(12,526)=#(12,499),(12,514),(12,520),(0,3),(0,6);:_ZNK6MAUtil6VectorINS_11ListenerSetINS_14CameraListenerEE5ComboEEixEi;2B.;pointer::(12,523):_ZNK6MAUtil6VectorINS_11ListenerSetINS_14CameraListenerEE5ComboEE7pointerEv;2B.(12,522):_ZN6MAUtil6VectorINS_11ListenerSetINS_14CameraListenerEE5ComboEE7pointerEv;2A.;;",128,0,95,0
	.stabs	"ListenerSet<MAUtil::CameraListener>:Tt(12,527)=s16mRunning:/0(0,4),0,8;mUpdateRequired:/0(0,4),8,8;mShouldDelete:/0(0,4),16,8;mVec:/0(12,499),32,96;__base_ctor::(12,528)=#(12,527),(0,6),(12,529)=*(12,527),(0,4),(0,6);:_ZN6MAUtil11ListenerSetINS_14CameraListenerEEC2Eb;2A.;__comp_ctor::(12,528):_ZN6MAUtil11ListenerSetINS_14CameraListenerEEC1Eb;2A.;begin::(12,530)=#(12,527),(12,531)=xsiterator:,(12,529),(0,6);:_ZN6MAUtil11ListenerSetINS_14CameraListenerEE5beginEv;2A.;add::(12,532)=#(12,527),(0,6),(12,529),(12,533)=*(12,534)=xsCameraListener:,(0,6);:_ZN6MAUtil11ListenerSetINS_14CameraListenerEE3addEPS1_;2A.;remove::(12,532):_ZN6MAUtil11ListenerSetINS_14CameraListenerEE6removeEPS1_;2A.;contains::(12,535)=#(12,527),(0,4),(12,529),(12,533),(0,6);:_ZN6MAUtil11ListenerSetINS_14CameraListenerEE8containsEPS1_;2A.;setRunning::(12,536)=#(12,527),(0,6),(12,529),(0,4),(0,6);:_ZN6MAUtil11ListenerSetINS_14CameraListenerEE10setRunningEb;2A.;size::(12,537)=#(12,527),(0,3),(12,538)=*(12,539)=k(12,527),(0,6);:_ZNK6MAUtil11ListenerSetINS_14CameraListenerEE4sizeEv;2B.;operator=::(12,540)=#(12,527),(12,541)=&(12,527),(12,529),(12,542)=&(12,539),(0,6);:_ZN6MAUtil11ListenerSetINS_14CameraListenerEEaSERKS2_;2A.;__base_ctor::(12,543)=#(12,527),(0,6),(12,529),(12,542),(0,6);:_ZN6MAUtil11ListenerSetINS_14CameraListenerEEC2ERKS2_;2A.;__comp_ctor::(12,543):_ZN6MAUtil11ListenerSetINS_14CameraListenerEEC1ERKS2_;2A.;__base_dtor::(12,544)=#(12,527),(0,6),(12,529),(0,6);:_ZN6MAUtil11ListenerSetINS_14CameraListenerEED2Ev;2A.;__comp_dtor::(12,544):_ZN6MAUtil11ListenerSetINS_14CameraListenerEED1Ev;2A.;;",128,0,46,0
	.stabs	"Vector<MAUtil::ListenerSet<MAUtil::MediaExportListener>::Combo>:Tt(12,545)=s12mSize:/1(0,3),0,32;mCapacity:/1(0,3),32,32;mData:/1(12,546)=*(12,547)=xsCombo:,64,32;__base_ctor::(12,548)=#(12,545),(0,6),(12,549)=*(12,545),(0,3),(0,6);:_ZN6MAUtil6VectorINS_11ListenerSetINS_19MediaExportListenerEE5ComboEEC2Ei;2A.;__comp_ctor::(12,548):_ZN6MAUtil6VectorINS_11ListenerSetINS_19MediaExportListenerEE5ComboEEC1Ei;2A.;__base_ctor::(12,550)=#(12,545),(0,6),(12,549),(12,551)=*(12,552)=k(12,547),(0,3),(0,6);:_ZN6MAUtil6VectorINS_11ListenerSetINS_19MediaExportListenerEE5ComboEEC2EPKS4_i;2A.;__comp_ctor::(12,550):_ZN6MAUtil6VectorINS_11ListenerSetINS_19MediaExportListenerEE5ComboEEC1EPKS4_i;2A.;__base_ctor::(12,553)=#(12,545),(0,6),(12,549),(12,554)=&(12,555)=k(12,545),(0,6);:_ZN6MAUtil6VectorINS_11ListenerSetINS_19MediaExportListenerEE5ComboEEC2ERKS5_;2A.;__comp_ctor::(12,553):_ZN6MAUtil6VectorINS_11ListenerSetINS_19MediaExportListenerEE5ComboEEC1ERKS5_;2A.;__base_dtor::(12,556)=#(12,545),(0,6),(12,549),(0,6);:_ZN6MAUtil6VectorINS_11ListenerSetINS_19MediaExportListenerEE5ComboEED2Ev;2A.;__comp_dtor::(12,556):_ZN6MAUtil6VectorINS_11ListenerSetINS_19MediaExportListenerEE5ComboEED1Ev;2A.;operator=::(12,557)=#(12,545),(12,558)=&(12,545),(12,549),(12,554),(0,6);:_ZN6MAUtil6VectorINS_11ListenerSetINS_19MediaExportListenerEE5ComboEEaSERKS5_;2A.;add::(12,559)=#(12,545),(0,6),(12,549),(12,560)=&(12,552),(0,6);:_ZN6MAUtil6VectorINS_11ListenerSetINS_19MediaExportListenerEE5ComboEE3addERKS4_;2A.(12,550):_ZN6MAUtil6VectorINS_11ListenerSetINS_19MediaExportListenerEE5ComboEE3addEPKS4_i;2A.;remove::(12,561)=#(12,545),(0,6),(12,549),(12,546),(0,6);:_ZN6MAUtil6VectorINS_11ListenerSetINS_19MediaExportListenerEE5ComboEE6removeEPS4_;2A.(12,562)=#(12,545),(0,6),(12,549),(0,3),(0,6);:_ZN6MAUtil6VectorINS_11ListenerSetINS_19MediaExportListenerEE5ComboEE6removeEi;2A.(12,563)=#(12,545),(0,6),(12,549),(0,3),(0,3),(0,6);:_ZN6MAUtil6VectorINS_11ListenerSetINS_19MediaExportListenerEE5ComboEE6removeEii;2A.;insert::(12,564)=#(12,545),(0,6),(12,549),(0,3),(12,547),(0,6);:_ZN6MAUtil6VectorINS_11ListenerSetINS_19MediaExportListenerEE5ComboEE6insertEiS4_;2A.;size::(12,565)=#(12,545),(0,3),(12,566)=*(12,555),(0,6);:_ZNK6MAUtil6VectorINS_11ListenerSetINS_19MediaExportListenerEE5ComboEE4sizeEv;2B.;resize::(12,562):_ZN6MAUtil6VectorINS_11ListenerSetINS_19MediaExportListenerEE5ComboEE6resizeEi;2A.;reserve::(12,562):_ZN6MAUtil6VectorINS_11ListenerSetINS_19MediaExportListenerEE5ComboEE7reserveEi;2A.;clear::(12,556):_ZN6MAUtil6VectorINS_11ListenerSetINS_19MediaExportListenerEE5ComboEE5clearEv;2A.;empty::(12,567)=#(12,545),(0,4),(12,566),(0,6);:_ZNK6MAUtil6VectorINS_11ListenerSetINS_19MediaExportListenerEE5ComboEE5emptyEv;2B.;capacity::(12,565):_ZNK6MAUtil6VectorINS_11ListenerSetINS_19MediaExportListenerEE5ComboEE8capacityEv;2B.;begin::(12,568)=#(12,545),(12,546),(12,549),(0,6);:_ZN6MAUtil6VectorINS_11ListenerSetINS_19MediaExportListenerEE5ComboEE5beginEv;2A.;end::(12,568):_ZN6MAUtil6VectorINS_11ListenerSetINS_19MediaExportListenerEE5ComboEE3endEv;2A.;begin::(12,569)=#(12,545),(12,551),(12,566),(0,6);:_ZNK6MAUtil6VectorINS_11ListenerSetINS_19MediaExportListenerEE5ComboEE5beginEv;2B.;end::(12,569):_ZNK6MAUtil6VectorINS_11ListenerSetINS_19MediaExportListenerEE5ComboEE3endEv;2B.;operator[]::(12,570)=#(12,545),(12,571)=&(12,547),(12,549),(0,3),(0,6);:_ZN6MAUtil6VectorINS_11ListenerSetINS_19MediaExportListenerEE5ComboEEixEi;2A.(12,572)=#(12,545),(12,560),(12,566),(0,3),(0,6);:_ZNK6MAUtil6VectorINS_11ListenerSetINS_19MediaExportListenerEE5ComboEEixEi;2B.;pointer::(12,569):_ZNK6MAUtil6VectorINS_11ListenerSetINS_19MediaExportListenerEE5ComboEE7pointerEv;2B.(12,568):_ZN6MAUtil6VectorINS_11ListenerSetINS_19MediaExportListenerEE5ComboEE7pointerEv;2A.;;",128,0,95,0
	.stabs	"ListenerSet<MAUtil::MediaExportListener>:Tt(12,573)=s16mRunning:/0(0,4),0,8;mUpdateRequired:/0(0,4),8,8;mShouldDelete:/0(0,4),16,8;mVec:/0(12,545),32,96;__base_ctor::(12,574)=#(12,573),(0,6),(12,575)=*(12,573),(0,4),(0,6);:_ZN6MAUtil11ListenerSetINS_19MediaExportListenerEEC2Eb;2A.;__comp_ctor::(12,574):_ZN6MAUtil11ListenerSetINS_19MediaExportListenerEEC1Eb;2A.;begin::(12,576)=#(12,573),(12,577)=xsiterator:,(12,575),(0,6);:_ZN6MAUtil11ListenerSetINS_19MediaExportListenerEE5beginEv;2A.;add::(12,578)=#(12,573),(0,6),(12,575),(12,579)=*(12,580)=xsMediaExportListener:,(0,6);:_ZN6MAUtil11ListenerSetINS_19MediaExportListenerEE3addEPS1_;2A.;remove::(12,578):_ZN6MAUtil11ListenerSetINS_19MediaExportListenerEE6removeEPS1_;2A.;contains::(12,581)=#(12,573),(0,4),(12,575),(12,579),(0,6);:_ZN6MAUtil11ListenerSetINS_19MediaExportListenerEE8containsEPS1_;2A.;setRunning::(12,582)=#(12,573),(0,6),(12,575),(0,4),(0,6);:_ZN6MAUtil11ListenerSetINS_19MediaExportListenerEE10setRunningEb;2A.;size::(12,583)=#(12,573),(0,3),(12,584)=*(12,585)=k(12,573),(0,6);:_ZNK6MAUtil11ListenerSetINS_19MediaExportListenerEE4sizeEv;2B.;operator=::(12,586)=#(12,573),(12,587)=&(12,573),(12,575),(12,588)=&(12,585),(0,6);:_ZN6MAUtil11ListenerSetINS_19MediaExportListenerEEaSERKS2_;2A.;__base_ctor::(12,589)=#(12,573),(0,6),(12,575),(12,588),(0,6);:_ZN6MAUtil11ListenerSetINS_19MediaExportListenerEEC2ERKS2_;2A.;__comp_ctor::(12,589):_ZN6MAUtil11ListenerSetINS_19MediaExportListenerEEC1ERKS2_;2A.;__base_dtor::(12,590)=#(12,573),(0,6),(12,575),(0,6);:_ZN6MAUtil11ListenerSetINS_19MediaExportListenerEED2Ev;2A.;__comp_dtor::(12,590):_ZN6MAUtil11ListenerSetINS_19MediaExportListenerEED1Ev;2A.;;",128,0,46,0
	.stabn	162,0,0,0
	.stabs	"c:/MoSync/include/MAUtil/String.h",130,0,0,0
	.stabs	"c:/MoSync/include/MAUtil/RefCounted.h",130,0,0,0
	.stabn	162,0,0,0
	.stabs	"String:t(13,1)=(13,2)=xsBasicString<char>:",128,0,279,0
	.stabs	"WString:t(13,3)=(13,4)=xsBasicString<wchar_t>:",128,0,280,0
	.stabn	162,0,0,0
	.stabn	162,0,0,0
	.stabs	"Vector<MAHandle>:Tt(9,1)=s12mSize:/1(0,3),0,32;mCapacity:/1(0,3),32,32;mData:/1(9,2)=*(6,10),64,32;__base_ctor::(9,3)=#(9,1),(0,6),(9,4)=*(9,1),(0,3),(0,6);:_ZN6MAUtil6VectorIiEC2Ei;2A.;__comp_ctor::(9,3):_ZN6MAUtil6VectorIiEC1Ei;2A.;__base_ctor::(9,5)=#(9,1),(0,6),(9,4),(9,6)=*(9,7)=k(6,10),(0,3),(0,6);:_ZN6MAUtil6VectorIiEC2EPKii;2A.;__comp_ctor::(9,5):_ZN6MAUtil6VectorIiEC1EPKii;2A.;__base_ctor::(9,8)=#(9,1),(0,6),(9,4),(9,9)=&(9,10)=k(9,1),(0,6);:_ZN6MAUtil6VectorIiEC2ERKS1_;2A.;__comp_ctor::(9,8):_ZN6MAUtil6VectorIiEC1ERKS1_;2A.;__base_dtor::(9,11)=#(9,1),(0,6),(9,4),(0,6);:_ZN6MAUtil6VectorIiED2Ev;2A.;__comp_dtor::(9,11):_ZN6MAUtil6VectorIiED1Ev;2A.;operator=::(9,12)=#(9,1),(9,13)=&(9,1),(9,4),(9,9),(0,6);:_ZN6MAUtil6VectorIiEaSERKS1_;2A.;add::(9,14)=#(9,1),(0,6),(9,4),(9,15)=&(9,7),(0,6);:_ZN6MAUtil6VectorIiE3addERKi;2A.(9,5):_ZN6MAUtil6VectorIiE3addEPKii;2A.;remove::(9,16)=#(9,1),(0,6),(9,4),(9,2),(0,6);:_ZN6MAUtil6VectorIiE6removeEPi;2A.(9,17)=#(9,1),(0,6),(9,4),(0,3),(0,6);:_ZN6MAUtil6VectorIiE6removeEi;2A.(9,18)=#(9,1),(0,6),(9,4),(0,3),(0,3),(0,6);:_ZN6MAUtil6VectorIiE6removeEii;2A.;insert::(9,18):_ZN6MAUtil6VectorIiE6insertEii;2A.;size::(9,19)=#(9,1),(0,3),(9,20)=*(9,10),(0,6);:_ZNK6MAUtil6VectorIiE4sizeEv;2B.;resize::(9,17):_ZN6MAUtil6VectorIiE6resizeEi;2A.;reserve::(9,17):_ZN6MAUtil6VectorIiE7reserveEi;2A.;clear::(9,11):_ZN6MAUtil6VectorIiE5clearEv;2A.;empty::(9,21)=#(9,1),(0,4),(9,20),(0,6);:_ZNK6MAUtil6VectorIiE5emptyEv;2B.;capacity::(9,19):_ZNK6MAUtil6VectorIiE8capacityEv;2B.;begin::(9,22)=#(9,1),(9,2),(9,4),(0,6);:_ZN6MAUtil6VectorIiE5beginEv;2A.;end::(9,22):_ZN6MAUtil6VectorIiE3endEv;2A.;begin::(9,23)=#(9,1),(9,6),(9,20),(0,6);:_ZNK6MAUtil6VectorIiE5beginEv;2B.;end::(9,23):_ZNK6MAUtil6VectorIiE3endEv;2B.;operator[]::(9,24)=#(9,1),(9,25)=&(6,10),(9,4),(0,3),(0,6);:_ZN6MAUtil6VectorIiEixEi;2A.(9,26)=#(9,1),(9,15),(9,20),(0,3),(0,6);:_ZNK6MAUtil6VectorIiEixEi;2B.;pointer::(9,23):_ZNK6MAUtil6VectorIiE7pointerEv;2B.(9,22):_ZN6MAUtil6VectorIiE7pointerEv;2A.;;",128,0,95,0
	.stabn	162,0,0,0
	.stabs	"c:/MoSync/include/Wormhole/MessageStreamJSON.h",130,0,0,0
	.stabs	"c:/MoSync/include/MAUtil/HashMap.h",130,0,0,0
	.stabs	"c:/MoSync/include/MAUtil/HashDict.h",130,0,0,0
	.stabs	"c:/MoSync/include/kazlib/hash.h",130,0,0,0
	.stabs	"hashcount_t:t(18,1)=(0,16)",128,0,37,0
	.stabs	"hash_val_t:t(18,2)=(0,16)",128,0,40,0
	.stabs	"hnode_t:Tt(18,3)=s16hash_next:(18,4)=*(18,3),0,32;hash_key:(8,5),32,32;hash_data:(6,9),64,32;hash_hkey:(18,2),96,32;operator=::(18,5)=#(18,3),(18,6)=&(18,3),(18,4),(18,7)=&(18,8)=k(18,3),(0,6);:_ZN7hnode_taSERKS_;2A.;__base_ctor::(18,9)=#(18,3),(0,6),(18,4),(18,7),(0,6);:_ZN7hnode_tC2ERKS_;2A.;__comp_ctor::(18,9):_ZN7hnode_tC1ERKS_;2A.;__base_ctor::(18,10)=#(18,3),(0,6),(18,4),(0,6);:_ZN7hnode_tC2Ev;2A.;__comp_ctor::(18,10):_ZN7hnode_tC1Ev;2A.;;",128,0,73,0
	.stabs	"hnode_t:t(18,11)=(18,3)",128,0,82,0
	.stabs	"hash_comp_t:t(18,12)=(8,15)",128,0,91,0
	.stabs	"hash_fun_t:t(18,13)=(18,14)=*(18,15)=f(18,2)",128,0,105,0
	.stabs	"hnode_alloc_t:t(18,16)=(18,17)=*(18,18)=f(18,19)=*(18,11)",128,0,111,0
	.stabs	"hnode_free_t:t(18,20)=(18,21)=*(18,22)=f(0,6)",128,0,112,0
	.stabs	"hash_t:Tt(18,23)=s52hash_table:(18,24)=*(18,4),0,32;hash_nchains:(18,1),32,32;hash_nodecount:(18,1),64,32;hash_maxcount:(18,1),96,32;hash_highmark:(18,1),128,32;hash_lowmark:(18,1),160,32;hash_compare:(18,12),192,32;hash_function:(18,13),224,32;hash_allocnode:(18,16),256,32;hash_freenode:(18,20),288,32;hash_context:(6,9),320,32;hash_mask:(18,2),352,32;hash_dynamic:(0,3),384,32;operator=::(18,25)=#(18,23),(18,26)=&(18,23),(18,27)=*(18,23),(18,28)=&(18,29)=k(18,23),(0,6);:_ZN6hash_taSERKS_;2A.;__base_ctor::(18,30)=#(18,23),(0,6),(18,27),(18,28),(0,6);:_ZN6hash_tC2ERKS_;2A.;__comp_ctor::(18,30):_ZN6hash_tC1ERKS_;2A.;__base_ctor::(18,31)=#(18,23),(0,6),(18,27),(0,6);:_ZN6hash_tC2Ev;2A.;__comp_ctor::(18,31):_ZN6hash_tC1Ev;2A.;;",128,0,149,0
	.stabs	"hash_t:t(18,32)=(18,23)",128,0,167,0
	.stabs	"hscan_t:Tt(18,33)=s12hash_table:(18,34)=*(18,32),0,32;hash_chain:(18,2),32,32;hash_next:(18,19),64,32;operator=::(18,35)=#(18,33),(18,36)=&(18,33),(18,37)=*(18,33),(18,38)=&(18,39)=k(18,33),(0,6);:_ZN7hscan_taSERKS_;2A.;__base_ctor::(18,40)=#(18,33),(0,6),(18,37),(18,38),(0,6);:_ZN7hscan_tC2ERKS_;2A.;__comp_ctor::(18,40):_ZN7hscan_tC1ERKS_;2A.;__base_ctor::(18,41)=#(18,33),(0,6),(18,37),(0,6);:_ZN7hscan_tC2Ev;2A.;__comp_ctor::(18,41):_ZN7hscan_tC1Ev;2A.;;",128,0,179,0
	.stabs	"hscan_t:t(18,42)=(18,33)",128,0,187,0
	.stabn	162,0,0,0
	.stabn	162,0,0,0
	.stabn	162,0,0,0
	.stabs	"c:/MoSync/include/NativeUI/WebView.h",130,0,0,0
	.stabs	"c:/MoSync/include/NativeUI/Widget.h",130,0,0,0
	.stabs	"c:/MoSync/include/conprint.h",130,0,0,0
	.stabs	"c:/MoSync/include/maarg.h",130,0,0,0
	.stabs	"__gnuc_va_list:t(22,1)=(0,20)",128,0,34,0
	.stabs	"va_list:t(22,2)=(22,1)",128,0,35,0
	.stabn	162,0,0,0
	.stabn	162,0,0,0
	.stabs	"c:/MoSync/include/IX_WIDGET.h",130,0,0,0
	.stabs	"MAWidgetHandle:t(23,1)=(0,3)",128,0,9,0
	.stabs	"MAWScreenTransitionType:t(23,2)=(0,3)",128,0,11,0
	.stabs	"MAWidgetEventData:Tt(23,3)=s20eventType:(0,3),0,32;widgetHandle:(23,1),32,32;:(23,4)=u12listItemIndex:(0,3),0,32;:(23,5)=s8sectionIndex:(0,3),0,32;sectionItemIndex:(0,3),32,32;;,0,64;searchBarButton:(0,3),0,32;checked:(0,3),0,32;tabIndex:(0,3),0,32;status:(0,3),0,32;:(23,6)=s8hookType:(0,3),0,32;urlData:(6,10),32,32;;,0,64;:(23,7)=s8fromScreen:(23,1),0,32;toScreen:(23,1),32,32;;,0,64;sliderValue:(0,3),0,32;:(23,8)=s12dayOfMonth:(0,3),0,32;month:(0,3),32,32;year:(0,3),64,32;;,0,96;:(23,9)=s8hour:(0,3),0,32;minute:(0,3),32,32;;,0,64;numberPickerValue:(0,3),0,32;videoViewState:(0,3),0,32;optionDialogButtonIndex:(0,3),0,32;:(23,10)=s8value:(0,9),0,32;fromUser:(0,3),32,32;;,0,64;radioGroupItemHandle:(0,3),0,32;radioButtonState:(0,3),0,32;optionsMenuItem:(0,3),0,32;actionBarMenuItem:(0,3),0,32;mapPinIndex:(0,3),0,32;screenOrientation:(0,3),0,32;customPickerItemIndex:(0,3),0,32;;,64,96;operator=::(23,11)=#(23,3),(23,12)=&(23,3),(23,13)=*(23,3),(23,14)=&(23,15)=k(23,3),(0,6);:_ZN17MAWidgetEventDataaSERKS_;2A.;__base_ctor::(23,16)=#(23,3),(0,6),(23,13),(23,14),(0,6);:_ZN17MAWidgetEventDataC2ERKS_;2A.;__comp_ctor::(23,16):_ZN17MAWidgetEventDataC1ERKS_;2A.;__base_ctor::(23,17)=#(23,3),(0,6),(23,13),(0,6);:_ZN17MAWidgetEventDataC2Ev;2A.;__comp_ctor::(23,17):_ZN17MAWidgetEventDataC1Ev;2A.;;",128,0,5161,0
	.stabs	"MAWidgetEventData:t(23,18)=(23,3)",128,0,5357,0
	.stabn	162,0,0,0
	.stabs	"BasicString<char>:Tt(13,2)=s4sd:/1(20,1)=*(20,2)=xsStringData<char>:,0,32;__base_ctor::(20,3)=#(13,2),(0,6),(20,4)=*(13,2),(0,6);:_ZN6MAUtil11BasicStringIcEC2Ev;2A.;__comp_ctor::(20,3):_ZN6MAUtil11BasicStringIcEC1Ev;2A.;__base_ctor::(20,5)=#(13,2),(0,6),(20,4),(0,3),(0,6);:_ZN6MAUtil11BasicStringIcEC2Ei;2A.;__comp_ctor::(20,5):_ZN6MAUtil11BasicStringIcEC1Ei;2A.;__base_ctor::(20,6)=#(13,2),(0,6),(20,4),(20,7)=*(20,8)=k(0,19),(0,6);:_ZN6MAUtil11BasicStringIcEC2EPKc;2A.;__comp_ctor::(20,6):_ZN6MAUtil11BasicStringIcEC1EPKc;2A.;__base_ctor::(20,9)=#(13,2),(0,6),(20,4),(20,7),(0,3),(0,6);:_ZN6MAUtil11BasicStringIcEC2EPKci;2A.;__comp_ctor::(20,9):_ZN6MAUtil11BasicStringIcEC1EPKci;2A.;__base_ctor::(20,10)=#(13,2),(0,6),(20,4),(20,11)=&(20,12)=k(13,2),(0,6);:_ZN6MAUtil11BasicStringIcEC2ERKS1_;2A.;__comp_ctor::(20,10):_ZN6MAUtil11BasicStringIcEC1ERKS1_;2A.;c_str::(20,13)=#(13,2),(20,7),(20,14)=*(20,12),(0,6);:_ZNK6MAUtil11BasicStringIcE5c_strEv;2B.;operator=::(20,15)=#(13,2),(20,16)=&(13,2),(20,4),(20,11),(0,6);:_ZN6MAUtil11BasicStringIcEaSERKS1_;2A.;operator[]::(20,17)=#(13,2),(20,18)=&(0,19),(20,4),(0,3),(0,6);:_ZN6MAUtil11BasicStringIcEixEi;2A.(20,19)=#(13,2),(20,20)=&(20,8),(20,14),(0,3),(0,6);:_ZNK6MAUtil11BasicStringIcEixEi;2B.;operator==::(20,21)=#(13,2),(0,4),(20,14),(20,11),(0,6);:_ZNK6MAUtil11BasicStringIcEeqERKS1_;2B.;operator!=::(20,21):_ZNK6MAUtil11BasicStringIcEneERKS1_;2B.;operator<::(20,21):_ZNK6MAUtil11BasicStringIcEltERKS1_;2B.;operator>::(20,21):_ZNK6MAUtil11BasicStringIcEgtERKS1_;2B.;operator<=::(20,21):_ZNK6MAUtil11BasicStringIcEleERKS1_;2B.;operator>=::(20,21):_ZNK6MAUtil11BasicStringIcEgeERKS1_;2B.;operator+::(20,22)=#(13,2),(13,2),(20,14),(20,11),(0,6);:_ZNK6MAUtil11BasicStringIcEplERKS1_;2B.;operator+=::(20,15):_ZN6MAUtil11BasicStringIcEpLERKS1_;2A.;operator+::(20,23)=#(13,2),(13,2),(20,14),(0,19),(0,6);:_ZNK6MAUtil11BasicStringIcEplEc;2B.;operator+=::(20,24)=#(13,2),(20,16),(20,4),(0,19),(0,6);:_ZN6MAUtil11BasicStringIcEpLEc;2A.;find::(20,25)=#(13,2),(0,3),(20,14),(20,11),(0,17),(0,6);:_ZNK6MAUtil11BasicStringIcE4findERKS1_j;2B.;findLastOf::(20,26)=#(13,2),(0,3),(20,14),(0,19),(0,6);:_ZNK6MAUtil11BasicStringIcE10findLastOfEc;2B.;findFirstOf::(20,27)=#(13,2),(0,3),(20,14),(0,19),(0,3),(0,6);:_ZNK6MAUtil11BasicStringIcE11findFirstOfEci;2B.;findFirstNotOf::(20,27):_ZNK6MAUtil11BasicStringIcE14findFirstNotOfEci;2B.;insert::(20,28)=#(13,2),(0,6),(20,4),(0,3),(20,11),(0,6);:_ZN6MAUtil11BasicStringIcE6insertEiRKS1_;2A.(20,29)=#(13,2),(0,6),(20,4),(0,3),(0,19),(0,6);:_ZN6MAUtil11BasicStringIcE6insertEic;2A.;remove::(20,30)=#(13,2),(0,6),(20,4),(0,3),(0,3),(0,6);:_ZN6MAUtil11BasicStringIcE6removeEii;2A.;substr::(20,31)=#(13,2),(13,2),(20,14),(0,3),(0,3),(0,6);:_ZNK6MAUtil11BasicStringIcE6substrEii;2B.;capacity::(20,32)=#(13,2),(0,3),(20,14),(0,6);:_ZNK6MAUtil11BasicStringIcE8capacityEv;2B.;size::(20,32):_ZNK6MAUtil11BasicStringIcE4sizeEv;2B.;length::(20,32):_ZNK6MAUtil11BasicStringIcE6lengthEv;2B.;resize::(20,5):_ZN6MAUtil11BasicStringIcE6resizeEi;2A.;reserve::(20,5):_ZN6MAUtil11BasicStringIcE7reserveEi;2A.;clear::(20,3):_ZN6MAUtil11BasicStringIcE5clearEv;2A.;append::(20,9):_ZN6MAUtil11BasicStringIcE6appendEPKci;2A.;setData::(20,33)=#(13,2),(0,6),(20,4),(20,1),(0,6);:_ZN6MAUtil11BasicStringIcE7setDataEPNS_10StringDataIcEE;2A.;pointer::(20,34)=#(13,2),(6,5),(20,4),(0,6);:_ZN6MAUtil11BasicStringIcE7pointerEv;2A.(20,13):_ZNK6MAUtil11BasicStringIcE7pointerEv;2B.;__base_dtor::(20,3):_ZN6MAUtil11BasicStringIcED2Ev;2A.;__comp_dtor::(20,3):_ZN6MAUtil11BasicStringIcED1Ev;2A.;allocStringData::(20,9):_ZN6MAUtil11BasicStringIcE15allocStringDataEPKci;1A.;;",128,0,104,0
	.stabs	"LastError:Tt(20,35)=s8errorCause:(13,1),0,32;errorCode:(0,3),32,32;__base_ctor::(20,36)=#(20,35),(0,6),(20,37)=*(20,35),(20,38)=&(20,39)=k(13,1),(0,3),(0,6);:_ZN8NativeUI9LastErrorC2ERKN6MAUtil11BasicStringIcEEi;2A.;__comp_ctor::(20,36):_ZN8NativeUI9LastErrorC1ERKN6MAUtil11BasicStringIcEEi;2A.;__base_ctor::(20,40)=#(20,35),(0,6),(20,37),(0,6);:_ZN8NativeUI9LastErrorC2Ev;2A.;__comp_ctor::(20,40):_ZN8NativeUI9LastErrorC1Ev;2A.;operator=::(20,41)=#(20,35),(20,42)=&(20,35),(20,37),(20,43)=&(20,44)=k(20,35),(0,6);:_ZN8NativeUI9LastErroraSERKS0_;2A.;__base_ctor::(20,45)=#(20,35),(0,6),(20,37),(20,43),(0,6);:_ZN8NativeUI9LastErrorC2ERKS0_;2A.;__comp_ctor::(20,45):_ZN8NativeUI9LastErrorC1ERKS0_;2A.;__base_dtor::(20,40):_ZN8NativeUI9LastErrorD2Ev;2A.;__comp_dtor::(20,40):_ZN8NativeUI9LastErrorD1Ev;2A.;;",128,0,78,0
	.stabs	"Vector<NativeUI::WidgetEventListener*>:Tt(20,46)=s12mSize:/1(0,3),0,32;mCapacity:/1(0,3),32,32;mData:/1(20,47)=*(20,48)=*(20,49)=xsWidgetEventListener:,64,32;__base_ctor::(20,50)=#(20,46),(0,6),(20,51)=*(20,46),(0,3),(0,6);:_ZN6MAUtil6VectorIPN8NativeUI19WidgetEventListenerEEC2Ei;2A.;__comp_ctor::(20,50):_ZN6MAUtil6VectorIPN8NativeUI19WidgetEventListenerEEC1Ei;2A.;__base_ctor::(20,52)=#(20,46),(0,6),(20,51),(20,53)=*(20,54)=k(20,48),(0,3),(0,6);:_ZN6MAUtil6VectorIPN8NativeUI19WidgetEventListenerEEC2EPKS3_i;2A.;__comp_ctor::(20,52):_ZN6MAUtil6VectorIPN8NativeUI19WidgetEventListenerEEC1EPKS3_i;2A.;__base_ctor::(20,55)=#(20,46),(0,6),(20,51),(20,56)=&(20,57)=k(20,46),(0,6);:_ZN6MAUtil6VectorIPN8NativeUI19WidgetEventListenerEEC2ERKS4_;2A.;__comp_ctor::(20,55):_ZN6MAUtil6VectorIPN8NativeUI19WidgetEventListenerEEC1ERKS4_;2A.;__base_dtor::(20,58)=#(20,46),(0,6),(20,51),(0,6);:_ZN6MAUtil6VectorIPN8NativeUI19WidgetEventListenerEED2Ev;2A.;__comp_dtor::(20,58):_ZN6MAUtil6VectorIPN8NativeUI19WidgetEventListenerEED1Ev;2A.;operator=::(20,59)=#(20,46),(20,60)=&(20,46),(20,51),(20,56),(0,6);:_ZN6MAUtil6VectorIPN8NativeUI19WidgetEventListenerEEaSERKS4_;2A.;add::(20,61)=#(20,46),(0,6),(20,51),(20,62)=&(20,54),(0,6);:_ZN6MAUtil6VectorIPN8NativeUI19WidgetEventListenerEE3addERKS3_;2A.(20,52):_ZN6MAUtil6VectorIPN8NativeUI19WidgetEventListenerEE3addEPKS3_i;2A.;remove::(20,63)=#(20,46),(0,6),(20,51),(20,47),(0,6);:_ZN6MAUtil6VectorIPN8NativeUI19WidgetEventListenerEE6removeEPS3_;2A.(20,64)=#(20,46),(0,6),(20,51),(0,3),(0,6);:_ZN6MAUtil6VectorIPN8NativeUI19WidgetEventListenerEE6removeEi;2A.(20,65)=#(20,46),(0,6),(20,51),(0,3),(0,3),(0,6);:_ZN6MAUtil6VectorIPN8NativeUI19WidgetEventListenerEE6removeEii;2A.;insert::(20,66)=#(20,46),(0,6),(20,51),(0,3),(20,48),(0,6);:_ZN6MAUtil6VectorIPN8NativeUI19WidgetEventListenerEE6insertEiS3_;2A.;size::(20,67)=#(20,46),(0,3),(20,68)=*(20,57),(0,6);:_ZNK6MAUtil6VectorIPN8NativeUI19WidgetEventListenerEE4sizeEv;2B.;resize::(20,64):_ZN6MAUtil6VectorIPN8NativeUI19WidgetEventListenerEE6resizeEi;2A.;reserve::(20,64):_ZN6MAUtil6VectorIPN8NativeUI19WidgetEventListenerEE7reserveEi;2A.;clear::(20,58):_ZN6MAUtil6VectorIPN8NativeUI19WidgetEventListenerEE5clearEv;2A.;empty::(20,69)=#(20,46),(0,4),(20,68),(0,6);:_ZNK6MAUtil6VectorIPN8NativeUI19WidgetEventListenerEE5emptyEv;2B.;capacity::(20,67):_ZNK6MAUtil6VectorIPN8NativeUI19WidgetEventListenerEE8capacityEv;2B.;begin::(20,70)=#(20,46),(20,47),(20,51),(0,6);:_ZN6MAUtil6VectorIPN8NativeUI19WidgetEventListenerEE5beginEv;2A.;end::(20,70):_ZN6MAUtil6VectorIPN8NativeUI19WidgetEventListenerEE3endEv;2A.;begin::(20,71)=#(20,46),(20,53),(20,68),(0,6);:_ZNK6MAUtil6VectorIPN8NativeUI19WidgetEventListenerEE5beginEv;2B.;end::(20,71):_ZNK6MAUtil6VectorIPN8NativeUI19WidgetEventListenerEE3endEv;2B.;operator[]::(20,72)=#(20,46),(20,73)=&(20,48),(20,51),(0,3),(0,6);:_ZN6MAUtil6VectorIPN8NativeUI19WidgetEventListenerEEixEi;2A.(20,74)=#(20,46),(20,62),(20,68),(0,3),(0,6);:_ZNK6MAUtil6VectorIPN8NativeUI19WidgetEventListenerEEixEi;2B.;pointer::(20,71):_ZNK6MAUtil6VectorIPN8NativeUI19WidgetEventListenerEE7pointerEv;2B.(20,70):_ZN6MAUtil6VectorIPN8NativeUI19WidgetEventListenerEE7pointerEv;2A.;;",128,0,95,0
	.stabs	"Vector<NativeUI::Widget*>:Tt(20,75)=s12mSize:/1(0,3),0,32;mCapacity:/1(0,3),32,32;mData:/1(20,76)=*(20,77)=*(20,78)=xsWidget:,64,32;__base_ctor::(20,79)=#(20,75),(0,6),(20,80)=*(20,75),(0,3),(0,6);:_ZN6MAUtil6VectorIPN8NativeUI6WidgetEEC2Ei;2A.;__comp_ctor::(20,79):_ZN6MAUtil6VectorIPN8NativeUI6WidgetEEC1Ei;2A.;__base_ctor::(20,81)=#(20,75),(0,6),(20,80),(20,82)=*(20,83)=k(20,77),(0,3),(0,6);:_ZN6MAUtil6VectorIPN8NativeUI6WidgetEEC2EPKS3_i;2A.;__comp_ctor::(20,81):_ZN6MAUtil6VectorIPN8NativeUI6WidgetEEC1EPKS3_i;2A.;__base_ctor::(20,84)=#(20,75),(0,6),(20,80),(20,85)=&(20,86)=k(20,75),(0,6);:_ZN6MAUtil6VectorIPN8NativeUI6WidgetEEC2ERKS4_;2A.;__comp_ctor::(20,84):_ZN6MAUtil6VectorIPN8NativeUI6WidgetEEC1ERKS4_;2A.;__base_dtor::(20,87)=#(20,75),(0,6),(20,80),(0,6);:_ZN6MAUtil6VectorIPN8NativeUI6WidgetEED2Ev;2A.;__comp_dtor::(20,87):_ZN6MAUtil6VectorIPN8NativeUI6WidgetEED1Ev;2A.;operator=::(20,88)=#(20,75),(20,89)=&(20,75),(20,80),(20,85),(0,6);:_ZN6MAUtil6VectorIPN8NativeUI6WidgetEEaSERKS4_;2A.;add::(20,90)=#(20,75),(0,6),(20,80),(20,91)=&(20,83),(0,6);:_ZN6MAUtil6VectorIPN8NativeUI6WidgetEE3addERKS3_;2A.(20,81):_ZN6MAUtil6VectorIPN8NativeUI6WidgetEE3addEPKS3_i;2A.;remove::(20,92)=#(20,75),(0,6),(20,80),(20,76),(0,6);:_ZN6MAUtil6VectorIPN8NativeUI6WidgetEE6removeEPS3_;2A.(20,93)=#(20,75),(0,6),(20,80),(0,3),(0,6);:_ZN6MAUtil6VectorIPN8NativeUI6WidgetEE6removeEi;2A.(20,94)=#(20,75),(0,6),(20,80),(0,3),(0,3),(0,6);:_ZN6MAUtil6VectorIPN8NativeUI6WidgetEE6removeEii;2A.;insert::(20,95)=#(20,75),(0,6),(20,80),(0,3),(20,77),(0,6);:_ZN6MAUtil6VectorIPN8NativeUI6WidgetEE6insertEiS3_;2A.;size::(20,96)=#(20,75),(0,3),(20,97)=*(20,86),(0,6);:_ZNK6MAUtil6VectorIPN8NativeUI6WidgetEE4sizeEv;2B.;resize::(20,93):_ZN6MAUtil6VectorIPN8NativeUI6WidgetEE6resizeEi;2A.;reserve::(20,93):_ZN6MAUtil6VectorIPN8NativeUI6WidgetEE7reserveEi;2A.;clear::(20,87):_ZN6MAUtil6VectorIPN8NativeUI6WidgetEE5clearEv;2A.;empty::(20,98)=#(20,75),(0,4),(20,97),(0,6);:_ZNK6MAUtil6VectorIPN8NativeUI6WidgetEE5emptyEv;2B.;capacity::(20,96):_ZNK6MAUtil6VectorIPN8NativeUI6WidgetEE8capacityEv;2B.;begin::(20,99)=#(20,75),(20,76),(20,80),(0,6);:_ZN6MAUtil6VectorIPN8NativeUI6WidgetEE5beginEv;2A.;end::(20,99):_ZN6MAUtil6VectorIPN8NativeUI6WidgetEE3endEv;2A.;begin::(20,100)=#(20,75),(20,82),(20,97),(0,6);:_ZNK6MAUtil6VectorIPN8NativeUI6WidgetEE5beginEv;2B.;end::(20,100):_ZNK6MAUtil6VectorIPN8NativeUI6WidgetEE3endEv;2B.;operator[]::(20,101)=#(20,75),(20,102)=&(20,77),(20,80),(0,3),(0,6);:_ZN6MAUtil6VectorIPN8NativeUI6WidgetEEixEi;2A.(20,103)=#(20,75),(20,91),(20,97),(0,3),(0,6);:_ZNK6MAUtil6VectorIPN8NativeUI6WidgetEEixEi;2B.;pointer::(20,100):_ZNK6MAUtil6VectorIPN8NativeUI6WidgetEE7pointerEv;2B.(20,99):_ZN6MAUtil6VectorIPN8NativeUI6WidgetEE7pointerEv;2A.;;",128,0,95,0
	.stabn	162,0,0,0
	.stabs	"Vector<NativeUI::WebViewListener*>:Tt(19,1)=s12mSize:/1(0,3),0,32;mCapacity:/1(0,3),32,32;mData:/1(19,2)=*(19,3)=*(19,4)=xsWebViewListener:,64,32;__base_ctor::(19,5)=#(19,1),(0,6),(19,6)=*(19,1),(0,3),(0,6);:_ZN6MAUtil6VectorIPN8NativeUI15WebViewListenerEEC2Ei;2A.;__comp_ctor::(19,5):_ZN6MAUtil6VectorIPN8NativeUI15WebViewListenerEEC1Ei;2A.;__base_ctor::(19,7)=#(19,1),(0,6),(19,6),(19,8)=*(19,9)=k(19,3),(0,3),(0,6);:_ZN6MAUtil6VectorIPN8NativeUI15WebViewListenerEEC2EPKS3_i;2A.;__comp_ctor::(19,7):_ZN6MAUtil6VectorIPN8NativeUI15WebViewListenerEEC1EPKS3_i;2A.;__base_ctor::(19,10)=#(19,1),(0,6),(19,6),(19,11)=&(19,12)=k(19,1),(0,6);:_ZN6MAUtil6VectorIPN8NativeUI15WebViewListenerEEC2ERKS4_;2A.;__comp_ctor::(19,10):_ZN6MAUtil6VectorIPN8NativeUI15WebViewListenerEEC1ERKS4_;2A.;__base_dtor::(19,13)=#(19,1),(0,6),(19,6),(0,6);:_ZN6MAUtil6VectorIPN8NativeUI15WebViewListenerEED2Ev;2A.;__comp_dtor::(19,13):_ZN6MAUtil6VectorIPN8NativeUI15WebViewListenerEED1Ev;2A.;operator=::(19,14)=#(19,1),(19,15)=&(19,1),(19,6),(19,11),(0,6);:_ZN6MAUtil6VectorIPN8NativeUI15WebViewListenerEEaSERKS4_;2A.;add::(19,16)=#(19,1),(0,6),(19,6),(19,17)=&(19,9),(0,6);:_ZN6MAUtil6VectorIPN8NativeUI15WebViewListenerEE3addERKS3_;2A.(19,7):_ZN6MAUtil6VectorIPN8NativeUI15WebViewListenerEE3addEPKS3_i;2A.;remove::(19,18)=#(19,1),(0,6),(19,6),(19,2),(0,6);:_ZN6MAUtil6VectorIPN8NativeUI15WebViewListenerEE6removeEPS3_;2A.(19,19)=#(19,1),(0,6),(19,6),(0,3),(0,6);:_ZN6MAUtil6VectorIPN8NativeUI15WebViewListenerEE6removeEi;2A.(19,20)=#(19,1),(0,6),(19,6),(0,3),(0,3),(0,6);:_ZN6MAUtil6VectorIPN8NativeUI15WebViewListenerEE6removeEii;2A.;insert::(19,21)=#(19,1),(0,6),(19,6),(0,3),(19,3),(0,6);:_ZN6MAUtil6VectorIPN8NativeUI15WebViewListenerEE6insertEiS3_;2A.;size::(19,22)=#(19,1),(0,3),(19,23)=*(19,12),(0,6);:_ZNK6MAUtil6VectorIPN8NativeUI15WebViewListenerEE4sizeEv;2B.;resize::(19,19):_ZN6MAUtil6VectorIPN8NativeUI15WebViewListenerEE6resizeEi;2A.;reserve::(19,19):_ZN6MAUtil6VectorIPN8NativeUI15WebViewListenerEE7reserveEi;2A.;clear::(19,13):_ZN6MAUtil6VectorIPN8NativeUI15WebViewListenerEE5clearEv;2A.;empty::(19,24)=#(19,1),(0,4),(19,23),(0,6);:_ZNK6MAUtil6VectorIPN8NativeUI15WebViewListenerEE5emptyEv;2B.;capacity::(19,22):_ZNK6MAUtil6VectorIPN8NativeUI15WebViewListenerEE8capacityEv;2B.;begin::(19,25)=#(19,1),(19,2),(19,6),(0,6);:_ZN6MAUtil6VectorIPN8NativeUI15WebViewListenerEE5beginEv;2A.;end::(19,25):_ZN6MAUtil6VectorIPN8NativeUI15WebViewListenerEE3endEv;2A.;begin::(19,26)=#(19,1),(19,8),(19,23),(0,6);:_ZNK6MAUtil6VectorIPN8NativeUI15WebViewListenerEE5beginEv;2B.;end::(19,26):_ZNK6MAUtil6VectorIPN8NativeUI15WebViewListenerEE3endEv;2B.;operator[]::(19,27)=#(19,1),(19,28)=&(19,3),(19,6),(0,3),(0,6);:_ZN6MAUtil6VectorIPN8NativeUI15WebViewListenerEEixEi;2A.(19,29)=#(19,1),(19,17),(19,23),(0,3),(0,6);:_ZNK6MAUtil6VectorIPN8NativeUI15WebViewListenerEEixEi;2B.;pointer::(19,26):_ZNK6MAUtil6VectorIPN8NativeUI15WebViewListenerEE7pointerEv;2B.(19,25):_ZN6MAUtil6VectorIPN8NativeUI15WebViewListenerEE7pointerEv;2A.;;",128,0,95,0
	.stabn	162,0,0,0
	.stabs	"c:/MoSync/include/yajl/YAJLDom.h",130,0,0,0
	.stabs	"Value::Type:t(24,1)=eNUL:0,BOOLEAN:1,NUMBER:2,ARRAY:3,MAP:4,STRING:5,;",128,0,37,0
	.stabs	"Dictionary<const MAUtil::BasicString<char>,MAUtil::Pair<const MAUtil::BasicString<char>, MAUtil::YAJLDom::Value*> >:Tt(24,2)=s56mDict:/1(8,32),0,416;mKeyOffset:/1(0,3),416,32;__base_ctor::(24,3)=#(24,2),(0,6),(24,4)=*(24,2),(24,5)=&(24,6)=k(24,2),(0,6);:_ZN6MAUtil10DictionaryIKNS_11BasicStringIcEENS_4PairIS3_PNS_7YAJLDom5ValueEEEEC2ERKS9_;2A.;__comp_ctor::(24,3):_ZN6MAUtil10DictionaryIKNS_11BasicStringIcEENS_4PairIS3_PNS_7YAJLDom5ValueEEEEC1ERKS9_;2A.;operator=::(24,7)=#(24,2),(24,8)=&(24,2),(24,4),(24,5),(0,6);:_ZN6MAUtil10DictionaryIKNS_11BasicStringIcEENS_4PairIS3_PNS_7YAJLDom5ValueEEEEaSERKS9_;2A.;__base_dtor::(24,9)=#(24,2),(0,6),(24,4),(0,6);:_ZN6MAUtil10DictionaryIKNS_11BasicStringIcEENS_4PairIS3_PNS_7YAJLDom5ValueEEEED2Ev;2A.;__comp_dtor::(24,9):_ZN6MAUtil10DictionaryIKNS_11BasicStringIcEENS_4PairIS3_PNS_7YAJLDom5ValueEEEED1Ev;2A.;find::(24,10)=#(24,2),(24,11)=xsIterator:,(24,4),(20,38),(0,6);:_ZN6MAUtil10DictionaryIKNS_11BasicStringIcEENS_4PairIS3_PNS_7YAJLDom5ValueEEEE4findERS3_;2A.(24,12)=#(24,2),(24,13)=xsConstIterator:,(24,14)=*(24,6),(20,38),(0,6);:_ZNK6MAUtil10DictionaryIKNS_11BasicStringIcEENS_4PairIS3_PNS_7YAJLDom5ValueEEEE4findERS3_;2B.;erase::(24,15)=#(24,2),(0,4),(24,4),(20,38),(0,6);:_ZN6MAUtil10DictionaryIKNS_11BasicStringIcEENS_4PairIS3_PNS_7YAJLDom5ValueEEEE5eraseERS3_;2A.(24,16)=#(24,2),(0,6),(24,4),(24,11),(0,6);:_ZN6MAUtil10DictionaryIKNS_11BasicStringIcEENS_4PairIS3_PNS_7YAJLDom5ValueEEEE5eraseENS9_8IteratorE;2A.;begin::(24,17)=#(24,2),(24,11),(24,4),(0,6);:_ZN6MAUtil10DictionaryIKNS_11BasicStringIcEENS_4PairIS3_PNS_7YAJLDom5ValueEEEE5beginEv;2A.(24,18)=#(24,2),(24,13),(24,14),(0,6);:_ZNK6MAUtil10DictionaryIKNS_11BasicStringIcEENS_4PairIS3_PNS_7YAJLDom5ValueEEEE5beginEv;2B.;end::(24,17):_ZN6MAUtil10DictionaryIKNS_11BasicStringIcEENS_4PairIS3_PNS_7YAJLDom5ValueEEEE3endEv;2A.(24,18):_ZNK6MAUtil10DictionaryIKNS_11BasicStringIcEENS_4PairIS3_PNS_7YAJLDom5ValueEEEE3endEv;2B.;size::(24,19)=#(24,2),(5,1),(24,14),(0,6);:_ZNK6MAUtil10DictionaryIKNS_11BasicStringIcEENS_4PairIS3_PNS_7YAJLDom5ValueEEEE4sizeEv;2B.;clear::(24,9):_ZN6MAUtil10DictionaryIKNS_11BasicStringIcEENS_4PairIS3_PNS_7YAJLDom5ValueEEEE5clearEv;2A.;init::(24,20)=#(24,2),(0,6),(24,4),(24,21)=*(24,22)=f(0,3),(0,6);:_ZN6MAUtil10DictionaryIKNS_11BasicStringIcEENS_4PairIS3_PNS_7YAJLDom5ValueEEEE4initEPFiRS3_SA_E;1A.;alloc::(8,19):_ZN6MAUtil10DictionaryIKNS_11BasicStringIcEENS_4PairIS3_PNS_7YAJLDom5ValueEEEE5allocEPv;1A?;free::(8,23):_ZN6MAUtil10DictionaryIKNS_11BasicStringIcEENS_4PairIS3_PNS_7YAJLDom5ValueEEEE4freeEP7dnode_tPv;1A?;__base_ctor::(24,23)=#(24,2),(0,6),(24,4),(24,21),(0,3),(0,6);:_ZN6MAUtil10DictionaryIKNS_11BasicStringIcEENS_4PairIS3_PNS_7YAJLDom5ValueEEEEC2EPFiRS3_SA_Ei;1A.;__comp_ctor::(24,23):_ZN6MAUtil10DictionaryIKNS_11BasicStringIcEENS_4PairIS3_PNS_7YAJLDom5ValueEEEEC1EPFiRS3_SA_Ei;1A.;insert::(24,24)=#(24,2),(24,25)=xsPair<MAUtil::Dictionary<const MAUtil::BasicString<char>, MAUtil::Pair<const MAUtil::BasicString<char>, MAUtil::YAJLDom::Value*> >::Iterator,bool>:,(24,4),(24,26)=&(24,27)=k(24,28)=xsPair<const MAUtil::BasicString<char>,MAUtil::YAJLDom::Value*>:,(0,6);:_ZN6MAUtil10DictionaryIKNS_11BasicStringIcEENS_4PairIS3_PNS_7YAJLDom5ValueEEEE6insertERKS8_;1A.;;",128,0,57,0
	.stabs	"Map<MAUtil::BasicString<char>,MAUtil::YAJLDom::Value*>:Tt(24,29)=s56!1,020,(24,2);__base_ctor::(24,30)=#(24,29),(0,6),(24,31)=*(24,29),(24,21),(0,6);:_ZN6MAUtil3MapINS_11BasicStringIcEEPNS_7YAJLDom5ValueEEC2EPFiRKS2_S8_E;2A.;__comp_ctor::(24,30):_ZN6MAUtil3MapINS_11BasicStringIcEEPNS_7YAJLDom5ValueEEC1EPFiRKS2_S8_E;2A.;insert::(24,32)=#(24,29),(24,25),(24,31),(20,38),(24,33)=&(24,34)=k(24,35)=*(24,36)=xsValue:,(0,6);:_ZN6MAUtil3MapINS_11BasicStringIcEEPNS_7YAJLDom5ValueEE6insertERKS2_RKS5_;2A.(24,37)=#(24,29),(24,25),(24,31),(24,38)=&(24,39)=k(24,40)=xsPair<MAUtil::BasicString<char>,MAUtil::YAJLDom::Value*>:,(0,6);:_ZN6MAUtil3MapINS_11BasicStringIcEEPNS_7YAJLDom5ValueEE6insertERKNS_4PairIS2_S5_EE;2A.;operator[]::(24,41)=#(24,29),(24,42)=&(24,35),(24,31),(20,38),(0,6);:_ZN6MAUtil3MapINS_11BasicStringIcEEPNS_7YAJLDom5ValueEEixERKS2_;2A.;operator=::(24,43)=#(24,29),(24,44)=&(24,29),(24,31),(24,45)=&(24,46)=k(24,29),(0,6);:_ZN6MAUtil3MapINS_11BasicStringIcEEPNS_7YAJLDom5ValueEEaSERKS6_;2A.;__base_ctor::(24,47)=#(24,29),(0,6),(24,31),(24,45),(0,6);:_ZN6MAUtil3MapINS_11BasicStringIcEEPNS_7YAJLDom5ValueEEC2ERKS6_;2A.;__comp_ctor::(24,47):_ZN6MAUtil3MapINS_11BasicStringIcEEPNS_7YAJLDom5ValueEEC1ERKS6_;2A.;__base_dtor::(24,48)=#(24,29),(0,6),(24,31),(0,6);:_ZN6MAUtil3MapINS_11BasicStringIcEEPNS_7YAJLDom5ValueEED2Ev;2A.;__comp_dtor::(24,48):_ZN6MAUtil3MapINS_11BasicStringIcEEPNS_7YAJLDom5ValueEED1Ev;2A.;;",128,0,33,0
	.stabs	"Vector<MAUtil::YAJLDom::Value*>:Tt(24,49)=s12mSize:/1(0,3),0,32;mCapacity:/1(0,3),32,32;mData:/1(24,50)=*(24,35),64,32;__base_ctor::(24,51)=#(24,49),(0,6),(24,52)=*(24,49),(0,3),(0,6);:_ZN6MAUtil6VectorIPNS_7YAJLDom5ValueEEC2Ei;2A.;__comp_ctor::(24,51):_ZN6MAUtil6VectorIPNS_7YAJLDom5ValueEEC1Ei;2A.;__base_ctor::(24,53)=#(24,49),(0,6),(24,52),(24,54)=*(24,34),(0,3),(0,6);:_ZN6MAUtil6VectorIPNS_7YAJLDom5ValueEEC2EPKS3_i;2A.;__comp_ctor::(24,53):_ZN6MAUtil6VectorIPNS_7YAJLDom5ValueEEC1EPKS3_i;2A.;__base_ctor::(24,55)=#(24,49),(0,6),(24,52),(24,56)=&(24,57)=k(24,49),(0,6);:_ZN6MAUtil6VectorIPNS_7YAJLDom5ValueEEC2ERKS4_;2A.;__comp_ctor::(24,55):_ZN6MAUtil6VectorIPNS_7YAJLDom5ValueEEC1ERKS4_;2A.;__base_dtor::(24,58)=#(24,49),(0,6),(24,52),(0,6);:_ZN6MAUtil6VectorIPNS_7YAJLDom5ValueEED2Ev;2A.;__comp_dtor::(24,58):_ZN6MAUtil6VectorIPNS_7YAJLDom5ValueEED1Ev;2A.;operator=::(24,59)=#(24,49),(24,60)=&(24,49),(24,52),(24,56),(0,6);:_ZN6MAUtil6VectorIPNS_7YAJLDom5ValueEEaSERKS4_;2A.;add::(24,61)=#(24,49),(0,6),(24,52),(24,33),(0,6);:_ZN6MAUtil6VectorIPNS_7YAJLDom5ValueEE3addERKS3_;2A.(24,53):_ZN6MAUtil6VectorIPNS_7YAJLDom5ValueEE3addEPKS3_i;2A.;remove::(24,62)=#(24,49),(0,6),(24,52),(24,50),(0,6);:_ZN6MAUtil6VectorIPNS_7YAJLDom5ValueEE6removeEPS3_;2A.(24,63)=#(24,49),(0,6),(24,52),(0,3),(0,6);:_ZN6MAUtil6VectorIPNS_7YAJLDom5ValueEE6removeEi;2A.(24,64)=#(24,49),(0,6),(24,52),(0,3),(0,3),(0,6);:_ZN6MAUtil6VectorIPNS_7YAJLDom5ValueEE6removeEii;2A.;insert::(24,65)=#(24,49),(0,6),(24,52),(0,3),(24,35),(0,6);:_ZN6MAUtil6VectorIPNS_7YAJLDom5ValueEE6insertEiS3_;2A.;size::(24,66)=#(24,49),(0,3),(24,67)=*(24,57),(0,6);:_ZNK6MAUtil6VectorIPNS_7YAJLDom5ValueEE4sizeEv;2B.;resize::(24,63):_ZN6MAUtil6VectorIPNS_7YAJLDom5ValueEE6resizeEi;2A.;reserve::(24,63):_ZN6MAUtil6VectorIPNS_7YAJLDom5ValueEE7reserveEi;2A.;clear::(24,58):_ZN6MAUtil6VectorIPNS_7YAJLDom5ValueEE5clearEv;2A.;empty::(24,68)=#(24,49),(0,4),(24,67),(0,6);:_ZNK6MAUtil6VectorIPNS_7YAJLDom5ValueEE5emptyEv;2B.;capacity::(24,66):_ZNK6MAUtil6VectorIPNS_7YAJLDom5ValueEE8capacityEv;2B.;begin::(24,69)=#(24,49),(24,50),(24,52),(0,6);:_ZN6MAUtil6VectorIPNS_7YAJLDom5ValueEE5beginEv;2A.;end::(24,69):_ZN6MAUtil6VectorIPNS_7YAJLDom5ValueEE3endEv;2A.;begin::(24,70)=#(24,49),(24,54),(24,67),(0,6);:_ZNK6MAUtil6VectorIPNS_7YAJLDom5ValueEE5beginEv;2B.;end::(24,70):_ZNK6MAUtil6VectorIPNS_7YAJLDom5ValueEE3endEv;2B.;operator[]::(24,71)=#(24,49),(24,42),(24,52),(0,3),(0,6);:_ZN6MAUtil6VectorIPNS_7YAJLDom5ValueEEixEi;2A.(24,72)=#(24,49),(24,33),(24,67),(0,3),(0,6);:_ZNK6MAUtil6VectorIPNS_7YAJLDom5ValueEEixEi;2B.;pointer::(24,70):_ZNK6MAUtil6VectorIPNS_7YAJLDom5ValueEE7pointerEv;2B.(24,69):_ZN6MAUtil6VectorIPNS_7YAJLDom5ValueEE7pointerEv;2A.;;",128,0,95,0
	.stabn	162,0,0,0
	.stabn	162,0,0,0
	.stabs	"c:/MoSync/include/mastdlib.h",130,0,0,0
	.stabs	"div_t:Tt(25,1)=s8quot:(0,3),0,32;rem:(0,3),32,32;operator=::(25,2)=#(25,1),(25,3)=&(25,1),(25,4)=*(25,1),(25,5)=&(25,6)=k(25,1),(0,6);:_ZN5div_taSERKS_;2A.;__base_ctor::(25,7)=#(25,1),(0,6),(25,4),(25,5),(0,6);:_ZN5div_tC2ERKS_;2A.;__comp_ctor::(25,7):_ZN5div_tC1ERKS_;2A.;__base_ctor::(25,8)=#(25,1),(0,6),(25,4),(0,6);:_ZN5div_tC2Ev;2A.;__comp_ctor::(25,8):_ZN5div_tC1Ev;2A.;;",128,0,58,0
	.stabs	"div_t:t(25,9)=(25,1)",128,0,60,0
	.stabn	162,0,0,0
	.stabs	"c:/MoSync/include/NativeUI/Widgets.h",130,0,0,0
	.stabs	"c:/MoSync/include/NativeUI/ActivityIndicator.h",130,0,0,0
	.stabn	162,0,0,0
	.stabs	"c:/MoSync/include/NativeUI/Button.h",130,0,0,0
	.stabs	"c:/MoSync/include/NativeUI/TextWidget.h",130,0,0,0
	.stabn	162,0,0,0
	.stabs	"Vector<NativeUI::ButtonListener*>:Tt(28,1)=s12mSize:/1(0,3),0,32;mCapacity:/1(0,3),32,32;mData:/1(28,2)=*(28,3)=*(28,4)=xsButtonListener:,64,32;__base_ctor::(28,5)=#(28,1),(0,6),(28,6)=*(28,1),(0,3),(0,6);:_ZN6MAUtil6VectorIPN8NativeUI14ButtonListenerEEC2Ei;2A.;__comp_ctor::(28,5):_ZN6MAUtil6VectorIPN8NativeUI14ButtonListenerEEC1Ei;2A.;__base_ctor::(28,7)=#(28,1),(0,6),(28,6),(28,8)=*(28,9)=k(28,3),(0,3),(0,6);:_ZN6MAUtil6VectorIPN8NativeUI14ButtonListenerEEC2EPKS3_i;2A.;__comp_ctor::(28,7):_ZN6MAUtil6VectorIPN8NativeUI14ButtonListenerEEC1EPKS3_i;2A.;__base_ctor::(28,10)=#(28,1),(0,6),(28,6),(28,11)=&(28,12)=k(28,1),(0,6);:_ZN6MAUtil6VectorIPN8NativeUI14ButtonListenerEEC2ERKS4_;2A.;__comp_ctor::(28,10):_ZN6MAUtil6VectorIPN8NativeUI14ButtonListenerEEC1ERKS4_;2A.;__base_dtor::(28,13)=#(28,1),(0,6),(28,6),(0,6);:_ZN6MAUtil6VectorIPN8NativeUI14ButtonListenerEED2Ev;2A.;__comp_dtor::(28,13):_ZN6MAUtil6VectorIPN8NativeUI14ButtonListenerEED1Ev;2A.;operator=::(28,14)=#(28,1),(28,15)=&(28,1),(28,6),(28,11),(0,6);:_ZN6MAUtil6VectorIPN8NativeUI14ButtonListenerEEaSERKS4_;2A.;add::(28,16)=#(28,1),(0,6),(28,6),(28,17)=&(28,9),(0,6);:_ZN6MAUtil6VectorIPN8NativeUI14ButtonListenerEE3addERKS3_;2A.(28,7):_ZN6MAUtil6VectorIPN8NativeUI14ButtonListenerEE3addEPKS3_i;2A.;remove::(28,18)=#(28,1),(0,6),(28,6),(28,2),(0,6);:_ZN6MAUtil6VectorIPN8NativeUI14ButtonListenerEE6removeEPS3_;2A.(28,19)=#(28,1),(0,6),(28,6),(0,3),(0,6);:_ZN6MAUtil6VectorIPN8NativeUI14ButtonListenerEE6removeEi;2A.(28,20)=#(28,1),(0,6),(28,6),(0,3),(0,3),(0,6);:_ZN6MAUtil6VectorIPN8NativeUI14ButtonListenerEE6removeEii;2A.;insert::(28,21)=#(28,1),(0,6),(28,6),(0,3),(28,3),(0,6);:_ZN6MAUtil6VectorIPN8NativeUI14ButtonListenerEE6insertEiS3_;2A.;size::(28,22)=#(28,1),(0,3),(28,23)=*(28,12),(0,6);:_ZNK6MAUtil6VectorIPN8NativeUI14ButtonListenerEE4sizeEv;2B.;resize::(28,19):_ZN6MAUtil6VectorIPN8NativeUI14ButtonListenerEE6resizeEi;2A.;reserve::(28,19):_ZN6MAUtil6VectorIPN8NativeUI14ButtonListenerEE7reserveEi;2A.;clear::(28,13):_ZN6MAUtil6VectorIPN8NativeUI14ButtonListenerEE5clearEv;2A.;empty::(28,24)=#(28,1),(0,4),(28,23),(0,6);:_ZNK6MAUtil6VectorIPN8NativeUI14ButtonListenerEE5emptyEv;2B.;capacity::(28,22):_ZNK6MAUtil6VectorIPN8NativeUI14ButtonListenerEE8capacityEv;2B.;begin::(28,25)=#(28,1),(28,2),(28,6),(0,6);:_ZN6MAUtil6VectorIPN8NativeUI14ButtonListenerEE5beginEv;2A.;end::(28,25):_ZN6MAUtil6VectorIPN8NativeUI14ButtonListenerEE3endEv;2A.;begin::(28,26)=#(28,1),(28,8),(28,23),(0,6);:_ZNK6MAUtil6VectorIPN8NativeUI14ButtonListenerEE5beginEv;2B.;end::(28,26):_ZNK6MAUtil6VectorIPN8NativeUI14ButtonListenerEE3endEv;2B.;operator[]::(28,27)=#(28,1),(28,28)=&(28,3),(28,6),(0,3),(0,6);:_ZN6MAUtil6VectorIPN8NativeUI14ButtonListenerEEixEi;2A.(28,29)=#(28,1),(28,17),(28,23),(0,3),(0,6);:_ZNK6MAUtil6VectorIPN8NativeUI14ButtonListenerEEixEi;2B.;pointer::(28,26):_ZNK6MAUtil6VectorIPN8NativeUI14ButtonListenerEE7pointerEv;2B.(28,25):_ZN6MAUtil6VectorIPN8NativeUI14ButtonListenerEE7pointerEv;2A.;;",128,0,95,0
	.stabn	162,0,0,0
	.stabs	"c:/MoSync/include/NativeUI/ButtonListener.h",130,0,0,0
	.stabn	162,0,0,0
	.stabs	"c:/MoSync/include/NativeUI/CameraPreview.h",130,0,0,0
	.stabn	162,0,0,0
	.stabs	"c:/MoSync/include/NativeUI/Camera.h",130,0,0,0
	.stabs	"CAMERA_FLASH_MODE:t(32,1)=eFLASH_AUTO:0,FLASH_ON:1,FLASH_OFF:2,FLASH_TORCH:3,FLASH_UNDEFINED:4,;",128,0,53,0
	.stabs	"CAMERA_FOCUS_MODE:t(32,2)=eFOCUS_AUTO:10,FOCUS_INFINITY:11,FOCUS_MACRO:12,FOCUS_FIXED:13,FOCUS_UNDEFINED:14,;",128,0,64,0
	.stabs	"CAMERA_SNAPSHOT_FORMAT:t(32,3)=eSNAPSHOT_RAW:100,SNAPSHOT_JPEG:101,SNAPSHOT_UNKNOWN:102,;",128,0,73,0
	.stabs	"CameraSnapshotData:Tt(32,4)=s16dataHandle:(6,10),0,32;format:(32,3),32,32;imageSize:(0,17),64,32;resultCode:(0,3),96,32;makeFromEvent::(32,5)=f(32,6)=*(32,4):_ZN8NativeUI18CameraSnapshotData13makeFromEventERK7MAEvent;2A?;operator=::(32,7)=#(32,4),(32,8)=&(32,4),(32,6),(32,9)=&(32,10)=k(32,4),(0,6);:_ZN8NativeUI18CameraSnapshotDataaSERKS0_;2A.;__base_ctor::(32,11)=#(32,4),(0,6),(32,6),(32,9),(0,6);:_ZN8NativeUI18CameraSnapshotDataC2ERKS0_;2A.;__comp_ctor::(32,11):_ZN8NativeUI18CameraSnapshotDataC1ERKS0_;2A.;__base_ctor::(32,12)=#(32,4),(0,6),(32,6),(0,6);:_ZN8NativeUI18CameraSnapshotDataC2Ev;2A.;__comp_ctor::(32,12):_ZN8NativeUI18CameraSnapshotDataC1Ev;2A.;;",128,0,78,0
	.stabs	"CameraSnapshotData:t(32,13)=(32,4)",128,0,107,0
	.stabs	"CameraPreviewData:Tt(32,14)=s28frameBuffer:(32,15)=*(0,3),0,32;type:(0,3),32,32;rect:(6,36),64,128;resultCode:(0,3),192,32;operator=::(32,16)=#(32,14),(32,17)=&(32,14),(32,18)=*(32,14),(32,19)=&(32,20)=k(32,14),(0,6);:_ZN8NativeUI17CameraPreviewDataaSERKS0_;2A.;__base_ctor::(32,21)=#(32,14),(0,6),(32,18),(32,19),(0,6);:_ZN8NativeUI17CameraPreviewDataC2ERKS0_;2A.;__comp_ctor::(32,21):_ZN8NativeUI17CameraPreviewDataC1ERKS0_;2A.;__base_ctor::(32,22)=#(32,14),(0,6),(32,18),(0,6);:_ZN8NativeUI17CameraPreviewDataC2Ev;2A.;__comp_ctor::(32,22):_ZN8NativeUI17CameraPreviewDataC1Ev;2A.;;",128,0,112,0
	.stabs	"CameraPreviewData:t(32,23)=(32,14)",128,0,140,0
	.stabs	"Vector<NativeUI::CameraSnapshotListener*>:Tt(32,24)=s12mSize:/1(0,3),0,32;mCapacity:/1(0,3),32,32;mData:/1(32,25)=*(32,26)=*(32,27)=xsCameraSnapshotListener:,64,32;__base_ctor::(32,28)=#(32,24),(0,6),(32,29)=*(32,24),(0,3),(0,6);:_ZN6MAUtil6VectorIPN8NativeUI22CameraSnapshotListenerEEC2Ei;2A.;__comp_ctor::(32,28):_ZN6MAUtil6VectorIPN8NativeUI22CameraSnapshotListenerEEC1Ei;2A.;__base_ctor::(32,30)=#(32,24),(0,6),(32,29),(32,31)=*(32,32)=k(32,26),(0,3),(0,6);:_ZN6MAUtil6VectorIPN8NativeUI22CameraSnapshotListenerEEC2EPKS3_i;2A.;__comp_ctor::(32,30):_ZN6MAUtil6VectorIPN8NativeUI22CameraSnapshotListenerEEC1EPKS3_i;2A.;__base_ctor::(32,33)=#(32,24),(0,6),(32,29),(32,34)=&(32,35)=k(32,24),(0,6);:_ZN6MAUtil6VectorIPN8NativeUI22CameraSnapshotListenerEEC2ERKS4_;2A.;__comp_ctor::(32,33):_ZN6MAUtil6VectorIPN8NativeUI22CameraSnapshotListenerEEC1ERKS4_;2A.;__base_dtor::(32,36)=#(32,24),(0,6),(32,29),(0,6);:_ZN6MAUtil6VectorIPN8NativeUI22CameraSnapshotListenerEED2Ev;2A.;__comp_dtor::(32,36):_ZN6MAUtil6VectorIPN8NativeUI22CameraSnapshotListenerEED1Ev;2A.;operator=::(32,37)=#(32,24),(32,38)=&(32,24),(32,29),(32,34),(0,6);:_ZN6MAUtil6VectorIPN8NativeUI22CameraSnapshotListenerEEaSERKS4_;2A.;add::(32,39)=#(32,24),(0,6),(32,29),(32,40)=&(32,32),(0,6);:_ZN6MAUtil6VectorIPN8NativeUI22CameraSnapshotListenerEE3addERKS3_;2A.(32,30):_ZN6MAUtil6VectorIPN8NativeUI22CameraSnapshotListenerEE3addEPKS3_i;2A.;remove::(32,41)=#(32,24),(0,6),(32,29),(32,25),(0,6);:_ZN6MAUtil6VectorIPN8NativeUI22CameraSnapshotListenerEE6removeEPS3_;2A.(32,42)=#(32,24),(0,6),(32,29),(0,3),(0,6);:_ZN6MAUtil6VectorIPN8NativeUI22CameraSnapshotListenerEE6removeEi;2A.(32,43)=#(32,24),(0,6),(32,29),(0,3),(0,3),(0,6);:_ZN6MAUtil6VectorIPN8NativeUI22CameraSnapshotListenerEE6removeEii;2A.;insert::(32,44)=#(32,24),(0,6),(32,29),(0,3),(32,26),(0,6);:_ZN6MAUtil6VectorIPN8NativeUI22CameraSnapshotListenerEE6insertEiS3_;2A.;size::(32,45)=#(32,24),(0,3),(32,46)=*(32,35),(0,6);:_ZNK6MAUtil6VectorIPN8NativeUI22CameraSnapshotListenerEE4sizeEv;2B.;resize::(32,42):_ZN6MAUtil6VectorIPN8NativeUI22CameraSnapshotListenerEE6resizeEi;2A.;reserve::(32,42):_ZN6MAUtil6VectorIPN8NativeUI22CameraSnapshotListenerEE7reserveEi;2A.;clear::(32,36):_ZN6MAUtil6VectorIPN8NativeUI22CameraSnapshotListenerEE5clearEv;2A.;empty::(32,47)=#(32,24),(0,4),(32,46),(0,6);:_ZNK6MAUtil6VectorIPN8NativeUI22CameraSnapshotListenerEE5emptyEv;2B.;capacity::(32,45):_ZNK6MAUtil6VectorIPN8NativeUI22CameraSnapshotListenerEE8capacityEv;2B.;begin::(32,48)=#(32,24),(32,25),(32,29),(0,6);:_ZN6MAUtil6VectorIPN8NativeUI22CameraSnapshotListenerEE5beginEv;2A.;end::(32,48):_ZN6MAUtil6VectorIPN8NativeUI22CameraSnapshotListenerEE3endEv;2A.;begin::(32,49)=#(32,24),(32,31),(32,46),(0,6);:_ZNK6MAUtil6VectorIPN8NativeUI22CameraSnapshotListenerEE5beginEv;2B.;end::(32,49):_ZNK6MAUtil6VectorIPN8NativeUI22CameraSnapshotListenerEE3endEv;2B.;operator[]::(32,50)=#(32,24),(32,51)=&(32,26),(32,29),(0,3),(0,6);:_ZN6MAUtil6VectorIPN8NativeUI22CameraSnapshotListenerEEixEi;2A.(32,52)=#(32,24),(32,40),(32,46),(0,3),(0,6);:_ZNK6MAUtil6VectorIPN8NativeUI22CameraSnapshotListenerEEixEi;2B.;pointer::(32,49):_ZNK6MAUtil6VectorIPN8NativeUI22CameraSnapshotListenerEE7pointerEv;2B.(32,48):_ZN6MAUtil6VectorIPN8NativeUI22CameraSnapshotListenerEE7pointerEv;2A.;;",128,0,95,0
	.stabn	162,0,0,0
	.stabs	"c:/MoSync/include/NativeUI/CheckBox.h",130,0,0,0
	.stabs	"Vector<NativeUI::CheckBoxListener*>:Tt(33,1)=s12mSize:/1(0,3),0,32;mCapacity:/1(0,3),32,32;mData:/1(33,2)=*(33,3)=*(33,4)=xsCheckBoxListener:,64,32;__base_ctor::(33,5)=#(33,1),(0,6),(33,6)=*(33,1),(0,3),(0,6);:_ZN6MAUtil6VectorIPN8NativeUI16CheckBoxListenerEEC2Ei;2A.;__comp_ctor::(33,5):_ZN6MAUtil6VectorIPN8NativeUI16CheckBoxListenerEEC1Ei;2A.;__base_ctor::(33,7)=#(33,1),(0,6),(33,6),(33,8)=*(33,9)=k(33,3),(0,3),(0,6);:_ZN6MAUtil6VectorIPN8NativeUI16CheckBoxListenerEEC2EPKS3_i;2A.;__comp_ctor::(33,7):_ZN6MAUtil6VectorIPN8NativeUI16CheckBoxListenerEEC1EPKS3_i;2A.;__base_ctor::(33,10)=#(33,1),(0,6),(33,6),(33,11)=&(33,12)=k(33,1),(0,6);:_ZN6MAUtil6VectorIPN8NativeUI16CheckBoxListenerEEC2ERKS4_;2A.;__comp_ctor::(33,10):_ZN6MAUtil6VectorIPN8NativeUI16CheckBoxListenerEEC1ERKS4_;2A.;__base_dtor::(33,13)=#(33,1),(0,6),(33,6),(0,6);:_ZN6MAUtil6VectorIPN8NativeUI16CheckBoxListenerEED2Ev;2A.;__comp_dtor::(33,13):_ZN6MAUtil6VectorIPN8NativeUI16CheckBoxListenerEED1Ev;2A.;operator=::(33,14)=#(33,1),(33,15)=&(33,1),(33,6),(33,11),(0,6);:_ZN6MAUtil6VectorIPN8NativeUI16CheckBoxListenerEEaSERKS4_;2A.;add::(33,16)=#(33,1),(0,6),(33,6),(33,17)=&(33,9),(0,6);:_ZN6MAUtil6VectorIPN8NativeUI16CheckBoxListenerEE3addERKS3_;2A.(33,7):_ZN6MAUtil6VectorIPN8NativeUI16CheckBoxListenerEE3addEPKS3_i;2A.;remove::(33,18)=#(33,1),(0,6),(33,6),(33,2),(0,6);:_ZN6MAUtil6VectorIPN8NativeUI16CheckBoxListenerEE6removeEPS3_;2A.(33,19)=#(33,1),(0,6),(33,6),(0,3),(0,6);:_ZN6MAUtil6VectorIPN8NativeUI16CheckBoxListenerEE6removeEi;2A.(33,20)=#(33,1),(0,6),(33,6),(0,3),(0,3),(0,6);:_ZN6MAUtil6VectorIPN8NativeUI16CheckBoxListenerEE6removeEii;2A.;insert::(33,21)=#(33,1),(0,6),(33,6),(0,3),(33,3),(0,6);:_ZN6MAUtil6VectorIPN8NativeUI16CheckBoxListenerEE6insertEiS3_;2A.;size::(33,22)=#(33,1),(0,3),(33,23)=*(33,12),(0,6);:_ZNK6MAUtil6VectorIPN8NativeUI16CheckBoxListenerEE4sizeEv;2B.;resize::(33,19):_ZN6MAUtil6VectorIPN8NativeUI16CheckBoxListenerEE6resizeEi;2A.;reserve::(33,19):_ZN6MAUtil6VectorIPN8NativeUI16CheckBoxListenerEE7reserveEi;2A.;clear::(33,13):_ZN6MAUtil6VectorIPN8NativeUI16CheckBoxListenerEE5clearEv;2A.;empty::(33,24)=#(33,1),(0,4),(33,23),(0,6);:_ZNK6MAUtil6VectorIPN8NativeUI16CheckBoxListenerEE5emptyEv;2B.;capacity::(33,22):_ZNK6MAUtil6VectorIPN8NativeUI16CheckBoxListenerEE8capacityEv;2B.;begin::(33,25)=#(33,1),(33,2),(33,6),(0,6);:_ZN6MAUtil6VectorIPN8NativeUI16CheckBoxListenerEE5beginEv;2A.;end::(33,25):_ZN6MAUtil6VectorIPN8NativeUI16CheckBoxListenerEE3endEv;2A.;begin::(33,26)=#(33,1),(33,8),(33,23),(0,6);:_ZNK6MAUtil6VectorIPN8NativeUI16CheckBoxListenerEE5beginEv;2B.;end::(33,26):_ZNK6MAUtil6VectorIPN8NativeUI16CheckBoxListenerEE3endEv;2B.;operator[]::(33,27)=#(33,1),(33,28)=&(33,3),(33,6),(0,3),(0,6);:_ZN6MAUtil6VectorIPN8NativeUI16CheckBoxListenerEEixEi;2A.(33,29)=#(33,1),(33,17),(33,23),(0,3),(0,6);:_ZNK6MAUtil6VectorIPN8NativeUI16CheckBoxListenerEEixEi;2B.;pointer::(33,26):_ZNK6MAUtil6VectorIPN8NativeUI16CheckBoxListenerEE7pointerEv;2B.(33,25):_ZN6MAUtil6VectorIPN8NativeUI16CheckBoxListenerEE7pointerEv;2A.;;",128,0,95,0
	.stabn	162,0,0,0
	.stabs	"c:/MoSync/include/NativeUI/CheckBoxListener.h",130,0,0,0
	.stabn	162,0,0,0
	.stabs	"c:/MoSync/include/NativeUI/CustomPicker.h",130,0,0,0
	.stabs	"Vector<NativeUI::CustomPickerListener*>:Tt(35,1)=s12mSize:/1(0,3),0,32;mCapacity:/1(0,3),32,32;mData:/1(35,2)=*(35,3)=*(35,4)=xsCustomPickerListener:,64,32;__base_ctor::(35,5)=#(35,1),(0,6),(35,6)=*(35,1),(0,3),(0,6);:_ZN6MAUtil6VectorIPN8NativeUI20CustomPickerListenerEEC2Ei;2A.;__comp_ctor::(35,5):_ZN6MAUtil6VectorIPN8NativeUI20CustomPickerListenerEEC1Ei;2A.;__base_ctor::(35,7)=#(35,1),(0,6),(35,6),(35,8)=*(35,9)=k(35,3),(0,3),(0,6);:_ZN6MAUtil6VectorIPN8NativeUI20CustomPickerListenerEEC2EPKS3_i;2A.;__comp_ctor::(35,7):_ZN6MAUtil6VectorIPN8NativeUI20CustomPickerListenerEEC1EPKS3_i;2A.;__base_ctor::(35,10)=#(35,1),(0,6),(35,6),(35,11)=&(35,12)=k(35,1),(0,6);:_ZN6MAUtil6VectorIPN8NativeUI20CustomPickerListenerEEC2ERKS4_;2A.;__comp_ctor::(35,10):_ZN6MAUtil6VectorIPN8NativeUI20CustomPickerListenerEEC1ERKS4_;2A.;__base_dtor::(35,13)=#(35,1),(0,6),(35,6),(0,6);:_ZN6MAUtil6VectorIPN8NativeUI20CustomPickerListenerEED2Ev;2A.;__comp_dtor::(35,13):_ZN6MAUtil6VectorIPN8NativeUI20CustomPickerListenerEED1Ev;2A.;operator=::(35,14)=#(35,1),(35,15)=&(35,1),(35,6),(35,11),(0,6);:_ZN6MAUtil6VectorIPN8NativeUI20CustomPickerListenerEEaSERKS4_;2A.;add::(35,16)=#(35,1),(0,6),(35,6),(35,17)=&(35,9),(0,6);:_ZN6MAUtil6VectorIPN8NativeUI20CustomPickerListenerEE3addERKS3_;2A.(35,7):_ZN6MAUtil6VectorIPN8NativeUI20CustomPickerListenerEE3addEPKS3_i;2A.;remove::(35,18)=#(35,1),(0,6),(35,6),(35,2),(0,6);:_ZN6MAUtil6VectorIPN8NativeUI20CustomPickerListenerEE6removeEPS3_;2A.(35,19)=#(35,1),(0,6),(35,6),(0,3),(0,6);:_ZN6MAUtil6VectorIPN8NativeUI20CustomPickerListenerEE6removeEi;2A.(35,20)=#(35,1),(0,6),(35,6),(0,3),(0,3),(0,6);:_ZN6MAUtil6VectorIPN8NativeUI20CustomPickerListenerEE6removeEii;2A.;insert::(35,21)=#(35,1),(0,6),(35,6),(0,3),(35,3),(0,6);:_ZN6MAUtil6VectorIPN8NativeUI20CustomPickerListenerEE6insertEiS3_;2A.;size::(35,22)=#(35,1),(0,3),(35,23)=*(35,12),(0,6);:_ZNK6MAUtil6VectorIPN8NativeUI20CustomPickerListenerEE4sizeEv;2B.;resize::(35,19):_ZN6MAUtil6VectorIPN8NativeUI20CustomPickerListenerEE6resizeEi;2A.;reserve::(35,19):_ZN6MAUtil6VectorIPN8NativeUI20CustomPickerListenerEE7reserveEi;2A.;clear::(35,13):_ZN6MAUtil6VectorIPN8NativeUI20CustomPickerListenerEE5clearEv;2A.;empty::(35,24)=#(35,1),(0,4),(35,23),(0,6);:_ZNK6MAUtil6VectorIPN8NativeUI20CustomPickerListenerEE5emptyEv;2B.;capacity::(35,22):_ZNK6MAUtil6VectorIPN8NativeUI20CustomPickerListenerEE8capacityEv;2B.;begin::(35,25)=#(35,1),(35,2),(35,6),(0,6);:_ZN6MAUtil6VectorIPN8NativeUI20CustomPickerListenerEE5beginEv;2A.;end::(35,25):_ZN6MAUtil6VectorIPN8NativeUI20CustomPickerListenerEE3endEv;2A.;begin::(35,26)=#(35,1),(35,8),(35,23),(0,6);:_ZNK6MAUtil6VectorIPN8NativeUI20CustomPickerListenerEE5beginEv;2B.;end::(35,26):_ZNK6MAUtil6VectorIPN8NativeUI20CustomPickerListenerEE3endEv;2B.;operator[]::(35,27)=#(35,1),(35,28)=&(35,3),(35,6),(0,3),(0,6);:_ZN6MAUtil6VectorIPN8NativeUI20CustomPickerListenerEEixEi;2A.(35,29)=#(35,1),(35,17),(35,23),(0,3),(0,6);:_ZNK6MAUtil6VectorIPN8NativeUI20CustomPickerListenerEEixEi;2B.;pointer::(35,26):_ZNK6MAUtil6VectorIPN8NativeUI20CustomPickerListenerEE7pointerEv;2B.(35,25):_ZN6MAUtil6VectorIPN8NativeUI20CustomPickerListenerEE7pointerEv;2A.;;",128,0,95,0
	.stabn	162,0,0,0
	.stabs	"c:/MoSync/include/NativeUI/DatePicker.h",130,0,0,0
	.stabs	"Date:Tt(36,1)=s12day:(0,3),0,32;month:(0,3),32,32;year:(0,3),64,32;__base_ctor::(36,2)=#(36,1),(0,6),(36,3)=*(36,1),(0,3),(0,3),(0,3),(0,6);:_ZN8NativeUI4DateC2Eiii;2A.;__comp_ctor::(36,2):_ZN8NativeUI4DateC1Eiii;2A.;__base_ctor::(36,4)=#(36,1),(0,6),(36,3),(0,6);:_ZN8NativeUI4DateC2Ev;2A.;__comp_ctor::(36,4):_ZN8NativeUI4DateC1Ev;2A.;operator=::(36,5)=#(36,1),(36,6)=&(36,1),(36,3),(36,7)=&(36,8)=k(36,1),(0,6);:_ZN8NativeUI4DateaSERKS0_;2A.;__base_ctor::(36,9)=#(36,1),(0,6),(36,3),(36,7),(0,6);:_ZN8NativeUI4DateC2ERKS0_;2A.;__comp_ctor::(36,9):_ZN8NativeUI4DateC1ERKS0_;2A.;;",128,0,52,0
	.stabs	"Vector<NativeUI::DatePickerListener*>:Tt(36,10)=s12mSize:/1(0,3),0,32;mCapacity:/1(0,3),32,32;mData:/1(36,11)=*(36,12)=*(36,13)=xsDatePickerListener:,64,32;__base_ctor::(36,14)=#(36,10),(0,6),(36,15)=*(36,10),(0,3),(0,6);:_ZN6MAUtil6VectorIPN8NativeUI18DatePickerListenerEEC2Ei;2A.;__comp_ctor::(36,14):_ZN6MAUtil6VectorIPN8NativeUI18DatePickerListenerEEC1Ei;2A.;__base_ctor::(36,16)=#(36,10),(0,6),(36,15),(36,17)=*(36,18)=k(36,12),(0,3),(0,6);:_ZN6MAUtil6VectorIPN8NativeUI18DatePickerListenerEEC2EPKS3_i;2A.;__comp_ctor::(36,16):_ZN6MAUtil6VectorIPN8NativeUI18DatePickerListenerEEC1EPKS3_i;2A.;__base_ctor::(36,19)=#(36,10),(0,6),(36,15),(36,20)=&(36,21)=k(36,10),(0,6);:_ZN6MAUtil6VectorIPN8NativeUI18DatePickerListenerEEC2ERKS4_;2A.;__comp_ctor::(36,19):_ZN6MAUtil6VectorIPN8NativeUI18DatePickerListenerEEC1ERKS4_;2A.;__base_dtor::(36,22)=#(36,10),(0,6),(36,15),(0,6);:_ZN6MAUtil6VectorIPN8NativeUI18DatePickerListenerEED2Ev;2A.;__comp_dtor::(36,22):_ZN6MAUtil6VectorIPN8NativeUI18DatePickerListenerEED1Ev;2A.;operator=::(36,23)=#(36,10),(36,24)=&(36,10),(36,15),(36,20),(0,6);:_ZN6MAUtil6VectorIPN8NativeUI18DatePickerListenerEEaSERKS4_;2A.;add::(36,25)=#(36,10),(0,6),(36,15),(36,26)=&(36,18),(0,6);:_ZN6MAUtil6VectorIPN8NativeUI18DatePickerListenerEE3addERKS3_;2A.(36,16):_ZN6MAUtil6VectorIPN8NativeUI18DatePickerListenerEE3addEPKS3_i;2A.;remove::(36,27)=#(36,10),(0,6),(36,15),(36,11),(0,6);:_ZN6MAUtil6VectorIPN8NativeUI18DatePickerListenerEE6removeEPS3_;2A.(36,28)=#(36,10),(0,6),(36,15),(0,3),(0,6);:_ZN6MAUtil6VectorIPN8NativeUI18DatePickerListenerEE6removeEi;2A.(36,29)=#(36,10),(0,6),(36,15),(0,3),(0,3),(0,6);:_ZN6MAUtil6VectorIPN8NativeUI18DatePickerListenerEE6removeEii;2A.;insert::(36,30)=#(36,10),(0,6),(36,15),(0,3),(36,12),(0,6);:_ZN6MAUtil6VectorIPN8NativeUI18DatePickerListenerEE6insertEiS3_;2A.;size::(36,31)=#(36,10),(0,3),(36,32)=*(36,21),(0,6);:_ZNK6MAUtil6VectorIPN8NativeUI18DatePickerListenerEE4sizeEv;2B.;resize::(36,28):_ZN6MAUtil6VectorIPN8NativeUI18DatePickerListenerEE6resizeEi;2A.;reserve::(36,28):_ZN6MAUtil6VectorIPN8NativeUI18DatePickerListenerEE7reserveEi;2A.;clear::(36,22):_ZN6MAUtil6VectorIPN8NativeUI18DatePickerListenerEE5clearEv;2A.;empty::(36,33)=#(36,10),(0,4),(36,32),(0,6);:_ZNK6MAUtil6VectorIPN8NativeUI18DatePickerListenerEE5emptyEv;2B.;capacity::(36,31):_ZNK6MAUtil6VectorIPN8NativeUI18DatePickerListenerEE8capacityEv;2B.;begin::(36,34)=#(36,10),(36,11),(36,15),(0,6);:_ZN6MAUtil6VectorIPN8NativeUI18DatePickerListenerEE5beginEv;2A.;end::(36,34):_ZN6MAUtil6VectorIPN8NativeUI18DatePickerListenerEE3endEv;2A.;begin::(36,35)=#(36,10),(36,17),(36,32),(0,6);:_ZNK6MAUtil6VectorIPN8NativeUI18DatePickerListenerEE5beginEv;2B.;end::(36,35):_ZNK6MAUtil6VectorIPN8NativeUI18DatePickerListenerEE3endEv;2B.;operator[]::(36,36)=#(36,10),(36,37)=&(36,12),(36,15),(0,3),(0,6);:_ZN6MAUtil6VectorIPN8NativeUI18DatePickerListenerEEixEi;2A.(36,38)=#(36,10),(36,26),(36,32),(0,3),(0,6);:_ZNK6MAUtil6VectorIPN8NativeUI18DatePickerListenerEEixEi;2B.;pointer::(36,35):_ZNK6MAUtil6VectorIPN8NativeUI18DatePickerListenerEE7pointerEv;2B.(36,34):_ZN6MAUtil6VectorIPN8NativeUI18DatePickerListenerEE7pointerEv;2A.;;",128,0,95,0
	.stabn	162,0,0,0
	.stabs	"c:/MoSync/include/NativeUI/DatePickerListener.h",130,0,0,0
	.stabn	162,0,0,0
	.stabs	"c:/MoSync/include/NativeUI/Dialog.h",130,0,0,0
	.stabs	"Vector<NativeUI::DialogListener*>:Tt(38,1)=s12mSize:/1(0,3),0,32;mCapacity:/1(0,3),32,32;mData:/1(38,2)=*(38,3)=*(38,4)=xsDialogListener:,64,32;__base_ctor::(38,5)=#(38,1),(0,6),(38,6)=*(38,1),(0,3),(0,6);:_ZN6MAUtil6VectorIPN8NativeUI14DialogListenerEEC2Ei;2A.;__comp_ctor::(38,5):_ZN6MAUtil6VectorIPN8NativeUI14DialogListenerEEC1Ei;2A.;__base_ctor::(38,7)=#(38,1),(0,6),(38,6),(38,8)=*(38,9)=k(38,3),(0,3),(0,6);:_ZN6MAUtil6VectorIPN8NativeUI14DialogListenerEEC2EPKS3_i;2A.;__comp_ctor::(38,7):_ZN6MAUtil6VectorIPN8NativeUI14DialogListenerEEC1EPKS3_i;2A.;__base_ctor::(38,10)=#(38,1),(0,6),(38,6),(38,11)=&(38,12)=k(38,1),(0,6);:_ZN6MAUtil6VectorIPN8NativeUI14DialogListenerEEC2ERKS4_;2A.;__comp_ctor::(38,10):_ZN6MAUtil6VectorIPN8NativeUI14DialogListenerEEC1ERKS4_;2A.;__base_dtor::(38,13)=#(38,1),(0,6),(38,6),(0,6);:_ZN6MAUtil6VectorIPN8NativeUI14DialogListenerEED2Ev;2A.;__comp_dtor::(38,13):_ZN6MAUtil6VectorIPN8NativeUI14DialogListenerEED1Ev;2A.;operator=::(38,14)=#(38,1),(38,15)=&(38,1),(38,6),(38,11),(0,6);:_ZN6MAUtil6VectorIPN8NativeUI14DialogListenerEEaSERKS4_;2A.;add::(38,16)=#(38,1),(0,6),(38,6),(38,17)=&(38,9),(0,6);:_ZN6MAUtil6VectorIPN8NativeUI14DialogListenerEE3addERKS3_;2A.(38,7):_ZN6MAUtil6VectorIPN8NativeUI14DialogListenerEE3addEPKS3_i;2A.;remove::(38,18)=#(38,1),(0,6),(38,6),(38,2),(0,6);:_ZN6MAUtil6VectorIPN8NativeUI14DialogListenerEE6removeEPS3_;2A.(38,19)=#(38,1),(0,6),(38,6),(0,3),(0,6);:_ZN6MAUtil6VectorIPN8NativeUI14DialogListenerEE6removeEi;2A.(38,20)=#(38,1),(0,6),(38,6),(0,3),(0,3),(0,6);:_ZN6MAUtil6VectorIPN8NativeUI14DialogListenerEE6removeEii;2A.;insert::(38,21)=#(38,1),(0,6),(38,6),(0,3),(38,3),(0,6);:_ZN6MAUtil6VectorIPN8NativeUI14DialogListenerEE6insertEiS3_;2A.;size::(38,22)=#(38,1),(0,3),(38,23)=*(38,12),(0,6);:_ZNK6MAUtil6VectorIPN8NativeUI14DialogListenerEE4sizeEv;2B.;resize::(38,19):_ZN6MAUtil6VectorIPN8NativeUI14DialogListenerEE6resizeEi;2A.;reserve::(38,19):_ZN6MAUtil6VectorIPN8NativeUI14DialogListenerEE7reserveEi;2A.;clear::(38,13):_ZN6MAUtil6VectorIPN8NativeUI14DialogListenerEE5clearEv;2A.;empty::(38,24)=#(38,1),(0,4),(38,23),(0,6);:_ZNK6MAUtil6VectorIPN8NativeUI14DialogListenerEE5emptyEv;2B.;capacity::(38,22):_ZNK6MAUtil6VectorIPN8NativeUI14DialogListenerEE8capacityEv;2B.;begin::(38,25)=#(38,1),(38,2),(38,6),(0,6);:_ZN6MAUtil6VectorIPN8NativeUI14DialogListenerEE5beginEv;2A.;end::(38,25):_ZN6MAUtil6VectorIPN8NativeUI14DialogListenerEE3endEv;2A.;begin::(38,26)=#(38,1),(38,8),(38,23),(0,6);:_ZNK6MAUtil6VectorIPN8NativeUI14DialogListenerEE5beginEv;2B.;end::(38,26):_ZNK6MAUtil6VectorIPN8NativeUI14DialogListenerEE3endEv;2B.;operator[]::(38,27)=#(38,1),(38,28)=&(38,3),(38,6),(0,3),(0,6);:_ZN6MAUtil6VectorIPN8NativeUI14DialogListenerEEixEi;2A.(38,29)=#(38,1),(38,17),(38,23),(0,3),(0,6);:_ZNK6MAUtil6VectorIPN8NativeUI14DialogListenerEEixEi;2B.;pointer::(38,26):_ZNK6MAUtil6VectorIPN8NativeUI14DialogListenerEE7pointerEv;2B.(38,25):_ZN6MAUtil6VectorIPN8NativeUI14DialogListenerEE7pointerEv;2A.;;",128,0,95,0
	.stabn	162,0,0,0
	.stabs	"c:/MoSync/include/NativeUI/DialogListener.h",130,0,0,0
	.stabn	162,0,0,0
	.stabs	"c:/MoSync/include/NativeUI/EditBox.h",130,0,0,0
	.stabs	"EditBoxMode:t(40,1)=eEDIT_BOX_MODE_TEXT:0,EDIT_BOX_MODE_PASSWORD:1,;",128,0,53,0
	.stabs	"EditBoxInputMode:t(40,2)=eEDIT_BOX_INPUT_MODE_ANY:0,EDIT_BOX_INPUT_MODE_EMAILADDR:1,EDIT_BOX_INPUT_MODE_NUMERIC:2,EDIT_BOX_INPUT_MODE_PHONENUMBER:3,EDIT_BOX_INPUT_MODE_URL:4,EDIT_BOX_INPUT_MODE_DECIMAL:5,EDIT_BOX_INPUT_MODE_SINGLE_LINE:6,;",128,0,63,0
	.stabs	"EditBoxInputFlag:t(40,3)=eEDIT_BOX_INPUT_FLAG_PASSWORD:0,EDIT_BOX_INPUT_FLAG_SENSITIVE:1,EDIT_BOX_INPUT_FLAG_INITIAL_CAPS_WORD:2,EDIT_BOX_INPUT_FLAG_INITIAL_CAPS_SENTENCE:3,EDIT_BOX_INPUT_GLAG_INITIAL_CAPS_ALL_CHARACTERS:4,;",128,0,99,0
	.stabs	"EditBoxAutocorrectionType:t(40,4)=eEDIT_BOX_AUTOCORRECTION_TYPE_DEFAULT:0,EDIT_BOX_AUTOCORRECTION_TYPE_ENABLE:1,EDIT_BOX_AUTOCORRECTION_TYPE_DISABLE:2,;",128,0,133,0
	.stabs	"EditBoxCategory:t(40,5)=eEDIT_BOX_SINGLE_LINE:0,EDIT_BOX_MULTI_LINE:1,;",128,0,157,0
	.stabs	"Vector<NativeUI::EditBoxListener*>:Tt(40,6)=s12mSize:/1(0,3),0,32;mCapacity:/1(0,3),32,32;mData:/1(40,7)=*(40,8)=*(40,9)=xsEditBoxListener:,64,32;__base_ctor::(40,10)=#(40,6),(0,6),(40,11)=*(40,6),(0,3),(0,6);:_ZN6MAUtil6VectorIPN8NativeUI15EditBoxListenerEEC2Ei;2A.;__comp_ctor::(40,10):_ZN6MAUtil6VectorIPN8NativeUI15EditBoxListenerEEC1Ei;2A.;__base_ctor::(40,12)=#(40,6),(0,6),(40,11),(40,13)=*(40,14)=k(40,8),(0,3),(0,6);:_ZN6MAUtil6VectorIPN8NativeUI15EditBoxListenerEEC2EPKS3_i;2A.;__comp_ctor::(40,12):_ZN6MAUtil6VectorIPN8NativeUI15EditBoxListenerEEC1EPKS3_i;2A.;__base_ctor::(40,15)=#(40,6),(0,6),(40,11),(40,16)=&(40,17)=k(40,6),(0,6);:_ZN6MAUtil6VectorIPN8NativeUI15EditBoxListenerEEC2ERKS4_;2A.;__comp_ctor::(40,15):_ZN6MAUtil6VectorIPN8NativeUI15EditBoxListenerEEC1ERKS4_;2A.;__base_dtor::(40,18)=#(40,6),(0,6),(40,11),(0,6);:_ZN6MAUtil6VectorIPN8NativeUI15EditBoxListenerEED2Ev;2A.;__comp_dtor::(40,18):_ZN6MAUtil6VectorIPN8NativeUI15EditBoxListenerEED1Ev;2A.;operator=::(40,19)=#(40,6),(40,20)=&(40,6),(40,11),(40,16),(0,6);:_ZN6MAUtil6VectorIPN8NativeUI15EditBoxListenerEEaSERKS4_;2A.;add::(40,21)=#(40,6),(0,6),(40,11),(40,22)=&(40,14),(0,6);:_ZN6MAUtil6VectorIPN8NativeUI15EditBoxListenerEE3addERKS3_;2A.(40,12):_ZN6MAUtil6VectorIPN8NativeUI15EditBoxListenerEE3addEPKS3_i;2A.;remove::(40,23)=#(40,6),(0,6),(40,11),(40,7),(0,6);:_ZN6MAUtil6VectorIPN8NativeUI15EditBoxListenerEE6removeEPS3_;2A.(40,24)=#(40,6),(0,6),(40,11),(0,3),(0,6);:_ZN6MAUtil6VectorIPN8NativeUI15EditBoxListenerEE6removeEi;2A.(40,25)=#(40,6),(0,6),(40,11),(0,3),(0,3),(0,6);:_ZN6MAUtil6VectorIPN8NativeUI15EditBoxListenerEE6removeEii;2A.;insert::(40,26)=#(40,6),(0,6),(40,11),(0,3),(40,8),(0,6);:_ZN6MAUtil6VectorIPN8NativeUI15EditBoxListenerEE6insertEiS3_;2A.;size::(40,27)=#(40,6),(0,3),(40,28)=*(40,17),(0,6);:_ZNK6MAUtil6VectorIPN8NativeUI15EditBoxListenerEE4sizeEv;2B.;resize::(40,24):_ZN6MAUtil6VectorIPN8NativeUI15EditBoxListenerEE6resizeEi;2A.;reserve::(40,24):_ZN6MAUtil6VectorIPN8NativeUI15EditBoxListenerEE7reserveEi;2A.;clear::(40,18):_ZN6MAUtil6VectorIPN8NativeUI15EditBoxListenerEE5clearEv;2A.;empty::(40,29)=#(40,6),(0,4),(40,28),(0,6);:_ZNK6MAUtil6VectorIPN8NativeUI15EditBoxListenerEE5emptyEv;2B.;capacity::(40,27):_ZNK6MAUtil6VectorIPN8NativeUI15EditBoxListenerEE8capacityEv;2B.;begin::(40,30)=#(40,6),(40,7),(40,11),(0,6);:_ZN6MAUtil6VectorIPN8NativeUI15EditBoxListenerEE5beginEv;2A.;end::(40,30):_ZN6MAUtil6VectorIPN8NativeUI15EditBoxListenerEE3endEv;2A.;begin::(40,31)=#(40,6),(40,13),(40,28),(0,6);:_ZNK6MAUtil6VectorIPN8NativeUI15EditBoxListenerEE5beginEv;2B.;end::(40,31):_ZNK6MAUtil6VectorIPN8NativeUI15EditBoxListenerEE3endEv;2B.;operator[]::(40,32)=#(40,6),(40,33)=&(40,8),(40,11),(0,3),(0,6);:_ZN6MAUtil6VectorIPN8NativeUI15EditBoxListenerEEixEi;2A.(40,34)=#(40,6),(40,22),(40,28),(0,3),(0,6);:_ZNK6MAUtil6VectorIPN8NativeUI15EditBoxListenerEEixEi;2B.;pointer::(40,31):_ZNK6MAUtil6VectorIPN8NativeUI15EditBoxListenerEE7pointerEv;2B.(40,30):_ZN6MAUtil6VectorIPN8NativeUI15EditBoxListenerEE7pointerEv;2A.;;",128,0,95,0
	.stabn	162,0,0,0
	.stabs	"c:/MoSync/include/NativeUI/EditBoxListener.h",130,0,0,0
	.stabn	162,0,0,0
	.stabs	"c:/MoSync/include/NativeUI/GLView.h",130,0,0,0
	.stabs	"Vector<NativeUI::GLViewListener*>:Tt(42,1)=s12mSize:/1(0,3),0,32;mCapacity:/1(0,3),32,32;mData:/1(42,2)=*(42,3)=*(42,4)=xsGLViewListener:,64,32;__base_ctor::(42,5)=#(42,1),(0,6),(42,6)=*(42,1),(0,3),(0,6);:_ZN6MAUtil6VectorIPN8NativeUI14GLViewListenerEEC2Ei;2A.;__comp_ctor::(42,5):_ZN6MAUtil6VectorIPN8NativeUI14GLViewListenerEEC1Ei;2A.;__base_ctor::(42,7)=#(42,1),(0,6),(42,6),(42,8)=*(42,9)=k(42,3),(0,3),(0,6);:_ZN6MAUtil6VectorIPN8NativeUI14GLViewListenerEEC2EPKS3_i;2A.;__comp_ctor::(42,7):_ZN6MAUtil6VectorIPN8NativeUI14GLViewListenerEEC1EPKS3_i;2A.;__base_ctor::(42,10)=#(42,1),(0,6),(42,6),(42,11)=&(42,12)=k(42,1),(0,6);:_ZN6MAUtil6VectorIPN8NativeUI14GLViewListenerEEC2ERKS4_;2A.;__comp_ctor::(42,10):_ZN6MAUtil6VectorIPN8NativeUI14GLViewListenerEEC1ERKS4_;2A.;__base_dtor::(42,13)=#(42,1),(0,6),(42,6),(0,6);:_ZN6MAUtil6VectorIPN8NativeUI14GLViewListenerEED2Ev;2A.;__comp_dtor::(42,13):_ZN6MAUtil6VectorIPN8NativeUI14GLViewListenerEED1Ev;2A.;operator=::(42,14)=#(42,1),(42,15)=&(42,1),(42,6),(42,11),(0,6);:_ZN6MAUtil6VectorIPN8NativeUI14GLViewListenerEEaSERKS4_;2A.;add::(42,16)=#(42,1),(0,6),(42,6),(42,17)=&(42,9),(0,6);:_ZN6MAUtil6VectorIPN8NativeUI14GLViewListenerEE3addERKS3_;2A.(42,7):_ZN6MAUtil6VectorIPN8NativeUI14GLViewListenerEE3addEPKS3_i;2A.;remove::(42,18)=#(42,1),(0,6),(42,6),(42,2),(0,6);:_ZN6MAUtil6VectorIPN8NativeUI14GLViewListenerEE6removeEPS3_;2A.(42,19)=#(42,1),(0,6),(42,6),(0,3),(0,6);:_ZN6MAUtil6VectorIPN8NativeUI14GLViewListenerEE6removeEi;2A.(42,20)=#(42,1),(0,6),(42,6),(0,3),(0,3),(0,6);:_ZN6MAUtil6VectorIPN8NativeUI14GLViewListenerEE6removeEii;2A.;insert::(42,21)=#(42,1),(0,6),(42,6),(0,3),(42,3),(0,6);:_ZN6MAUtil6VectorIPN8NativeUI14GLViewListenerEE6insertEiS3_;2A.;size::(42,22)=#(42,1),(0,3),(42,23)=*(42,12),(0,6);:_ZNK6MAUtil6VectorIPN8NativeUI14GLViewListenerEE4sizeEv;2B.;resize::(42,19):_ZN6MAUtil6VectorIPN8NativeUI14GLViewListenerEE6resizeEi;2A.;reserve::(42,19):_ZN6MAUtil6VectorIPN8NativeUI14GLViewListenerEE7reserveEi;2A.;clear::(42,13):_ZN6MAUtil6VectorIPN8NativeUI14GLViewListenerEE5clearEv;2A.;empty::(42,24)=#(42,1),(0,4),(42,23),(0,6);:_ZNK6MAUtil6VectorIPN8NativeUI14GLViewListenerEE5emptyEv;2B.;capacity::(42,22):_ZNK6MAUtil6VectorIPN8NativeUI14GLViewListenerEE8capacityEv;2B.;begin::(42,25)=#(42,1),(42,2),(42,6),(0,6);:_ZN6MAUtil6VectorIPN8NativeUI14GLViewListenerEE5beginEv;2A.;end::(42,25):_ZN6MAUtil6VectorIPN8NativeUI14GLViewListenerEE3endEv;2A.;begin::(42,26)=#(42,1),(42,8),(42,23),(0,6);:_ZNK6MAUtil6VectorIPN8NativeUI14GLViewListenerEE5beginEv;2B.;end::(42,26):_ZNK6MAUtil6VectorIPN8NativeUI14GLViewListenerEE3endEv;2B.;operator[]::(42,27)=#(42,1),(42,28)=&(42,3),(42,6),(0,3),(0,6);:_ZN6MAUtil6VectorIPN8NativeUI14GLViewListenerEEixEi;2A.(42,29)=#(42,1),(42,17),(42,23),(0,3),(0,6);:_ZNK6MAUtil6VectorIPN8NativeUI14GLViewListenerEEixEi;2B.;pointer::(42,26):_ZNK6MAUtil6VectorIPN8NativeUI14GLViewListenerEE7pointerEv;2B.(42,25):_ZN6MAUtil6VectorIPN8NativeUI14GLViewListenerEE7pointerEv;2A.;;",128,0,95,0
	.stabn	162,0,0,0
	.stabs	"c:/MoSync/include/NativeUI/GLViewListener.h",130,0,0,0
	.stabn	162,0,0,0
	.stabs	"c:/MoSync/include/NativeUI/HorizontalLayout.h",130,0,0,0
	.stabs	"c:/MoSync/include/NativeUI/Layout.h",130,0,0,0
	.stabs	"c:/MoSync/include/Ads/Banner.h",130,0,0,0
	.stabs	"BannerSize:t(46,1)=eBANNER_SIZE_DEFAULT:0,BANNER_SIZE_RECT:1,BANNER_SIZE_IAB:2,BANNER_SIZE_LEADERBOARD:3,BANNER_SIZE_WP7_XLARGE:4,BANNER_SIZE_WP7_XXLARGE:5,;",128,0,62,0
	.lcomm	__ZN3Ads13TEST_EMULATORE, 4 ; size=4
	.stabs	"Vector<Ads::BannerListener*>:Tt(46,2)=s12mSize:/1(0,3),0,32;mCapacity:/1(0,3),32,32;mData:/1(46,3)=*(46,4)=*(46,5)=xsBannerListener:,64,32;__base_ctor::(46,6)=#(46,2),(0,6),(46,7)=*(46,2),(0,3),(0,6);:_ZN6MAUtil6VectorIPN3Ads14BannerListenerEEC2Ei;2A.;__comp_ctor::(46,6):_ZN6MAUtil6VectorIPN3Ads14BannerListenerEEC1Ei;2A.;__base_ctor::(46,8)=#(46,2),(0,6),(46,7),(46,9)=*(46,10)=k(46,4),(0,3),(0,6);:_ZN6MAUtil6VectorIPN3Ads14BannerListenerEEC2EPKS3_i;2A.;__comp_ctor::(46,8):_ZN6MAUtil6VectorIPN3Ads14BannerListenerEEC1EPKS3_i;2A.;__base_ctor::(46,11)=#(46,2),(0,6),(46,7),(46,12)=&(46,13)=k(46,2),(0,6);:_ZN6MAUtil6VectorIPN3Ads14BannerListenerEEC2ERKS4_;2A.;__comp_ctor::(46,11):_ZN6MAUtil6VectorIPN3Ads14BannerListenerEEC1ERKS4_;2A.;__base_dtor::(46,14)=#(46,2),(0,6),(46,7),(0,6);:_ZN6MAUtil6VectorIPN3Ads14BannerListenerEED2Ev;2A.;__comp_dtor::(46,14):_ZN6MAUtil6VectorIPN3Ads14BannerListenerEED1Ev;2A.;operator=::(46,15)=#(46,2),(46,16)=&(46,2),(46,7),(46,12),(0,6);:_ZN6MAUtil6VectorIPN3Ads14BannerListenerEEaSERKS4_;2A.;add::(46,17)=#(46,2),(0,6),(46,7),(46,18)=&(46,10),(0,6);:_ZN6MAUtil6VectorIPN3Ads14BannerListenerEE3addERKS3_;2A.(46,8):_ZN6MAUtil6VectorIPN3Ads14BannerListenerEE3addEPKS3_i;2A.;remove::(46,19)=#(46,2),(0,6),(46,7),(46,3),(0,6);:_ZN6MAUtil6VectorIPN3Ads14BannerListenerEE6removeEPS3_;2A.(46,20)=#(46,2),(0,6),(46,7),(0,3),(0,6);:_ZN6MAUtil6VectorIPN3Ads14BannerListenerEE6removeEi;2A.(46,21)=#(46,2),(0,6),(46,7),(0,3),(0,3),(0,6);:_ZN6MAUtil6VectorIPN3Ads14BannerListenerEE6removeEii;2A.;insert::(46,22)=#(46,2),(0,6),(46,7),(0,3),(46,4),(0,6);:_ZN6MAUtil6VectorIPN3Ads14BannerListenerEE6insertEiS3_;2A.;size::(46,23)=#(46,2),(0,3),(46,24)=*(46,13),(0,6);:_ZNK6MAUtil6VectorIPN3Ads14BannerListenerEE4sizeEv;2B.;resize::(46,20):_ZN6MAUtil6VectorIPN3Ads14BannerListenerEE6resizeEi;2A.;reserve::(46,20):_ZN6MAUtil6VectorIPN3Ads14BannerListenerEE7reserveEi;2A.;clear::(46,14):_ZN6MAUtil6VectorIPN3Ads14BannerListenerEE5clearEv;2A.;empty::(46,25)=#(46,2),(0,4),(46,24),(0,6);:_ZNK6MAUtil6VectorIPN3Ads14BannerListenerEE5emptyEv;2B.;capacity::(46,23):_ZNK6MAUtil6VectorIPN3Ads14BannerListenerEE8capacityEv;2B.;begin::(46,26)=#(46,2),(46,3),(46,7),(0,6);:_ZN6MAUtil6VectorIPN3Ads14BannerListenerEE5beginEv;2A.;end::(46,26):_ZN6MAUtil6VectorIPN3Ads14BannerListenerEE3endEv;2A.;begin::(46,27)=#(46,2),(46,9),(46,24),(0,6);:_ZNK6MAUtil6VectorIPN3Ads14BannerListenerEE5beginEv;2B.;end::(46,27):_ZNK6MAUtil6VectorIPN3Ads14BannerListenerEE3endEv;2B.;operator[]::(46,28)=#(46,2),(46,29)=&(46,4),(46,7),(0,3),(0,6);:_ZN6MAUtil6VectorIPN3Ads14BannerListenerEEixEi;2A.(46,30)=#(46,2),(46,18),(46,24),(0,3),(0,6);:_ZNK6MAUtil6VectorIPN3Ads14BannerListenerEEixEi;2B.;pointer::(46,27):_ZNK6MAUtil6VectorIPN3Ads14BannerListenerEE7pointerEv;2B.(46,26):_ZN6MAUtil6VectorIPN3Ads14BannerListenerEE7pointerEv;2A.;;",128,0,95,0
	.stabn	162,0,0,0
	.stabs	"Vector<Ads::Banner*>:Tt(45,1)=s12mSize:/1(0,3),0,32;mCapacity:/1(0,3),32,32;mData:/1(45,2)=*(45,3)=*(45,4)=xsBanner:,64,32;__base_ctor::(45,5)=#(45,1),(0,6),(45,6)=*(45,1),(0,3),(0,6);:_ZN6MAUtil6VectorIPN3Ads6BannerEEC2Ei;2A.;__comp_ctor::(45,5):_ZN6MAUtil6VectorIPN3Ads6BannerEEC1Ei;2A.;__base_ctor::(45,7)=#(45,1),(0,6),(45,6),(45,8)=*(45,9)=k(45,3),(0,3),(0,6);:_ZN6MAUtil6VectorIPN3Ads6BannerEEC2EPKS3_i;2A.;__comp_ctor::(45,7):_ZN6MAUtil6VectorIPN3Ads6BannerEEC1EPKS3_i;2A.;__base_ctor::(45,10)=#(45,1),(0,6),(45,6),(45,11)=&(45,12)=k(45,1),(0,6);:_ZN6MAUtil6VectorIPN3Ads6BannerEEC2ERKS4_;2A.;__comp_ctor::(45,10):_ZN6MAUtil6VectorIPN3Ads6BannerEEC1ERKS4_;2A.;__base_dtor::(45,13)=#(45,1),(0,6),(45,6),(0,6);:_ZN6MAUtil6VectorIPN3Ads6BannerEED2Ev;2A.;__comp_dtor::(45,13):_ZN6MAUtil6VectorIPN3Ads6BannerEED1Ev;2A.;operator=::(45,14)=#(45,1),(45,15)=&(45,1),(45,6),(45,11),(0,6);:_ZN6MAUtil6VectorIPN3Ads6BannerEEaSERKS4_;2A.;add::(45,16)=#(45,1),(0,6),(45,6),(45,17)=&(45,9),(0,6);:_ZN6MAUtil6VectorIPN3Ads6BannerEE3addERKS3_;2A.(45,7):_ZN6MAUtil6VectorIPN3Ads6BannerEE3addEPKS3_i;2A.;remove::(45,18)=#(45,1),(0,6),(45,6),(45,2),(0,6);:_ZN6MAUtil6VectorIPN3Ads6BannerEE6removeEPS3_;2A.(45,19)=#(45,1),(0,6),(45,6),(0,3),(0,6);:_ZN6MAUtil6VectorIPN3Ads6BannerEE6removeEi;2A.(45,20)=#(45,1),(0,6),(45,6),(0,3),(0,3),(0,6);:_ZN6MAUtil6VectorIPN3Ads6BannerEE6removeEii;2A.;insert::(45,21)=#(45,1),(0,6),(45,6),(0,3),(45,3),(0,6);:_ZN6MAUtil6VectorIPN3Ads6BannerEE6insertEiS3_;2A.;size::(45,22)=#(45,1),(0,3),(45,23)=*(45,12),(0,6);:_ZNK6MAUtil6VectorIPN3Ads6BannerEE4sizeEv;2B.;resize::(45,19):_ZN6MAUtil6VectorIPN3Ads6BannerEE6resizeEi;2A.;reserve::(45,19):_ZN6MAUtil6VectorIPN3Ads6BannerEE7reserveEi;2A.;clear::(45,13):_ZN6MAUtil6VectorIPN3Ads6BannerEE5clearEv;2A.;empty::(45,24)=#(45,1),(0,4),(45,23),(0,6);:_ZNK6MAUtil6VectorIPN3Ads6BannerEE5emptyEv;2B.;capacity::(45,22):_ZNK6MAUtil6VectorIPN3Ads6BannerEE8capacityEv;2B.;begin::(45,25)=#(45,1),(45,2),(45,6),(0,6);:_ZN6MAUtil6VectorIPN3Ads6BannerEE5beginEv;2A.;end::(45,25):_ZN6MAUtil6VectorIPN3Ads6BannerEE3endEv;2A.;begin::(45,26)=#(45,1),(45,8),(45,23),(0,6);:_ZNK6MAUtil6VectorIPN3Ads6BannerEE5beginEv;2B.;end::(45,26):_ZNK6MAUtil6VectorIPN3Ads6BannerEE3endEv;2B.;operator[]::(45,27)=#(45,1),(45,28)=&(45,3),(45,6),(0,3),(0,6);:_ZN6MAUtil6VectorIPN3Ads6BannerEEixEi;2A.(45,29)=#(45,1),(45,17),(45,23),(0,3),(0,6);:_ZNK6MAUtil6VectorIPN3Ads6BannerEEixEi;2B.;pointer::(45,26):_ZNK6MAUtil6VectorIPN3Ads6BannerEE7pointerEv;2B.(45,25):_ZN6MAUtil6VectorIPN3Ads6BannerEE7pointerEv;2A.;;",128,0,95,0
	.stabn	162,0,0,0
	.stabn	162,0,0,0
	.stabs	"c:/MoSync/include/NativeUI/Image.h",130,0,0,0
	.stabs	"ImageScaleMode:t(47,1)=eIMAGE_SCALE_NONE:0,IMAGE_SCALE_XY:1,IMAGE_SCALE_PRESERVE_ASPECT:2,;",128,0,47,0
	.stabn	162,0,0,0
	.stabs	"c:/MoSync/include/NativeUI/ImageButton.h",130,0,0,0
	.stabn	162,0,0,0
	.stabs	"c:/MoSync/include/NativeUI/Label.h",130,0,0,0
	.stabn	162,0,0,0
	.stabs	"c:/MoSync/include/NativeUI/ListView.h",130,0,0,0
	.stabs	"ListViewType:t(50,1)=eLIST_VIEW_TYPE_DEFAULT:0,LIST_VIEW_TYPE_ALPHABETICAL:1,LIST_VIEW_TYPE_SEGMENTED:2,;",128,0,49,0
	.stabs	"ListViewMode:t(50,2)=eLIST_VIEW_MODE_DISPLAY:0,LIST_VIEW_MODE_EDIT:1,;",128,0,71,0
	.stabs	"ListViewStyle:t(50,3)=eLIST_VIEW_STYLE_SUBTITLE:0,LIST_VIEW_STYLE_NO_SUBTITLE:1,;",128,0,88,0
	.stabs	"Vector<NativeUI::ListViewListener*>:Tt(50,4)=s12mSize:/1(0,3),0,32;mCapacity:/1(0,3),32,32;mData:/1(50,5)=*(50,6)=*(50,7)=xsListViewListener:,64,32;__base_ctor::(50,8)=#(50,4),(0,6),(50,9)=*(50,4),(0,3),(0,6);:_ZN6MAUtil6VectorIPN8NativeUI16ListViewListenerEEC2Ei;2A.;__comp_ctor::(50,8):_ZN6MAUtil6VectorIPN8NativeUI16ListViewListenerEEC1Ei;2A.;__base_ctor::(50,10)=#(50,4),(0,6),(50,9),(50,11)=*(50,12)=k(50,6),(0,3),(0,6);:_ZN6MAUtil6VectorIPN8NativeUI16ListViewListenerEEC2EPKS3_i;2A.;__comp_ctor::(50,10):_ZN6MAUtil6VectorIPN8NativeUI16ListViewListenerEEC1EPKS3_i;2A.;__base_ctor::(50,13)=#(50,4),(0,6),(50,9),(50,14)=&(50,15)=k(50,4),(0,6);:_ZN6MAUtil6VectorIPN8NativeUI16ListViewListenerEEC2ERKS4_;2A.;__comp_ctor::(50,13):_ZN6MAUtil6VectorIPN8NativeUI16ListViewListenerEEC1ERKS4_;2A.;__base_dtor::(50,16)=#(50,4),(0,6),(50,9),(0,6);:_ZN6MAUtil6VectorIPN8NativeUI16ListViewListenerEED2Ev;2A.;__comp_dtor::(50,16):_ZN6MAUtil6VectorIPN8NativeUI16ListViewListenerEED1Ev;2A.;operator=::(50,17)=#(50,4),(50,18)=&(50,4),(50,9),(50,14),(0,6);:_ZN6MAUtil6VectorIPN8NativeUI16ListViewListenerEEaSERKS4_;2A.;add::(50,19)=#(50,4),(0,6),(50,9),(50,20)=&(50,12),(0,6);:_ZN6MAUtil6VectorIPN8NativeUI16ListViewListenerEE3addERKS3_;2A.(50,10):_ZN6MAUtil6VectorIPN8NativeUI16ListViewListenerEE3addEPKS3_i;2A.;remove::(50,21)=#(50,4),(0,6),(50,9),(50,5),(0,6);:_ZN6MAUtil6VectorIPN8NativeUI16ListViewListenerEE6removeEPS3_;2A.(50,22)=#(50,4),(0,6),(50,9),(0,3),(0,6);:_ZN6MAUtil6VectorIPN8NativeUI16ListViewListenerEE6removeEi;2A.(50,23)=#(50,4),(0,6),(50,9),(0,3),(0,3),(0,6);:_ZN6MAUtil6VectorIPN8NativeUI16ListViewListenerEE6removeEii;2A.;insert::(50,24)=#(50,4),(0,6),(50,9),(0,3),(50,6),(0,6);:_ZN6MAUtil6VectorIPN8NativeUI16ListViewListenerEE6insertEiS3_;2A.;size::(50,25)=#(50,4),(0,3),(50,26)=*(50,15),(0,6);:_ZNK6MAUtil6VectorIPN8NativeUI16ListViewListenerEE4sizeEv;2B.;resize::(50,22):_ZN6MAUtil6VectorIPN8NativeUI16ListViewListenerEE6resizeEi;2A.;reserve::(50,22):_ZN6MAUtil6VectorIPN8NativeUI16ListViewListenerEE7reserveEi;2A.;clear::(50,16):_ZN6MAUtil6VectorIPN8NativeUI16ListViewListenerEE5clearEv;2A.;empty::(50,27)=#(50,4),(0,4),(50,26),(0,6);:_ZNK6MAUtil6VectorIPN8NativeUI16ListViewListenerEE5emptyEv;2B.;capacity::(50,25):_ZNK6MAUtil6VectorIPN8NativeUI16ListViewListenerEE8capacityEv;2B.;begin::(50,28)=#(50,4),(50,5),(50,9),(0,6);:_ZN6MAUtil6VectorIPN8NativeUI16ListViewListenerEE5beginEv;2A.;end::(50,28):_ZN6MAUtil6VectorIPN8NativeUI16ListViewListenerEE3endEv;2A.;begin::(50,29)=#(50,4),(50,11),(50,26),(0,6);:_ZNK6MAUtil6VectorIPN8NativeUI16ListViewListenerEE5beginEv;2B.;end::(50,29):_ZNK6MAUtil6VectorIPN8NativeUI16ListViewListenerEE3endEv;2B.;operator[]::(50,30)=#(50,4),(50,31)=&(50,6),(50,9),(0,3),(0,6);:_ZN6MAUtil6VectorIPN8NativeUI16ListViewListenerEEixEi;2A.(50,32)=#(50,4),(50,20),(50,26),(0,3),(0,6);:_ZNK6MAUtil6VectorIPN8NativeUI16ListViewListenerEEixEi;2B.;pointer::(50,29):_ZNK6MAUtil6VectorIPN8NativeUI16ListViewListenerEE7pointerEv;2B.(50,28):_ZN6MAUtil6VectorIPN8NativeUI16ListViewListenerEE7pointerEv;2A.;;",128,0,95,0
	.stabn	162,0,0,0
	.stabs	"c:/MoSync/include/NativeUI/ListViewItem.h",130,0,0,0
	.stabs	"ListViewItemAccessory:t(51,1)=eLIST_VIEW_ITEM_ACCESSORY_NONE:0,LIST_VIEW_ITEM_ACCESSORY_DISCLOSURE:1,LIST_VIEW_ITEM_ACCESSORY_DETAIL:2,LIST_VIEW_ITEM_ACCESSORY_CHECKMARK:3,;",128,0,49,0
	.stabs	"ListViewItemEditStyle:t(51,2)=eLIST_VIEW_ITEM_EDIT_STYLE_NONE:0,LIST_VIEW_ITEM_EDIT_STYLE_DELETE:1,LIST_VIEW_ITEM_EDIT_STYLE_INSERT:2,;",128,0,57,0
	.stabs	"ListViewItemSelectionStyle:t(51,3)=eLIST_VIEW_ITEM_SELECTION_STYLE_NONE:0,LIST_VIEW_ITEM_SELECTION_STYLE_BLUE:1,LIST_VIEW_ITEM_SELECTION_STYLE_GRAY:2,;",128,0,79,0
	.stabn	162,0,0,0
	.stabs	"c:/MoSync/include/NativeUI/ListViewSection.h",130,0,0,0
	.stabs	"ListViewSectionType:t(52,1)=eLIST_VIEW_SECTION_TYPE_ALPHABETICAL:0,LIST_VIEW_SECTION_TYPE_SEGMENTED:1,;",128,0,50,0
	.stabn	162,0,0,0
	.stabs	"c:/MoSync/include/NativeUI/ListViewListener.h",130,0,0,0
	.stabn	162,0,0,0
	.stabs	"c:/MoSync/include/NativeUI/Map.h",130,0,0,0
	.stabs	"c:/MoSync/include/NativeUI/MapLocation.h",130,0,0,0
	.stabs	"c:/MoSync/include/NativeUI/Location.h",130,0,0,0
	.stabs	"Location:Tt(56,1)=s16mLatitude:/1(0,8),0,64;mLongitude:/1(0,8),64,64;__base_ctor::(56,2)=#(56,1),(0,6),(56,3)=*(56,1),(0,6);:_ZN8NativeUI8LocationC2Ev;2A.;__comp_ctor::(56,2):_ZN8NativeUI8LocationC1Ev;2A.;__base_ctor::(56,4)=#(56,1),(0,6),(56,3),(0,8),(0,8),(0,6);:_ZN8NativeUI8LocationC2Edd;2A.;__comp_ctor::(56,4):_ZN8NativeUI8LocationC1Edd;2A.;__base_dtor::(56,2):_ZN8NativeUI8LocationD2Ev;2A.;__comp_dtor::(56,2):_ZN8NativeUI8LocationD1Ev;2A.;setLatitude::(56,5)=#(56,1),(0,6),(56,3),(0,8),(0,6);:_ZN8NativeUI8Location11setLatitudeEd;2A.;getLatitude::(56,6)=#(56,1),(0,8),(56,7)=*(56,8)=k(56,1),(0,6);:_ZNK8NativeUI8Location11getLatitudeEv;2B.;setLongitude::(56,5):_ZN8NativeUI8Location12setLongitudeEd;2A.;getLongitude::(56,6):_ZNK8NativeUI8Location12getLongitudeEv;2B.;operator=::(56,9)=#(56,1),(56,10)=&(56,1),(56,3),(56,11)=&(56,8),(0,6);:_ZN8NativeUI8LocationaSERKS0_;2A.;__base_ctor::(56,12)=#(56,1),(0,6),(56,3),(56,11),(0,6);:_ZN8NativeUI8LocationC2ERKS0_;2A.;__comp_ctor::(56,12):_ZN8NativeUI8LocationC1ERKS0_;2A.;;",128,0,41,0
	.stabn	162,0,0,0
	.stabs	"MapLocation:Tt(55,1)=s20!1,020,(56,1);mZoomLevel:/0(0,3),128,32;__base_ctor::(55,2)=#(55,1),(0,6),(55,3)=*(55,1),(0,6);:_ZN8NativeUI11MapLocationC2Ev;2A.;__comp_ctor::(55,2):_ZN8NativeUI11MapLocationC1Ev;2A.;__base_ctor::(55,4)=#(55,1),(0,6),(55,3),(0,8),(0,8),(0,6);:_ZN8NativeUI11MapLocationC2Edd;2A.;__comp_ctor::(55,4):_ZN8NativeUI11MapLocationC1Edd;2A.;__base_ctor::(55,5)=#(55,1),(0,6),(55,3),(0,8),(0,8),(0,3),(0,6);:_ZN8NativeUI11MapLocationC2Eddi;2A.;__comp_ctor::(55,5):_ZN8NativeUI11MapLocationC1Eddi;2A.;__base_dtor::(55,2):_ZN8NativeUI11MapLocationD2Ev;2A.;__comp_dtor::(55,2):_ZN8NativeUI11MapLocationD1Ev;2A.;setZoomLevel::(55,6)=#(55,1),(0,6),(55,3),(0,3),(0,6);:_ZN8NativeUI11MapLocation12setZoomLevelEi;2A.;getZoomLevel::(55,7)=#(55,1),(0,3),(55,8)=*(55,9)=k(55,1),(0,6);:_ZNK8NativeUI11MapLocation12getZoomLevelEv;2B.;setLocation::(55,10)=#(55,1),(0,6),(55,3),(56,3),(0,6);:_ZN8NativeUI11MapLocation11setLocationEPNS_8LocationE;2A.;operator=::(55,11)=#(55,1),(55,12)=&(55,1),(55,3),(55,13)=&(55,9),(0,6);:_ZN8NativeUI11MapLocationaSERKS0_;2A.;__base_ctor::(55,14)=#(55,1),(0,6),(55,3),(55,13),(0,6);:_ZN8NativeUI11MapLocationC2ERKS0_;2A.;__comp_ctor::(55,14):_ZN8NativeUI11MapLocationC1ERKS0_;2A.;;",128,0,43,0
	.stabn	162,0,0,0
	.stabs	"c:/MoSync/include/NativeUI/MapPin.h",130,0,0,0
	.stabs	"c:/MoSync/include/NativeUI/MapPinListener.h",130,0,0,0
	.stabn	162,0,0,0
	.stabs	"Vector<NativeUI::MapPinListener*>:Tt(57,1)=s12mSize:/1(0,3),0,32;mCapacity:/1(0,3),32,32;mData:/1(57,2)=*(57,3)=*(57,4)=xsMapPinListener:,64,32;__base_ctor::(57,5)=#(57,1),(0,6),(57,6)=*(57,1),(0,3),(0,6);:_ZN6MAUtil6VectorIPN8NativeUI14MapPinListenerEEC2Ei;2A.;__comp_ctor::(57,5):_ZN6MAUtil6VectorIPN8NativeUI14MapPinListenerEEC1Ei;2A.;__base_ctor::(57,7)=#(57,1),(0,6),(57,6),(57,8)=*(57,9)=k(57,3),(0,3),(0,6);:_ZN6MAUtil6VectorIPN8NativeUI14MapPinListenerEEC2EPKS3_i;2A.;__comp_ctor::(57,7):_ZN6MAUtil6VectorIPN8NativeUI14MapPinListenerEEC1EPKS3_i;2A.;__base_ctor::(57,10)=#(57,1),(0,6),(57,6),(57,11)=&(57,12)=k(57,1),(0,6);:_ZN6MAUtil6VectorIPN8NativeUI14MapPinListenerEEC2ERKS4_;2A.;__comp_ctor::(57,10):_ZN6MAUtil6VectorIPN8NativeUI14MapPinListenerEEC1ERKS4_;2A.;__base_dtor::(57,13)=#(57,1),(0,6),(57,6),(0,6);:_ZN6MAUtil6VectorIPN8NativeUI14MapPinListenerEED2Ev;2A.;__comp_dtor::(57,13):_ZN6MAUtil6VectorIPN8NativeUI14MapPinListenerEED1Ev;2A.;operator=::(57,14)=#(57,1),(57,15)=&(57,1),(57,6),(57,11),(0,6);:_ZN6MAUtil6VectorIPN8NativeUI14MapPinListenerEEaSERKS4_;2A.;add::(57,16)=#(57,1),(0,6),(57,6),(57,17)=&(57,9),(0,6);:_ZN6MAUtil6VectorIPN8NativeUI14MapPinListenerEE3addERKS3_;2A.(57,7):_ZN6MAUtil6VectorIPN8NativeUI14MapPinListenerEE3addEPKS3_i;2A.;remove::(57,18)=#(57,1),(0,6),(57,6),(57,2),(0,6);:_ZN6MAUtil6VectorIPN8NativeUI14MapPinListenerEE6removeEPS3_;2A.(57,19)=#(57,1),(0,6),(57,6),(0,3),(0,6);:_ZN6MAUtil6VectorIPN8NativeUI14MapPinListenerEE6removeEi;2A.(57,20)=#(57,1),(0,6),(57,6),(0,3),(0,3),(0,6);:_ZN6MAUtil6VectorIPN8NativeUI14MapPinListenerEE6removeEii;2A.;insert::(57,21)=#(57,1),(0,6),(57,6),(0,3),(57,3),(0,6);:_ZN6MAUtil6VectorIPN8NativeUI14MapPinListenerEE6insertEiS3_;2A.;size::(57,22)=#(57,1),(0,3),(57,23)=*(57,12),(0,6);:_ZNK6MAUtil6VectorIPN8NativeUI14MapPinListenerEE4sizeEv;2B.;resize::(57,19):_ZN6MAUtil6VectorIPN8NativeUI14MapPinListenerEE6resizeEi;2A.;reserve::(57,19):_ZN6MAUtil6VectorIPN8NativeUI14MapPinListenerEE7reserveEi;2A.;clear::(57,13):_ZN6MAUtil6VectorIPN8NativeUI14MapPinListenerEE5clearEv;2A.;empty::(57,24)=#(57,1),(0,4),(57,23),(0,6);:_ZNK6MAUtil6VectorIPN8NativeUI14MapPinListenerEE5emptyEv;2B.;capacity::(57,22):_ZNK6MAUtil6VectorIPN8NativeUI14MapPinListenerEE8capacityEv;2B.;begin::(57,25)=#(57,1),(57,2),(57,6),(0,6);:_ZN6MAUtil6VectorIPN8NativeUI14MapPinListenerEE5beginEv;2A.;end::(57,25):_ZN6MAUtil6VectorIPN8NativeUI14MapPinListenerEE3endEv;2A.;begin::(57,26)=#(57,1),(57,8),(57,23),(0,6);:_ZNK6MAUtil6VectorIPN8NativeUI14MapPinListenerEE5beginEv;2B.;end::(57,26):_ZNK6MAUtil6VectorIPN8NativeUI14MapPinListenerEE3endEv;2B.;operator[]::(57,27)=#(57,1),(57,28)=&(57,3),(57,6),(0,3),(0,6);:_ZN6MAUtil6VectorIPN8NativeUI14MapPinListenerEEixEi;2A.(57,29)=#(57,1),(57,17),(57,23),(0,3),(0,6);:_ZNK6MAUtil6VectorIPN8NativeUI14MapPinListenerEEixEi;2B.;pointer::(57,26):_ZNK6MAUtil6VectorIPN8NativeUI14MapPinListenerEE7pointerEv;2B.(57,25):_ZN6MAUtil6VectorIPN8NativeUI14MapPinListenerEE7pointerEv;2A.;;",128,0,95,0
	.stabn	162,0,0,0
	.stabs	"c:/MoSync/include/NativeUI/MapRegion.h",130,0,0,0
	.stabs	"MapRegion:Tt(59,1)=s8mUpperLeftCorner:/0(56,3),0,32;mLowerRightCorner:/0(56,3),32,32;__base_ctor::(59,2)=#(59,1),(0,6),(59,3)=*(59,1),(0,6);:_ZN8NativeUI9MapRegionC2Ev;2A.;__comp_ctor::(59,2):_ZN8NativeUI9MapRegionC1Ev;2A.;__base_ctor::(59,4)=#(59,1),(0,6),(59,3),(56,1),(56,1),(0,6);:_ZN8NativeUI9MapRegionC2ENS_8LocationES1_;2A.;__comp_ctor::(59,4):_ZN8NativeUI9MapRegionC1ENS_8LocationES1_;2A.;__base_dtor::(59,2):_ZN8NativeUI9MapRegionD2Ev;2A.;__comp_dtor::(59,2):_ZN8NativeUI9MapRegionD1Ev;2A.;setUpperLeftCorner::(59,5)=#(59,1),(0,6),(59,3),(56,3),(0,6);:_ZN8NativeUI9MapRegion18setUpperLeftCornerEPNS_8LocationE;2A.;getUpperLeftCorner::(59,6)=#(59,1),(56,10),(59,7)=*(59,8)=k(59,1),(0,6);:_ZNK8NativeUI9MapRegion18getUpperLeftCornerEv;2B.;setLowerRightCorner::(59,5):_ZN8NativeUI9MapRegion19setLowerRightCornerEPNS_8LocationE;2A.;getLowerRightCorner::(59,6):_ZNK8NativeUI9MapRegion19getLowerRightCornerEv;2B.;operator=::(59,9)=#(59,1),(59,10)=&(59,1),(59,3),(59,11)=&(59,8),(0,6);:_ZN8NativeUI9MapRegionaSERKS0_;2A.;__base_ctor::(59,12)=#(59,1),(0,6),(59,3),(59,11),(0,6);:_ZN8NativeUI9MapRegionC2ERKS0_;2A.;__comp_ctor::(59,12):_ZN8NativeUI9MapRegionC1ERKS0_;2A.;;",128,0,43,0
	.stabn	162,0,0,0
	.stabs	"MapType:t(54,1)=eMAP_TYPE_ROAD:0,MAP_TYPE_SATELLITE:1,;",128,0,60,0
	.stabs	"Vector<NativeUI::MapListener*>:Tt(54,2)=s12mSize:/1(0,3),0,32;mCapacity:/1(0,3),32,32;mData:/1(54,3)=*(54,4)=*(54,5)=xsMapListener:,64,32;__base_ctor::(54,6)=#(54,2),(0,6),(54,7)=*(54,2),(0,3),(0,6);:_ZN6MAUtil6VectorIPN8NativeUI11MapListenerEEC2Ei;2A.;__comp_ctor::(54,6):_ZN6MAUtil6VectorIPN8NativeUI11MapListenerEEC1Ei;2A.;__base_ctor::(54,8)=#(54,2),(0,6),(54,7),(54,9)=*(54,10)=k(54,4),(0,3),(0,6);:_ZN6MAUtil6VectorIPN8NativeUI11MapListenerEEC2EPKS3_i;2A.;__comp_ctor::(54,8):_ZN6MAUtil6VectorIPN8NativeUI11MapListenerEEC1EPKS3_i;2A.;__base_ctor::(54,11)=#(54,2),(0,6),(54,7),(54,12)=&(54,13)=k(54,2),(0,6);:_ZN6MAUtil6VectorIPN8NativeUI11MapListenerEEC2ERKS4_;2A.;__comp_ctor::(54,11):_ZN6MAUtil6VectorIPN8NativeUI11MapListenerEEC1ERKS4_;2A.;__base_dtor::(54,14)=#(54,2),(0,6),(54,7),(0,6);:_ZN6MAUtil6VectorIPN8NativeUI11MapListenerEED2Ev;2A.;__comp_dtor::(54,14):_ZN6MAUtil6VectorIPN8NativeUI11MapListenerEED1Ev;2A.;operator=::(54,15)=#(54,2),(54,16)=&(54,2),(54,7),(54,12),(0,6);:_ZN6MAUtil6VectorIPN8NativeUI11MapListenerEEaSERKS4_;2A.;add::(54,17)=#(54,2),(0,6),(54,7),(54,18)=&(54,10),(0,6);:_ZN6MAUtil6VectorIPN8NativeUI11MapListenerEE3addERKS3_;2A.(54,8):_ZN6MAUtil6VectorIPN8NativeUI11MapListenerEE3addEPKS3_i;2A.;remove::(54,19)=#(54,2),(0,6),(54,7),(54,3),(0,6);:_ZN6MAUtil6VectorIPN8NativeUI11MapListenerEE6removeEPS3_;2A.(54,20)=#(54,2),(0,6),(54,7),(0,3),(0,6);:_ZN6MAUtil6VectorIPN8NativeUI11MapListenerEE6removeEi;2A.(54,21)=#(54,2),(0,6),(54,7),(0,3),(0,3),(0,6);:_ZN6MAUtil6VectorIPN8NativeUI11MapListenerEE6removeEii;2A.;insert::(54,22)=#(54,2),(0,6),(54,7),(0,3),(54,4),(0,6);:_ZN6MAUtil6VectorIPN8NativeUI11MapListenerEE6insertEiS3_;2A.;size::(54,23)=#(54,2),(0,3),(54,24)=*(54,13),(0,6);:_ZNK6MAUtil6VectorIPN8NativeUI11MapListenerEE4sizeEv;2B.;resize::(54,20):_ZN6MAUtil6VectorIPN8NativeUI11MapListenerEE6resizeEi;2A.;reserve::(54,20):_ZN6MAUtil6VectorIPN8NativeUI11MapListenerEE7reserveEi;2A.;clear::(54,14):_ZN6MAUtil6VectorIPN8NativeUI11MapListenerEE5clearEv;2A.;empty::(54,25)=#(54,2),(0,4),(54,24),(0,6);:_ZNK6MAUtil6VectorIPN8NativeUI11MapListenerEE5emptyEv;2B.;capacity::(54,23):_ZNK6MAUtil6VectorIPN8NativeUI11MapListenerEE8capacityEv;2B.;begin::(54,26)=#(54,2),(54,3),(54,7),(0,6);:_ZN6MAUtil6VectorIPN8NativeUI11MapListenerEE5beginEv;2A.;end::(54,26):_ZN6MAUtil6VectorIPN8NativeUI11MapListenerEE3endEv;2A.;begin::(54,27)=#(54,2),(54,9),(54,24),(0,6);:_ZNK6MAUtil6VectorIPN8NativeUI11MapListenerEE5beginEv;2B.;end::(54,27):_ZNK6MAUtil6VectorIPN8NativeUI11MapListenerEE3endEv;2B.;operator[]::(54,28)=#(54,2),(54,29)=&(54,4),(54,7),(0,3),(0,6);:_ZN6MAUtil6VectorIPN8NativeUI11MapListenerEEixEi;2A.(54,30)=#(54,2),(54,18),(54,24),(0,3),(0,6);:_ZNK6MAUtil6VectorIPN8NativeUI11MapListenerEEixEi;2B.;pointer::(54,27):_ZNK6MAUtil6VectorIPN8NativeUI11MapListenerEE7pointerEv;2B.(54,26):_ZN6MAUtil6VectorIPN8NativeUI11MapListenerEE7pointerEv;2A.;;",128,0,95,0
	.stabn	162,0,0,0
	.stabs	"c:/MoSync/include/NativeUI/MapListener.h",130,0,0,0
	.stabn	162,0,0,0
	.stabs	"c:/MoSync/include/NativeUI/NavigationBar.h",130,0,0,0
	.stabs	"Vector<NativeUI::NavigationBarListener*>:Tt(61,1)=s12mSize:/1(0,3),0,32;mCapacity:/1(0,3),32,32;mData:/1(61,2)=*(61,3)=*(61,4)=xsNavigationBarListener:,64,32;__base_ctor::(61,5)=#(61,1),(0,6),(61,6)=*(61,1),(0,3),(0,6);:_ZN6MAUtil6VectorIPN8NativeUI21NavigationBarListenerEEC2Ei;2A.;__comp_ctor::(61,5):_ZN6MAUtil6VectorIPN8NativeUI21NavigationBarListenerEEC1Ei;2A.;__base_ctor::(61,7)=#(61,1),(0,6),(61,6),(61,8)=*(61,9)=k(61,3),(0,3),(0,6);:_ZN6MAUtil6VectorIPN8NativeUI21NavigationBarListenerEEC2EPKS3_i;2A.;__comp_ctor::(61,7):_ZN6MAUtil6VectorIPN8NativeUI21NavigationBarListenerEEC1EPKS3_i;2A.;__base_ctor::(61,10)=#(61,1),(0,6),(61,6),(61,11)=&(61,12)=k(61,1),(0,6);:_ZN6MAUtil6VectorIPN8NativeUI21NavigationBarListenerEEC2ERKS4_;2A.;__comp_ctor::(61,10):_ZN6MAUtil6VectorIPN8NativeUI21NavigationBarListenerEEC1ERKS4_;2A.;__base_dtor::(61,13)=#(61,1),(0,6),(61,6),(0,6);:_ZN6MAUtil6VectorIPN8NativeUI21NavigationBarListenerEED2Ev;2A.;__comp_dtor::(61,13):_ZN6MAUtil6VectorIPN8NativeUI21NavigationBarListenerEED1Ev;2A.;operator=::(61,14)=#(61,1),(61,15)=&(61,1),(61,6),(61,11),(0,6);:_ZN6MAUtil6VectorIPN8NativeUI21NavigationBarListenerEEaSERKS4_;2A.;add::(61,16)=#(61,1),(0,6),(61,6),(61,17)=&(61,9),(0,6);:_ZN6MAUtil6VectorIPN8NativeUI21NavigationBarListenerEE3addERKS3_;2A.(61,7):_ZN6MAUtil6VectorIPN8NativeUI21NavigationBarListenerEE3addEPKS3_i;2A.;remove::(61,18)=#(61,1),(0,6),(61,6),(61,2),(0,6);:_ZN6MAUtil6VectorIPN8NativeUI21NavigationBarListenerEE6removeEPS3_;2A.(61,19)=#(61,1),(0,6),(61,6),(0,3),(0,6);:_ZN6MAUtil6VectorIPN8NativeUI21NavigationBarListenerEE6removeEi;2A.(61,20)=#(61,1),(0,6),(61,6),(0,3),(0,3),(0,6);:_ZN6MAUtil6VectorIPN8NativeUI21NavigationBarListenerEE6removeEii;2A.;insert::(61,21)=#(61,1),(0,6),(61,6),(0,3),(61,3),(0,6);:_ZN6MAUtil6VectorIPN8NativeUI21NavigationBarListenerEE6insertEiS3_;2A.;size::(61,22)=#(61,1),(0,3),(61,23)=*(61,12),(0,6);:_ZNK6MAUtil6VectorIPN8NativeUI21NavigationBarListenerEE4sizeEv;2B.;resize::(61,19):_ZN6MAUtil6VectorIPN8NativeUI21NavigationBarListenerEE6resizeEi;2A.;reserve::(61,19):_ZN6MAUtil6VectorIPN8NativeUI21NavigationBarListenerEE7reserveEi;2A.;clear::(61,13):_ZN6MAUtil6VectorIPN8NativeUI21NavigationBarListenerEE5clearEv;2A.;empty::(61,24)=#(61,1),(0,4),(61,23),(0,6);:_ZNK6MAUtil6VectorIPN8NativeUI21NavigationBarListenerEE5emptyEv;2B.;capacity::(61,22):_ZNK6MAUtil6VectorIPN8NativeUI21NavigationBarListenerEE8capacityEv;2B.;begin::(61,25)=#(61,1),(61,2),(61,6),(0,6);:_ZN6MAUtil6VectorIPN8NativeUI21NavigationBarListenerEE5beginEv;2A.;end::(61,25):_ZN6MAUtil6VectorIPN8NativeUI21NavigationBarListenerEE3endEv;2A.;begin::(61,26)=#(61,1),(61,8),(61,23),(0,6);:_ZNK6MAUtil6VectorIPN8NativeUI21NavigationBarListenerEE5beginEv;2B.;end::(61,26):_ZNK6MAUtil6VectorIPN8NativeUI21NavigationBarListenerEE3endEv;2B.;operator[]::(61,27)=#(61,1),(61,28)=&(61,3),(61,6),(0,3),(0,6);:_ZN6MAUtil6VectorIPN8NativeUI21NavigationBarListenerEEixEi;2A.(61,29)=#(61,1),(61,17),(61,23),(0,3),(0,6);:_ZNK6MAUtil6VectorIPN8NativeUI21NavigationBarListenerEEixEi;2B.;pointer::(61,26):_ZNK6MAUtil6VectorIPN8NativeUI21NavigationBarListenerEE7pointerEv;2B.(61,25):_ZN6MAUtil6VectorIPN8NativeUI21NavigationBarListenerEE7pointerEv;2A.;;",128,0,95,0
	.stabn	162,0,0,0
	.stabs	"c:/MoSync/include/NativeUI/NavigationBarListener.h",130,0,0,0
	.stabn	162,0,0,0
	.stabs	"c:/MoSync/include/NativeUI/NumberPicker.h",130,0,0,0
	.stabs	"Vector<NativeUI::NumberPickerListener*>:Tt(63,1)=s12mSize:/1(0,3),0,32;mCapacity:/1(0,3),32,32;mData:/1(63,2)=*(63,3)=*(63,4)=xsNumberPickerListener:,64,32;__base_ctor::(63,5)=#(63,1),(0,6),(63,6)=*(63,1),(0,3),(0,6);:_ZN6MAUtil6VectorIPN8NativeUI20NumberPickerListenerEEC2Ei;2A.;__comp_ctor::(63,5):_ZN6MAUtil6VectorIPN8NativeUI20NumberPickerListenerEEC1Ei;2A.;__base_ctor::(63,7)=#(63,1),(0,6),(63,6),(63,8)=*(63,9)=k(63,3),(0,3),(0,6);:_ZN6MAUtil6VectorIPN8NativeUI20NumberPickerListenerEEC2EPKS3_i;2A.;__comp_ctor::(63,7):_ZN6MAUtil6VectorIPN8NativeUI20NumberPickerListenerEEC1EPKS3_i;2A.;__base_ctor::(63,10)=#(63,1),(0,6),(63,6),(63,11)=&(63,12)=k(63,1),(0,6);:_ZN6MAUtil6VectorIPN8NativeUI20NumberPickerListenerEEC2ERKS4_;2A.;__comp_ctor::(63,10):_ZN6MAUtil6VectorIPN8NativeUI20NumberPickerListenerEEC1ERKS4_;2A.;__base_dtor::(63,13)=#(63,1),(0,6),(63,6),(0,6);:_ZN6MAUtil6VectorIPN8NativeUI20NumberPickerListenerEED2Ev;2A.;__comp_dtor::(63,13):_ZN6MAUtil6VectorIPN8NativeUI20NumberPickerListenerEED1Ev;2A.;operator=::(63,14)=#(63,1),(63,15)=&(63,1),(63,6),(63,11),(0,6);:_ZN6MAUtil6VectorIPN8NativeUI20NumberPickerListenerEEaSERKS4_;2A.;add::(63,16)=#(63,1),(0,6),(63,6),(63,17)=&(63,9),(0,6);:_ZN6MAUtil6VectorIPN8NativeUI20NumberPickerListenerEE3addERKS3_;2A.(63,7):_ZN6MAUtil6VectorIPN8NativeUI20NumberPickerListenerEE3addEPKS3_i;2A.;remove::(63,18)=#(63,1),(0,6),(63,6),(63,2),(0,6);:_ZN6MAUtil6VectorIPN8NativeUI20NumberPickerListenerEE6removeEPS3_;2A.(63,19)=#(63,1),(0,6),(63,6),(0,3),(0,6);:_ZN6MAUtil6VectorIPN8NativeUI20NumberPickerListenerEE6removeEi;2A.(63,20)=#(63,1),(0,6),(63,6),(0,3),(0,3),(0,6);:_ZN6MAUtil6VectorIPN8NativeUI20NumberPickerListenerEE6removeEii;2A.;insert::(63,21)=#(63,1),(0,6),(63,6),(0,3),(63,3),(0,6);:_ZN6MAUtil6VectorIPN8NativeUI20NumberPickerListenerEE6insertEiS3_;2A.;size::(63,22)=#(63,1),(0,3),(63,23)=*(63,12),(0,6);:_ZNK6MAUtil6VectorIPN8NativeUI20NumberPickerListenerEE4sizeEv;2B.;resize::(63,19):_ZN6MAUtil6VectorIPN8NativeUI20NumberPickerListenerEE6resizeEi;2A.;reserve::(63,19):_ZN6MAUtil6VectorIPN8NativeUI20NumberPickerListenerEE7reserveEi;2A.;clear::(63,13):_ZN6MAUtil6VectorIPN8NativeUI20NumberPickerListenerEE5clearEv;2A.;empty::(63,24)=#(63,1),(0,4),(63,23),(0,6);:_ZNK6MAUtil6VectorIPN8NativeUI20NumberPickerListenerEE5emptyEv;2B.;capacity::(63,22):_ZNK6MAUtil6VectorIPN8NativeUI20NumberPickerListenerEE8capacityEv;2B.;begin::(63,25)=#(63,1),(63,2),(63,6),(0,6);:_ZN6MAUtil6VectorIPN8NativeUI20NumberPickerListenerEE5beginEv;2A.;end::(63,25):_ZN6MAUtil6VectorIPN8NativeUI20NumberPickerListenerEE3endEv;2A.;begin::(63,26)=#(63,1),(63,8),(63,23),(0,6);:_ZNK6MAUtil6VectorIPN8NativeUI20NumberPickerListenerEE5beginEv;2B.;end::(63,26):_ZNK6MAUtil6VectorIPN8NativeUI20NumberPickerListenerEE3endEv;2B.;operator[]::(63,27)=#(63,1),(63,28)=&(63,3),(63,6),(0,3),(0,6);:_ZN6MAUtil6VectorIPN8NativeUI20NumberPickerListenerEEixEi;2A.(63,29)=#(63,1),(63,17),(63,23),(0,3),(0,6);:_ZNK6MAUtil6VectorIPN8NativeUI20NumberPickerListenerEEixEi;2B.;pointer::(63,26):_ZNK6MAUtil6VectorIPN8NativeUI20NumberPickerListenerEE7pointerEv;2B.(63,25):_ZN6MAUtil6VectorIPN8NativeUI20NumberPickerListenerEE7pointerEv;2A.;;",128,0,95,0
	.stabn	162,0,0,0
	.stabs	"c:/MoSync/include/NativeUI/NumberPickerListener.h",130,0,0,0
	.stabn	162,0,0,0
	.stabs	"c:/MoSync/include/NativeUI/PanoramaView.h",130,0,0,0
	.stabs	"c:/MoSync/include/NativeUI/Screen.h",130,0,0,0
	.stabs	"ActionBarMenuItemDisplayFlag:t(66,1)=eSHOW_IF_ROOM:1,SHOW_ALWAYS:2,SHOW_WITH_TEXT:4,SHOW_COLLAPSE_ACTION_VIEW:8,;",128,0,51,0
	.stabs	"Vector<NativeUI::ScreenListener*>:Tt(66,2)=s12mSize:/1(0,3),0,32;mCapacity:/1(0,3),32,32;mData:/1(66,3)=*(66,4)=*(66,5)=xsScreenListener:,64,32;__base_ctor::(66,6)=#(66,2),(0,6),(66,7)=*(66,2),(0,3),(0,6);:_ZN6MAUtil6VectorIPN8NativeUI14ScreenListenerEEC2Ei;2A.;__comp_ctor::(66,6):_ZN6MAUtil6VectorIPN8NativeUI14ScreenListenerEEC1Ei;2A.;__base_ctor::(66,8)=#(66,2),(0,6),(66,7),(66,9)=*(66,10)=k(66,4),(0,3),(0,6);:_ZN6MAUtil6VectorIPN8NativeUI14ScreenListenerEEC2EPKS3_i;2A.;__comp_ctor::(66,8):_ZN6MAUtil6VectorIPN8NativeUI14ScreenListenerEEC1EPKS3_i;2A.;__base_ctor::(66,11)=#(66,2),(0,6),(66,7),(66,12)=&(66,13)=k(66,2),(0,6);:_ZN6MAUtil6VectorIPN8NativeUI14ScreenListenerEEC2ERKS4_;2A.;__comp_ctor::(66,11):_ZN6MAUtil6VectorIPN8NativeUI14ScreenListenerEEC1ERKS4_;2A.;__base_dtor::(66,14)=#(66,2),(0,6),(66,7),(0,6);:_ZN6MAUtil6VectorIPN8NativeUI14ScreenListenerEED2Ev;2A.;__comp_dtor::(66,14):_ZN6MAUtil6VectorIPN8NativeUI14ScreenListenerEED1Ev;2A.;operator=::(66,15)=#(66,2),(66,16)=&(66,2),(66,7),(66,12),(0,6);:_ZN6MAUtil6VectorIPN8NativeUI14ScreenListenerEEaSERKS4_;2A.;add::(66,17)=#(66,2),(0,6),(66,7),(66,18)=&(66,10),(0,6);:_ZN6MAUtil6VectorIPN8NativeUI14ScreenListenerEE3addERKS3_;2A.(66,8):_ZN6MAUtil6VectorIPN8NativeUI14ScreenListenerEE3addEPKS3_i;2A.;remove::(66,19)=#(66,2),(0,6),(66,7),(66,3),(0,6);:_ZN6MAUtil6VectorIPN8NativeUI14ScreenListenerEE6removeEPS3_;2A.(66,20)=#(66,2),(0,6),(66,7),(0,3),(0,6);:_ZN6MAUtil6VectorIPN8NativeUI14ScreenListenerEE6removeEi;2A.(66,21)=#(66,2),(0,6),(66,7),(0,3),(0,3),(0,6);:_ZN6MAUtil6VectorIPN8NativeUI14ScreenListenerEE6removeEii;2A.;insert::(66,22)=#(66,2),(0,6),(66,7),(0,3),(66,4),(0,6);:_ZN6MAUtil6VectorIPN8NativeUI14ScreenListenerEE6insertEiS3_;2A.;size::(66,23)=#(66,2),(0,3),(66,24)=*(66,13),(0,6);:_ZNK6MAUtil6VectorIPN8NativeUI14ScreenListenerEE4sizeEv;2B.;resize::(66,20):_ZN6MAUtil6VectorIPN8NativeUI14ScreenListenerEE6resizeEi;2A.;reserve::(66,20):_ZN6MAUtil6VectorIPN8NativeUI14ScreenListenerEE7reserveEi;2A.;clear::(66,14):_ZN6MAUtil6VectorIPN8NativeUI14ScreenListenerEE5clearEv;2A.;empty::(66,25)=#(66,2),(0,4),(66,24),(0,6);:_ZNK6MAUtil6VectorIPN8NativeUI14ScreenListenerEE5emptyEv;2B.;capacity::(66,23):_ZNK6MAUtil6VectorIPN8NativeUI14ScreenListenerEE8capacityEv;2B.;begin::(66,26)=#(66,2),(66,3),(66,7),(0,6);:_ZN6MAUtil6VectorIPN8NativeUI14ScreenListenerEE5beginEv;2A.;end::(66,26):_ZN6MAUtil6VectorIPN8NativeUI14ScreenListenerEE3endEv;2A.;begin::(66,27)=#(66,2),(66,9),(66,24),(0,6);:_ZNK6MAUtil6VectorIPN8NativeUI14ScreenListenerEE5beginEv;2B.;end::(66,27):_ZNK6MAUtil6VectorIPN8NativeUI14ScreenListenerEE3endEv;2B.;operator[]::(66,28)=#(66,2),(66,29)=&(66,4),(66,7),(0,3),(0,6);:_ZN6MAUtil6VectorIPN8NativeUI14ScreenListenerEEixEi;2A.(66,30)=#(66,2),(66,18),(66,24),(0,3),(0,6);:_ZNK6MAUtil6VectorIPN8NativeUI14ScreenListenerEEixEi;2B.;pointer::(66,27):_ZNK6MAUtil6VectorIPN8NativeUI14ScreenListenerEE7pointerEv;2B.(66,26):_ZN6MAUtil6VectorIPN8NativeUI14ScreenListenerEE7pointerEv;2A.;;",128,0,95,0
	.stabn	162,0,0,0
	.stabn	162,0,0,0
	.stabs	"c:/MoSync/include/NativeUI/ProgressBar.h",130,0,0,0
	.stabn	162,0,0,0
	.stabs	"c:/MoSync/include/NativeUI/RadioButton.h",130,0,0,0
	.stabs	"Vector<NativeUI::RadioButtonListener*>:Tt(68,1)=s12mSize:/1(0,3),0,32;mCapacity:/1(0,3),32,32;mData:/1(68,2)=*(68,3)=*(68,4)=xsRadioButtonListener:,64,32;__base_ctor::(68,5)=#(68,1),(0,6),(68,6)=*(68,1),(0,3),(0,6);:_ZN6MAUtil6VectorIPN8NativeUI19RadioButtonListenerEEC2Ei;2A.;__comp_ctor::(68,5):_ZN6MAUtil6VectorIPN8NativeUI19RadioButtonListenerEEC1Ei;2A.;__base_ctor::(68,7)=#(68,1),(0,6),(68,6),(68,8)=*(68,9)=k(68,3),(0,3),(0,6);:_ZN6MAUtil6VectorIPN8NativeUI19RadioButtonListenerEEC2EPKS3_i;2A.;__comp_ctor::(68,7):_ZN6MAUtil6VectorIPN8NativeUI19RadioButtonListenerEEC1EPKS3_i;2A.;__base_ctor::(68,10)=#(68,1),(0,6),(68,6),(68,11)=&(68,12)=k(68,1),(0,6);:_ZN6MAUtil6VectorIPN8NativeUI19RadioButtonListenerEEC2ERKS4_;2A.;__comp_ctor::(68,10):_ZN6MAUtil6VectorIPN8NativeUI19RadioButtonListenerEEC1ERKS4_;2A.;__base_dtor::(68,13)=#(68,1),(0,6),(68,6),(0,6);:_ZN6MAUtil6VectorIPN8NativeUI19RadioButtonListenerEED2Ev;2A.;__comp_dtor::(68,13):_ZN6MAUtil6VectorIPN8NativeUI19RadioButtonListenerEED1Ev;2A.;operator=::(68,14)=#(68,1),(68,15)=&(68,1),(68,6),(68,11),(0,6);:_ZN6MAUtil6VectorIPN8NativeUI19RadioButtonListenerEEaSERKS4_;2A.;add::(68,16)=#(68,1),(0,6),(68,6),(68,17)=&(68,9),(0,6);:_ZN6MAUtil6VectorIPN8NativeUI19RadioButtonListenerEE3addERKS3_;2A.(68,7):_ZN6MAUtil6VectorIPN8NativeUI19RadioButtonListenerEE3addEPKS3_i;2A.;remove::(68,18)=#(68,1),(0,6),(68,6),(68,2),(0,6);:_ZN6MAUtil6VectorIPN8NativeUI19RadioButtonListenerEE6removeEPS3_;2A.(68,19)=#(68,1),(0,6),(68,6),(0,3),(0,6);:_ZN6MAUtil6VectorIPN8NativeUI19RadioButtonListenerEE6removeEi;2A.(68,20)=#(68,1),(0,6),(68,6),(0,3),(0,3),(0,6);:_ZN6MAUtil6VectorIPN8NativeUI19RadioButtonListenerEE6removeEii;2A.;insert::(68,21)=#(68,1),(0,6),(68,6),(0,3),(68,3),(0,6);:_ZN6MAUtil6VectorIPN8NativeUI19RadioButtonListenerEE6insertEiS3_;2A.;size::(68,22)=#(68,1),(0,3),(68,23)=*(68,12),(0,6);:_ZNK6MAUtil6VectorIPN8NativeUI19RadioButtonListenerEE4sizeEv;2B.;resize::(68,19):_ZN6MAUtil6VectorIPN8NativeUI19RadioButtonListenerEE6resizeEi;2A.;reserve::(68,19):_ZN6MAUtil6VectorIPN8NativeUI19RadioButtonListenerEE7reserveEi;2A.;clear::(68,13):_ZN6MAUtil6VectorIPN8NativeUI19RadioButtonListenerEE5clearEv;2A.;empty::(68,24)=#(68,1),(0,4),(68,23),(0,6);:_ZNK6MAUtil6VectorIPN8NativeUI19RadioButtonListenerEE5emptyEv;2B.;capacity::(68,22):_ZNK6MAUtil6VectorIPN8NativeUI19RadioButtonListenerEE8capacityEv;2B.;begin::(68,25)=#(68,1),(68,2),(68,6),(0,6);:_ZN6MAUtil6VectorIPN8NativeUI19RadioButtonListenerEE5beginEv;2A.;end::(68,25):_ZN6MAUtil6VectorIPN8NativeUI19RadioButtonListenerEE3endEv;2A.;begin::(68,26)=#(68,1),(68,8),(68,23),(0,6);:_ZNK6MAUtil6VectorIPN8NativeUI19RadioButtonListenerEE5beginEv;2B.;end::(68,26):_ZNK6MAUtil6VectorIPN8NativeUI19RadioButtonListenerEE3endEv;2B.;operator[]::(68,27)=#(68,1),(68,28)=&(68,3),(68,6),(0,3),(0,6);:_ZN6MAUtil6VectorIPN8NativeUI19RadioButtonListenerEEixEi;2A.(68,29)=#(68,1),(68,17),(68,23),(0,3),(0,6);:_ZNK6MAUtil6VectorIPN8NativeUI19RadioButtonListenerEEixEi;2B.;pointer::(68,26):_ZNK6MAUtil6VectorIPN8NativeUI19RadioButtonListenerEE7pointerEv;2B.(68,25):_ZN6MAUtil6VectorIPN8NativeUI19RadioButtonListenerEE7pointerEv;2A.;;",128,0,95,0
	.stabn	162,0,0,0
	.stabs	"c:/MoSync/include/NativeUI/RadioButtonListener.h",130,0,0,0
	.stabn	162,0,0,0
	.stabs	"c:/MoSync/include/NativeUI/RadioGroup.h",130,0,0,0
	.stabs	"Vector<NativeUI::RadioGroupListener*>:Tt(70,1)=s12mSize:/1(0,3),0,32;mCapacity:/1(0,3),32,32;mData:/1(70,2)=*(70,3)=*(70,4)=xsRadioGroupListener:,64,32;__base_ctor::(70,5)=#(70,1),(0,6),(70,6)=*(70,1),(0,3),(0,6);:_ZN6MAUtil6VectorIPN8NativeUI18RadioGroupListenerEEC2Ei;2A.;__comp_ctor::(70,5):_ZN6MAUtil6VectorIPN8NativeUI18RadioGroupListenerEEC1Ei;2A.;__base_ctor::(70,7)=#(70,1),(0,6),(70,6),(70,8)=*(70,9)=k(70,3),(0,3),(0,6);:_ZN6MAUtil6VectorIPN8NativeUI18RadioGroupListenerEEC2EPKS3_i;2A.;__comp_ctor::(70,7):_ZN6MAUtil6VectorIPN8NativeUI18RadioGroupListenerEEC1EPKS3_i;2A.;__base_ctor::(70,10)=#(70,1),(0,6),(70,6),(70,11)=&(70,12)=k(70,1),(0,6);:_ZN6MAUtil6VectorIPN8NativeUI18RadioGroupListenerEEC2ERKS4_;2A.;__comp_ctor::(70,10):_ZN6MAUtil6VectorIPN8NativeUI18RadioGroupListenerEEC1ERKS4_;2A.;__base_dtor::(70,13)=#(70,1),(0,6),(70,6),(0,6);:_ZN6MAUtil6VectorIPN8NativeUI18RadioGroupListenerEED2Ev;2A.;__comp_dtor::(70,13):_ZN6MAUtil6VectorIPN8NativeUI18RadioGroupListenerEED1Ev;2A.;operator=::(70,14)=#(70,1),(70,15)=&(70,1),(70,6),(70,11),(0,6);:_ZN6MAUtil6VectorIPN8NativeUI18RadioGroupListenerEEaSERKS4_;2A.;add::(70,16)=#(70,1),(0,6),(70,6),(70,17)=&(70,9),(0,6);:_ZN6MAUtil6VectorIPN8NativeUI18RadioGroupListenerEE3addERKS3_;2A.(70,7):_ZN6MAUtil6VectorIPN8NativeUI18RadioGroupListenerEE3addEPKS3_i;2A.;remove::(70,18)=#(70,1),(0,6),(70,6),(70,2),(0,6);:_ZN6MAUtil6VectorIPN8NativeUI18RadioGroupListenerEE6removeEPS3_;2A.(70,19)=#(70,1),(0,6),(70,6),(0,3),(0,6);:_ZN6MAUtil6VectorIPN8NativeUI18RadioGroupListenerEE6removeEi;2A.(70,20)=#(70,1),(0,6),(70,6),(0,3),(0,3),(0,6);:_ZN6MAUtil6VectorIPN8NativeUI18RadioGroupListenerEE6removeEii;2A.;insert::(70,21)=#(70,1),(0,6),(70,6),(0,3),(70,3),(0,6);:_ZN6MAUtil6VectorIPN8NativeUI18RadioGroupListenerEE6insertEiS3_;2A.;size::(70,22)=#(70,1),(0,3),(70,23)=*(70,12),(0,6);:_ZNK6MAUtil6VectorIPN8NativeUI18RadioGroupListenerEE4sizeEv;2B.;resize::(70,19):_ZN6MAUtil6VectorIPN8NativeUI18RadioGroupListenerEE6resizeEi;2A.;reserve::(70,19):_ZN6MAUtil6VectorIPN8NativeUI18RadioGroupListenerEE7reserveEi;2A.;clear::(70,13):_ZN6MAUtil6VectorIPN8NativeUI18RadioGroupListenerEE5clearEv;2A.;empty::(70,24)=#(70,1),(0,4),(70,23),(0,6);:_ZNK6MAUtil6VectorIPN8NativeUI18RadioGroupListenerEE5emptyEv;2B.;capacity::(70,22):_ZNK6MAUtil6VectorIPN8NativeUI18RadioGroupListenerEE8capacityEv;2B.;begin::(70,25)=#(70,1),(70,2),(70,6),(0,6);:_ZN6MAUtil6VectorIPN8NativeUI18RadioGroupListenerEE5beginEv;2A.;end::(70,25):_ZN6MAUtil6VectorIPN8NativeUI18RadioGroupListenerEE3endEv;2A.;begin::(70,26)=#(70,1),(70,8),(70,23),(0,6);:_ZNK6MAUtil6VectorIPN8NativeUI18RadioGroupListenerEE5beginEv;2B.;end::(70,26):_ZNK6MAUtil6VectorIPN8NativeUI18RadioGroupListenerEE3endEv;2B.;operator[]::(70,27)=#(70,1),(70,28)=&(70,3),(70,6),(0,3),(0,6);:_ZN6MAUtil6VectorIPN8NativeUI18RadioGroupListenerEEixEi;2A.(70,29)=#(70,1),(70,17),(70,23),(0,3),(0,6);:_ZNK6MAUtil6VectorIPN8NativeUI18RadioGroupListenerEEixEi;2B.;pointer::(70,26):_ZNK6MAUtil6VectorIPN8NativeUI18RadioGroupListenerEE7pointerEv;2B.(70,25):_ZN6MAUtil6VectorIPN8NativeUI18RadioGroupListenerEE7pointerEv;2A.;;",128,0,95,0
	.stabs	"Vector<NativeUI::RadioButton*>:Tt(70,30)=s12mSize:/1(0,3),0,32;mCapacity:/1(0,3),32,32;mData:/1(70,31)=*(70,32)=*(70,33)=xsRadioButton:,64,32;__base_ctor::(70,34)=#(70,30),(0,6),(70,35)=*(70,30),(0,3),(0,6);:_ZN6MAUtil6VectorIPN8NativeUI11RadioButtonEEC2Ei;2A.;__comp_ctor::(70,34):_ZN6MAUtil6VectorIPN8NativeUI11RadioButtonEEC1Ei;2A.;__base_ctor::(70,36)=#(70,30),(0,6),(70,35),(70,37)=*(70,38)=k(70,32),(0,3),(0,6);:_ZN6MAUtil6VectorIPN8NativeUI11RadioButtonEEC2EPKS3_i;2A.;__comp_ctor::(70,36):_ZN6MAUtil6VectorIPN8NativeUI11RadioButtonEEC1EPKS3_i;2A.;__base_ctor::(70,39)=#(70,30),(0,6),(70,35),(70,40)=&(70,41)=k(70,30),(0,6);:_ZN6MAUtil6VectorIPN8NativeUI11RadioButtonEEC2ERKS4_;2A.;__comp_ctor::(70,39):_ZN6MAUtil6VectorIPN8NativeUI11RadioButtonEEC1ERKS4_;2A.;__base_dtor::(70,42)=#(70,30),(0,6),(70,35),(0,6);:_ZN6MAUtil6VectorIPN8NativeUI11RadioButtonEED2Ev;2A.;__comp_dtor::(70,42):_ZN6MAUtil6VectorIPN8NativeUI11RadioButtonEED1Ev;2A.;operator=::(70,43)=#(70,30),(70,44)=&(70,30),(70,35),(70,40),(0,6);:_ZN6MAUtil6VectorIPN8NativeUI11RadioButtonEEaSERKS4_;2A.;add::(70,45)=#(70,30),(0,6),(70,35),(70,46)=&(70,38),(0,6);:_ZN6MAUtil6VectorIPN8NativeUI11RadioButtonEE3addERKS3_;2A.(70,36):_ZN6MAUtil6VectorIPN8NativeUI11RadioButtonEE3addEPKS3_i;2A.;remove::(70,47)=#(70,30),(0,6),(70,35),(70,31),(0,6);:_ZN6MAUtil6VectorIPN8NativeUI11RadioButtonEE6removeEPS3_;2A.(70,48)=#(70,30),(0,6),(70,35),(0,3),(0,6);:_ZN6MAUtil6VectorIPN8NativeUI11RadioButtonEE6removeEi;2A.(70,49)=#(70,30),(0,6),(70,35),(0,3),(0,3),(0,6);:_ZN6MAUtil6VectorIPN8NativeUI11RadioButtonEE6removeEii;2A.;insert::(70,50)=#(70,30),(0,6),(70,35),(0,3),(70,32),(0,6);:_ZN6MAUtil6VectorIPN8NativeUI11RadioButtonEE6insertEiS3_;2A.;size::(70,51)=#(70,30),(0,3),(70,52)=*(70,41),(0,6);:_ZNK6MAUtil6VectorIPN8NativeUI11RadioButtonEE4sizeEv;2B.;resize::(70,48):_ZN6MAUtil6VectorIPN8NativeUI11RadioButtonEE6resizeEi;2A.;reserve::(70,48):_ZN6MAUtil6VectorIPN8NativeUI11RadioButtonEE7reserveEi;2A.;clear::(70,42):_ZN6MAUtil6VectorIPN8NativeUI11RadioButtonEE5clearEv;2A.;empty::(70,53)=#(70,30),(0,4),(70,52),(0,6);:_ZNK6MAUtil6VectorIPN8NativeUI11RadioButtonEE5emptyEv;2B.;capacity::(70,51):_ZNK6MAUtil6VectorIPN8NativeUI11RadioButtonEE8capacityEv;2B.;begin::(70,54)=#(70,30),(70,31),(70,35),(0,6);:_ZN6MAUtil6VectorIPN8NativeUI11RadioButtonEE5beginEv;2A.;end::(70,54):_ZN6MAUtil6VectorIPN8NativeUI11RadioButtonEE3endEv;2A.;begin::(70,55)=#(70,30),(70,37),(70,52),(0,6);:_ZNK6MAUtil6VectorIPN8NativeUI11RadioButtonEE5beginEv;2B.;end::(70,55):_ZNK6MAUtil6VectorIPN8NativeUI11RadioButtonEE3endEv;2B.;operator[]::(70,56)=#(70,30),(70,57)=&(70,32),(70,35),(0,3),(0,6);:_ZN6MAUtil6VectorIPN8NativeUI11RadioButtonEEixEi;2A.(70,58)=#(70,30),(70,46),(70,52),(0,3),(0,6);:_ZNK6MAUtil6VectorIPN8NativeUI11RadioButtonEEixEi;2B.;pointer::(70,55):_ZNK6MAUtil6VectorIPN8NativeUI11RadioButtonEE7pointerEv;2B.(70,54):_ZN6MAUtil6VectorIPN8NativeUI11RadioButtonEE7pointerEv;2A.;;",128,0,95,0
	.stabn	162,0,0,0
	.stabs	"c:/MoSync/include/NativeUI/RadioGroupListener.h",130,0,0,0
	.stabn	162,0,0,0
	.stabs	"c:/MoSync/include/NativeUI/RatingBar.h",130,0,0,0
	.stabs	"Vector<NativeUI::RatingBarListener*>:Tt(72,1)=s12mSize:/1(0,3),0,32;mCapacity:/1(0,3),32,32;mData:/1(72,2)=*(72,3)=*(72,4)=xsRatingBarListener:,64,32;__base_ctor::(72,5)=#(72,1),(0,6),(72,6)=*(72,1),(0,3),(0,6);:_ZN6MAUtil6VectorIPN8NativeUI17RatingBarListenerEEC2Ei;2A.;__comp_ctor::(72,5):_ZN6MAUtil6VectorIPN8NativeUI17RatingBarListenerEEC1Ei;2A.;__base_ctor::(72,7)=#(72,1),(0,6),(72,6),(72,8)=*(72,9)=k(72,3),(0,3),(0,6);:_ZN6MAUtil6VectorIPN8NativeUI17RatingBarListenerEEC2EPKS3_i;2A.;__comp_ctor::(72,7):_ZN6MAUtil6VectorIPN8NativeUI17RatingBarListenerEEC1EPKS3_i;2A.;__base_ctor::(72,10)=#(72,1),(0,6),(72,6),(72,11)=&(72,12)=k(72,1),(0,6);:_ZN6MAUtil6VectorIPN8NativeUI17RatingBarListenerEEC2ERKS4_;2A.;__comp_ctor::(72,10):_ZN6MAUtil6VectorIPN8NativeUI17RatingBarListenerEEC1ERKS4_;2A.;__base_dtor::(72,13)=#(72,1),(0,6),(72,6),(0,6);:_ZN6MAUtil6VectorIPN8NativeUI17RatingBarListenerEED2Ev;2A.;__comp_dtor::(72,13):_ZN6MAUtil6VectorIPN8NativeUI17RatingBarListenerEED1Ev;2A.;operator=::(72,14)=#(72,1),(72,15)=&(72,1),(72,6),(72,11),(0,6);:_ZN6MAUtil6VectorIPN8NativeUI17RatingBarListenerEEaSERKS4_;2A.;add::(72,16)=#(72,1),(0,6),(72,6),(72,17)=&(72,9),(0,6);:_ZN6MAUtil6VectorIPN8NativeUI17RatingBarListenerEE3addERKS3_;2A.(72,7):_ZN6MAUtil6VectorIPN8NativeUI17RatingBarListenerEE3addEPKS3_i;2A.;remove::(72,18)=#(72,1),(0,6),(72,6),(72,2),(0,6);:_ZN6MAUtil6VectorIPN8NativeUI17RatingBarListenerEE6removeEPS3_;2A.(72,19)=#(72,1),(0,6),(72,6),(0,3),(0,6);:_ZN6MAUtil6VectorIPN8NativeUI17RatingBarListenerEE6removeEi;2A.(72,20)=#(72,1),(0,6),(72,6),(0,3),(0,3),(0,6);:_ZN6MAUtil6VectorIPN8NativeUI17RatingBarListenerEE6removeEii;2A.;insert::(72,21)=#(72,1),(0,6),(72,6),(0,3),(72,3),(0,6);:_ZN6MAUtil6VectorIPN8NativeUI17RatingBarListenerEE6insertEiS3_;2A.;size::(72,22)=#(72,1),(0,3),(72,23)=*(72,12),(0,6);:_ZNK6MAUtil6VectorIPN8NativeUI17RatingBarListenerEE4sizeEv;2B.;resize::(72,19):_ZN6MAUtil6VectorIPN8NativeUI17RatingBarListenerEE6resizeEi;2A.;reserve::(72,19):_ZN6MAUtil6VectorIPN8NativeUI17RatingBarListenerEE7reserveEi;2A.;clear::(72,13):_ZN6MAUtil6VectorIPN8NativeUI17RatingBarListenerEE5clearEv;2A.;empty::(72,24)=#(72,1),(0,4),(72,23),(0,6);:_ZNK6MAUtil6VectorIPN8NativeUI17RatingBarListenerEE5emptyEv;2B.;capacity::(72,22):_ZNK6MAUtil6VectorIPN8NativeUI17RatingBarListenerEE8capacityEv;2B.;begin::(72,25)=#(72,1),(72,2),(72,6),(0,6);:_ZN6MAUtil6VectorIPN8NativeUI17RatingBarListenerEE5beginEv;2A.;end::(72,25):_ZN6MAUtil6VectorIPN8NativeUI17RatingBarListenerEE3endEv;2A.;begin::(72,26)=#(72,1),(72,8),(72,23),(0,6);:_ZNK6MAUtil6VectorIPN8NativeUI17RatingBarListenerEE5beginEv;2B.;end::(72,26):_ZNK6MAUtil6VectorIPN8NativeUI17RatingBarListenerEE3endEv;2B.;operator[]::(72,27)=#(72,1),(72,28)=&(72,3),(72,6),(0,3),(0,6);:_ZN6MAUtil6VectorIPN8NativeUI17RatingBarListenerEEixEi;2A.(72,29)=#(72,1),(72,17),(72,23),(0,3),(0,6);:_ZNK6MAUtil6VectorIPN8NativeUI17RatingBarListenerEEixEi;2B.;pointer::(72,26):_ZNK6MAUtil6VectorIPN8NativeUI17RatingBarListenerEE7pointerEv;2B.(72,25):_ZN6MAUtil6VectorIPN8NativeUI17RatingBarListenerEE7pointerEv;2A.;;",128,0,95,0
	.stabn	162,0,0,0
	.stabs	"c:/MoSync/include/NativeUI/RatingBarListener.h",130,0,0,0
	.stabn	162,0,0,0
	.stabs	"c:/MoSync/include/NativeUI/RelativeLayout.h",130,0,0,0
	.stabn	162,0,0,0
	.stabs	"c:/MoSync/include/NativeUI/ScreenListener.h",130,0,0,0
	.stabn	162,0,0,0
	.stabs	"c:/MoSync/include/NativeUI/SearchBar.h",130,0,0,0
	.stabs	"Vector<NativeUI::SearchBarListener*>:Tt(76,1)=s12mSize:/1(0,3),0,32;mCapacity:/1(0,3),32,32;mData:/1(76,2)=*(76,3)=*(76,4)=xsSearchBarListener:,64,32;__base_ctor::(76,5)=#(76,1),(0,6),(76,6)=*(76,1),(0,3),(0,6);:_ZN6MAUtil6VectorIPN8NativeUI17SearchBarListenerEEC2Ei;2A.;__comp_ctor::(76,5):_ZN6MAUtil6VectorIPN8NativeUI17SearchBarListenerEEC1Ei;2A.;__base_ctor::(76,7)=#(76,1),(0,6),(76,6),(76,8)=*(76,9)=k(76,3),(0,3),(0,6);:_ZN6MAUtil6VectorIPN8NativeUI17SearchBarListenerEEC2EPKS3_i;2A.;__comp_ctor::(76,7):_ZN6MAUtil6VectorIPN8NativeUI17SearchBarListenerEEC1EPKS3_i;2A.;__base_ctor::(76,10)=#(76,1),(0,6),(76,6),(76,11)=&(76,12)=k(76,1),(0,6);:_ZN6MAUtil6VectorIPN8NativeUI17SearchBarListenerEEC2ERKS4_;2A.;__comp_ctor::(76,10):_ZN6MAUtil6VectorIPN8NativeUI17SearchBarListenerEEC1ERKS4_;2A.;__base_dtor::(76,13)=#(76,1),(0,6),(76,6),(0,6);:_ZN6MAUtil6VectorIPN8NativeUI17SearchBarListenerEED2Ev;2A.;__comp_dtor::(76,13):_ZN6MAUtil6VectorIPN8NativeUI17SearchBarListenerEED1Ev;2A.;operator=::(76,14)=#(76,1),(76,15)=&(76,1),(76,6),(76,11),(0,6);:_ZN6MAUtil6VectorIPN8NativeUI17SearchBarListenerEEaSERKS4_;2A.;add::(76,16)=#(76,1),(0,6),(76,6),(76,17)=&(76,9),(0,6);:_ZN6MAUtil6VectorIPN8NativeUI17SearchBarListenerEE3addERKS3_;2A.(76,7):_ZN6MAUtil6VectorIPN8NativeUI17SearchBarListenerEE3addEPKS3_i;2A.;remove::(76,18)=#(76,1),(0,6),(76,6),(76,2),(0,6);:_ZN6MAUtil6VectorIPN8NativeUI17SearchBarListenerEE6removeEPS3_;2A.(76,19)=#(76,1),(0,6),(76,6),(0,3),(0,6);:_ZN6MAUtil6VectorIPN8NativeUI17SearchBarListenerEE6removeEi;2A.(76,20)=#(76,1),(0,6),(76,6),(0,3),(0,3),(0,6);:_ZN6MAUtil6VectorIPN8NativeUI17SearchBarListenerEE6removeEii;2A.;insert::(76,21)=#(76,1),(0,6),(76,6),(0,3),(76,3),(0,6);:_ZN6MAUtil6VectorIPN8NativeUI17SearchBarListenerEE6insertEiS3_;2A.;size::(76,22)=#(76,1),(0,3),(76,23)=*(76,12),(0,6);:_ZNK6MAUtil6VectorIPN8NativeUI17SearchBarListenerEE4sizeEv;2B.;resize::(76,19):_ZN6MAUtil6VectorIPN8NativeUI17SearchBarListenerEE6resizeEi;2A.;reserve::(76,19):_ZN6MAUtil6VectorIPN8NativeUI17SearchBarListenerEE7reserveEi;2A.;clear::(76,13):_ZN6MAUtil6VectorIPN8NativeUI17SearchBarListenerEE5clearEv;2A.;empty::(76,24)=#(76,1),(0,4),(76,23),(0,6);:_ZNK6MAUtil6VectorIPN8NativeUI17SearchBarListenerEE5emptyEv;2B.;capacity::(76,22):_ZNK6MAUtil6VectorIPN8NativeUI17SearchBarListenerEE8capacityEv;2B.;begin::(76,25)=#(76,1),(76,2),(76,6),(0,6);:_ZN6MAUtil6VectorIPN8NativeUI17SearchBarListenerEE5beginEv;2A.;end::(76,25):_ZN6MAUtil6VectorIPN8NativeUI17SearchBarListenerEE3endEv;2A.;begin::(76,26)=#(76,1),(76,8),(76,23),(0,6);:_ZNK6MAUtil6VectorIPN8NativeUI17SearchBarListenerEE5beginEv;2B.;end::(76,26):_ZNK6MAUtil6VectorIPN8NativeUI17SearchBarListenerEE3endEv;2B.;operator[]::(76,27)=#(76,1),(76,28)=&(76,3),(76,6),(0,3),(0,6);:_ZN6MAUtil6VectorIPN8NativeUI17SearchBarListenerEEixEi;2A.(76,29)=#(76,1),(76,17),(76,23),(0,3),(0,6);:_ZNK6MAUtil6VectorIPN8NativeUI17SearchBarListenerEEixEi;2B.;pointer::(76,26):_ZNK6MAUtil6VectorIPN8NativeUI17SearchBarListenerEE7pointerEv;2B.(76,25):_ZN6MAUtil6VectorIPN8NativeUI17SearchBarListenerEE7pointerEv;2A.;;",128,0,95,0
	.stabn	162,0,0,0
	.stabs	"c:/MoSync/include/NativeUI/SearchBarListener.h",130,0,0,0
	.stabn	162,0,0,0
	.stabs	"c:/MoSync/include/NativeUI/Slider.h",130,0,0,0
	.stabs	"Vector<NativeUI::SliderListener*>:Tt(78,1)=s12mSize:/1(0,3),0,32;mCapacity:/1(0,3),32,32;mData:/1(78,2)=*(78,3)=*(78,4)=xsSliderListener:,64,32;__base_ctor::(78,5)=#(78,1),(0,6),(78,6)=*(78,1),(0,3),(0,6);:_ZN6MAUtil6VectorIPN8NativeUI14SliderListenerEEC2Ei;2A.;__comp_ctor::(78,5):_ZN6MAUtil6VectorIPN8NativeUI14SliderListenerEEC1Ei;2A.;__base_ctor::(78,7)=#(78,1),(0,6),(78,6),(78,8)=*(78,9)=k(78,3),(0,3),(0,6);:_ZN6MAUtil6VectorIPN8NativeUI14SliderListenerEEC2EPKS3_i;2A.;__comp_ctor::(78,7):_ZN6MAUtil6VectorIPN8NativeUI14SliderListenerEEC1EPKS3_i;2A.;__base_ctor::(78,10)=#(78,1),(0,6),(78,6),(78,11)=&(78,12)=k(78,1),(0,6);:_ZN6MAUtil6VectorIPN8NativeUI14SliderListenerEEC2ERKS4_;2A.;__comp_ctor::(78,10):_ZN6MAUtil6VectorIPN8NativeUI14SliderListenerEEC1ERKS4_;2A.;__base_dtor::(78,13)=#(78,1),(0,6),(78,6),(0,6);:_ZN6MAUtil6VectorIPN8NativeUI14SliderListenerEED2Ev;2A.;__comp_dtor::(78,13):_ZN6MAUtil6VectorIPN8NativeUI14SliderListenerEED1Ev;2A.;operator=::(78,14)=#(78,1),(78,15)=&(78,1),(78,6),(78,11),(0,6);:_ZN6MAUtil6VectorIPN8NativeUI14SliderListenerEEaSERKS4_;2A.;add::(78,16)=#(78,1),(0,6),(78,6),(78,17)=&(78,9),(0,6);:_ZN6MAUtil6VectorIPN8NativeUI14SliderListenerEE3addERKS3_;2A.(78,7):_ZN6MAUtil6VectorIPN8NativeUI14SliderListenerEE3addEPKS3_i;2A.;remove::(78,18)=#(78,1),(0,6),(78,6),(78,2),(0,6);:_ZN6MAUtil6VectorIPN8NativeUI14SliderListenerEE6removeEPS3_;2A.(78,19)=#(78,1),(0,6),(78,6),(0,3),(0,6);:_ZN6MAUtil6VectorIPN8NativeUI14SliderListenerEE6removeEi;2A.(78,20)=#(78,1),(0,6),(78,6),(0,3),(0,3),(0,6);:_ZN6MAUtil6VectorIPN8NativeUI14SliderListenerEE6removeEii;2A.;insert::(78,21)=#(78,1),(0,6),(78,6),(0,3),(78,3),(0,6);:_ZN6MAUtil6VectorIPN8NativeUI14SliderListenerEE6insertEiS3_;2A.;size::(78,22)=#(78,1),(0,3),(78,23)=*(78,12),(0,6);:_ZNK6MAUtil6VectorIPN8NativeUI14SliderListenerEE4sizeEv;2B.;resize::(78,19):_ZN6MAUtil6VectorIPN8NativeUI14SliderListenerEE6resizeEi;2A.;reserve::(78,19):_ZN6MAUtil6VectorIPN8NativeUI14SliderListenerEE7reserveEi;2A.;clear::(78,13):_ZN6MAUtil6VectorIPN8NativeUI14SliderListenerEE5clearEv;2A.;empty::(78,24)=#(78,1),(0,4),(78,23),(0,6);:_ZNK6MAUtil6VectorIPN8NativeUI14SliderListenerEE5emptyEv;2B.;capacity::(78,22):_ZNK6MAUtil6VectorIPN8NativeUI14SliderListenerEE8capacityEv;2B.;begin::(78,25)=#(78,1),(78,2),(78,6),(0,6);:_ZN6MAUtil6VectorIPN8NativeUI14SliderListenerEE5beginEv;2A.;end::(78,25):_ZN6MAUtil6VectorIPN8NativeUI14SliderListenerEE3endEv;2A.;begin::(78,26)=#(78,1),(78,8),(78,23),(0,6);:_ZNK6MAUtil6VectorIPN8NativeUI14SliderListenerEE5beginEv;2B.;end::(78,26):_ZNK6MAUtil6VectorIPN8NativeUI14SliderListenerEE3endEv;2B.;operator[]::(78,27)=#(78,1),(78,28)=&(78,3),(78,6),(0,3),(0,6);:_ZN6MAUtil6VectorIPN8NativeUI14SliderListenerEEixEi;2A.(78,29)=#(78,1),(78,17),(78,23),(0,3),(0,6);:_ZNK6MAUtil6VectorIPN8NativeUI14SliderListenerEEixEi;2B.;pointer::(78,26):_ZNK6MAUtil6VectorIPN8NativeUI14SliderListenerEE7pointerEv;2B.(78,25):_ZN6MAUtil6VectorIPN8NativeUI14SliderListenerEE7pointerEv;2A.;;",128,0,95,0
	.stabn	162,0,0,0
	.stabs	"c:/MoSync/include/NativeUI/SliderListener.h",130,0,0,0
	.stabn	162,0,0,0
	.stabs	"c:/MoSync/include/NativeUI/StackScreen.h",130,0,0,0
	.stabs	"Vector<NativeUI::StackScreenListener*>:Tt(80,1)=s12mSize:/1(0,3),0,32;mCapacity:/1(0,3),32,32;mData:/1(80,2)=*(80,3)=*(80,4)=xsStackScreenListener:,64,32;__base_ctor::(80,5)=#(80,1),(0,6),(80,6)=*(80,1),(0,3),(0,6);:_ZN6MAUtil6VectorIPN8NativeUI19StackScreenListenerEEC2Ei;2A.;__comp_ctor::(80,5):_ZN6MAUtil6VectorIPN8NativeUI19StackScreenListenerEEC1Ei;2A.;__base_ctor::(80,7)=#(80,1),(0,6),(80,6),(80,8)=*(80,9)=k(80,3),(0,3),(0,6);:_ZN6MAUtil6VectorIPN8NativeUI19StackScreenListenerEEC2EPKS3_i;2A.;__comp_ctor::(80,7):_ZN6MAUtil6VectorIPN8NativeUI19StackScreenListenerEEC1EPKS3_i;2A.;__base_ctor::(80,10)=#(80,1),(0,6),(80,6),(80,11)=&(80,12)=k(80,1),(0,6);:_ZN6MAUtil6VectorIPN8NativeUI19StackScreenListenerEEC2ERKS4_;2A.;__comp_ctor::(80,10):_ZN6MAUtil6VectorIPN8NativeUI19StackScreenListenerEEC1ERKS4_;2A.;__base_dtor::(80,13)=#(80,1),(0,6),(80,6),(0,6);:_ZN6MAUtil6VectorIPN8NativeUI19StackScreenListenerEED2Ev;2A.;__comp_dtor::(80,13):_ZN6MAUtil6VectorIPN8NativeUI19StackScreenListenerEED1Ev;2A.;operator=::(80,14)=#(80,1),(80,15)=&(80,1),(80,6),(80,11),(0,6);:_ZN6MAUtil6VectorIPN8NativeUI19StackScreenListenerEEaSERKS4_;2A.;add::(80,16)=#(80,1),(0,6),(80,6),(80,17)=&(80,9),(0,6);:_ZN6MAUtil6VectorIPN8NativeUI19StackScreenListenerEE3addERKS3_;2A.(80,7):_ZN6MAUtil6VectorIPN8NativeUI19StackScreenListenerEE3addEPKS3_i;2A.;remove::(80,18)=#(80,1),(0,6),(80,6),(80,2),(0,6);:_ZN6MAUtil6VectorIPN8NativeUI19StackScreenListenerEE6removeEPS3_;2A.(80,19)=#(80,1),(0,6),(80,6),(0,3),(0,6);:_ZN6MAUtil6VectorIPN8NativeUI19StackScreenListenerEE6removeEi;2A.(80,20)=#(80,1),(0,6),(80,6),(0,3),(0,3),(0,6);:_ZN6MAUtil6VectorIPN8NativeUI19StackScreenListenerEE6removeEii;2A.;insert::(80,21)=#(80,1),(0,6),(80,6),(0,3),(80,3),(0,6);:_ZN6MAUtil6VectorIPN8NativeUI19StackScreenListenerEE6insertEiS3_;2A.;size::(80,22)=#(80,1),(0,3),(80,23)=*(80,12),(0,6);:_ZNK6MAUtil6VectorIPN8NativeUI19StackScreenListenerEE4sizeEv;2B.;resize::(80,19):_ZN6MAUtil6VectorIPN8NativeUI19StackScreenListenerEE6resizeEi;2A.;reserve::(80,19):_ZN6MAUtil6VectorIPN8NativeUI19StackScreenListenerEE7reserveEi;2A.;clear::(80,13):_ZN6MAUtil6VectorIPN8NativeUI19StackScreenListenerEE5clearEv;2A.;empty::(80,24)=#(80,1),(0,4),(80,23),(0,6);:_ZNK6MAUtil6VectorIPN8NativeUI19StackScreenListenerEE5emptyEv;2B.;capacity::(80,22):_ZNK6MAUtil6VectorIPN8NativeUI19StackScreenListenerEE8capacityEv;2B.;begin::(80,25)=#(80,1),(80,2),(80,6),(0,6);:_ZN6MAUtil6VectorIPN8NativeUI19StackScreenListenerEE5beginEv;2A.;end::(80,25):_ZN6MAUtil6VectorIPN8NativeUI19StackScreenListenerEE3endEv;2A.;begin::(80,26)=#(80,1),(80,8),(80,23),(0,6);:_ZNK6MAUtil6VectorIPN8NativeUI19StackScreenListenerEE5beginEv;2B.;end::(80,26):_ZNK6MAUtil6VectorIPN8NativeUI19StackScreenListenerEE3endEv;2B.;operator[]::(80,27)=#(80,1),(80,28)=&(80,3),(80,6),(0,3),(0,6);:_ZN6MAUtil6VectorIPN8NativeUI19StackScreenListenerEEixEi;2A.(80,29)=#(80,1),(80,17),(80,23),(0,3),(0,6);:_ZNK6MAUtil6VectorIPN8NativeUI19StackScreenListenerEEixEi;2B.;pointer::(80,26):_ZNK6MAUtil6VectorIPN8NativeUI19StackScreenListenerEE7pointerEv;2B.(80,25):_ZN6MAUtil6VectorIPN8NativeUI19StackScreenListenerEE7pointerEv;2A.;;",128,0,95,0
	.stabs	"Vector<NativeUI::Screen*>:Tt(80,30)=s12mSize:/1(0,3),0,32;mCapacity:/1(0,3),32,32;mData:/1(80,31)=*(80,32)=*(80,33)=xsScreen:,64,32;__base_ctor::(80,34)=#(80,30),(0,6),(80,35)=*(80,30),(0,3),(0,6);:_ZN6MAUtil6VectorIPN8NativeUI6ScreenEEC2Ei;2A.;__comp_ctor::(80,34):_ZN6MAUtil6VectorIPN8NativeUI6ScreenEEC1Ei;2A.;__base_ctor::(80,36)=#(80,30),(0,6),(80,35),(80,37)=*(80,38)=k(80,32),(0,3),(0,6);:_ZN6MAUtil6VectorIPN8NativeUI6ScreenEEC2EPKS3_i;2A.;__comp_ctor::(80,36):_ZN6MAUtil6VectorIPN8NativeUI6ScreenEEC1EPKS3_i;2A.;__base_ctor::(80,39)=#(80,30),(0,6),(80,35),(80,40)=&(80,41)=k(80,30),(0,6);:_ZN6MAUtil6VectorIPN8NativeUI6ScreenEEC2ERKS4_;2A.;__comp_ctor::(80,39):_ZN6MAUtil6VectorIPN8NativeUI6ScreenEEC1ERKS4_;2A.;__base_dtor::(80,42)=#(80,30),(0,6),(80,35),(0,6);:_ZN6MAUtil6VectorIPN8NativeUI6ScreenEED2Ev;2A.;__comp_dtor::(80,42):_ZN6MAUtil6VectorIPN8NativeUI6ScreenEED1Ev;2A.;operator=::(80,43)=#(80,30),(80,44)=&(80,30),(80,35),(80,40),(0,6);:_ZN6MAUtil6VectorIPN8NativeUI6ScreenEEaSERKS4_;2A.;add::(80,45)=#(80,30),(0,6),(80,35),(80,46)=&(80,38),(0,6);:_ZN6MAUtil6VectorIPN8NativeUI6ScreenEE3addERKS3_;2A.(80,36):_ZN6MAUtil6VectorIPN8NativeUI6ScreenEE3addEPKS3_i;2A.;remove::(80,47)=#(80,30),(0,6),(80,35),(80,31),(0,6);:_ZN6MAUtil6VectorIPN8NativeUI6ScreenEE6removeEPS3_;2A.(80,48)=#(80,30),(0,6),(80,35),(0,3),(0,6);:_ZN6MAUtil6VectorIPN8NativeUI6ScreenEE6removeEi;2A.(80,49)=#(80,30),(0,6),(80,35),(0,3),(0,3),(0,6);:_ZN6MAUtil6VectorIPN8NativeUI6ScreenEE6removeEii;2A.;insert::(80,50)=#(80,30),(0,6),(80,35),(0,3),(80,32),(0,6);:_ZN6MAUtil6VectorIPN8NativeUI6ScreenEE6insertEiS3_;2A.;size::(80,51)=#(80,30),(0,3),(80,52)=*(80,41),(0,6);:_ZNK6MAUtil6VectorIPN8NativeUI6ScreenEE4sizeEv;2B.;resize::(80,48):_ZN6MAUtil6VectorIPN8NativeUI6ScreenEE6resizeEi;2A.;reserve::(80,48):_ZN6MAUtil6VectorIPN8NativeUI6ScreenEE7reserveEi;2A.;clear::(80,42):_ZN6MAUtil6VectorIPN8NativeUI6ScreenEE5clearEv;2A.;empty::(80,53)=#(80,30),(0,4),(80,52),(0,6);:_ZNK6MAUtil6VectorIPN8NativeUI6ScreenEE5emptyEv;2B.;capacity::(80,51):_ZNK6MAUtil6VectorIPN8NativeUI6ScreenEE8capacityEv;2B.;begin::(80,54)=#(80,30),(80,31),(80,35),(0,6);:_ZN6MAUtil6VectorIPN8NativeUI6ScreenEE5beginEv;2A.;end::(80,54):_ZN6MAUtil6VectorIPN8NativeUI6ScreenEE3endEv;2A.;begin::(80,55)=#(80,30),(80,37),(80,52),(0,6);:_ZNK6MAUtil6VectorIPN8NativeUI6ScreenEE5beginEv;2B.;end::(80,55):_ZNK6MAUtil6VectorIPN8NativeUI6ScreenEE3endEv;2B.;operator[]::(80,56)=#(80,30),(80,57)=&(80,32),(80,35),(0,3),(0,6);:_ZN6MAUtil6VectorIPN8NativeUI6ScreenEEixEi;2A.(80,58)=#(80,30),(80,46),(80,52),(0,3),(0,6);:_ZNK6MAUtil6VectorIPN8NativeUI6ScreenEEixEi;2B.;pointer::(80,55):_ZNK6MAUtil6VectorIPN8NativeUI6ScreenEE7pointerEv;2B.(80,54):_ZN6MAUtil6VectorIPN8NativeUI6ScreenEE7pointerEv;2A.;;",128,0,95,0
	.stabn	162,0,0,0
	.stabs	"c:/MoSync/include/NativeUI/StackScreenListener.h",130,0,0,0
	.stabn	162,0,0,0
	.stabs	"c:/MoSync/include/NativeUI/TabScreen.h",130,0,0,0
	.stabs	"Vector<NativeUI::TabScreenListener*>:Tt(82,1)=s12mSize:/1(0,3),0,32;mCapacity:/1(0,3),32,32;mData:/1(82,2)=*(82,3)=*(82,4)=xsTabScreenListener:,64,32;__base_ctor::(82,5)=#(82,1),(0,6),(82,6)=*(82,1),(0,3),(0,6);:_ZN6MAUtil6VectorIPN8NativeUI17TabScreenListenerEEC2Ei;2A.;__comp_ctor::(82,5):_ZN6MAUtil6VectorIPN8NativeUI17TabScreenListenerEEC1Ei;2A.;__base_ctor::(82,7)=#(82,1),(0,6),(82,6),(82,8)=*(82,9)=k(82,3),(0,3),(0,6);:_ZN6MAUtil6VectorIPN8NativeUI17TabScreenListenerEEC2EPKS3_i;2A.;__comp_ctor::(82,7):_ZN6MAUtil6VectorIPN8NativeUI17TabScreenListenerEEC1EPKS3_i;2A.;__base_ctor::(82,10)=#(82,1),(0,6),(82,6),(82,11)=&(82,12)=k(82,1),(0,6);:_ZN6MAUtil6VectorIPN8NativeUI17TabScreenListenerEEC2ERKS4_;2A.;__comp_ctor::(82,10):_ZN6MAUtil6VectorIPN8NativeUI17TabScreenListenerEEC1ERKS4_;2A.;__base_dtor::(82,13)=#(82,1),(0,6),(82,6),(0,6);:_ZN6MAUtil6VectorIPN8NativeUI17TabScreenListenerEED2Ev;2A.;__comp_dtor::(82,13):_ZN6MAUtil6VectorIPN8NativeUI17TabScreenListenerEED1Ev;2A.;operator=::(82,14)=#(82,1),(82,15)=&(82,1),(82,6),(82,11),(0,6);:_ZN6MAUtil6VectorIPN8NativeUI17TabScreenListenerEEaSERKS4_;2A.;add::(82,16)=#(82,1),(0,6),(82,6),(82,17)=&(82,9),(0,6);:_ZN6MAUtil6VectorIPN8NativeUI17TabScreenListenerEE3addERKS3_;2A.(82,7):_ZN6MAUtil6VectorIPN8NativeUI17TabScreenListenerEE3addEPKS3_i;2A.;remove::(82,18)=#(82,1),(0,6),(82,6),(82,2),(0,6);:_ZN6MAUtil6VectorIPN8NativeUI17TabScreenListenerEE6removeEPS3_;2A.(82,19)=#(82,1),(0,6),(82,6),(0,3),(0,6);:_ZN6MAUtil6VectorIPN8NativeUI17TabScreenListenerEE6removeEi;2A.(82,20)=#(82,1),(0,6),(82,6),(0,3),(0,3),(0,6);:_ZN6MAUtil6VectorIPN8NativeUI17TabScreenListenerEE6removeEii;2A.;insert::(82,21)=#(82,1),(0,6),(82,6),(0,3),(82,3),(0,6);:_ZN6MAUtil6VectorIPN8NativeUI17TabScreenListenerEE6insertEiS3_;2A.;size::(82,22)=#(82,1),(0,3),(82,23)=*(82,12),(0,6);:_ZNK6MAUtil6VectorIPN8NativeUI17TabScreenListenerEE4sizeEv;2B.;resize::(82,19):_ZN6MAUtil6VectorIPN8NativeUI17TabScreenListenerEE6resizeEi;2A.;reserve::(82,19):_ZN6MAUtil6VectorIPN8NativeUI17TabScreenListenerEE7reserveEi;2A.;clear::(82,13):_ZN6MAUtil6VectorIPN8NativeUI17TabScreenListenerEE5clearEv;2A.;empty::(82,24)=#(82,1),(0,4),(82,23),(0,6);:_ZNK6MAUtil6VectorIPN8NativeUI17TabScreenListenerEE5emptyEv;2B.;capacity::(82,22):_ZNK6MAUtil6VectorIPN8NativeUI17TabScreenListenerEE8capacityEv;2B.;begin::(82,25)=#(82,1),(82,2),(82,6),(0,6);:_ZN6MAUtil6VectorIPN8NativeUI17TabScreenListenerEE5beginEv;2A.;end::(82,25):_ZN6MAUtil6VectorIPN8NativeUI17TabScreenListenerEE3endEv;2A.;begin::(82,26)=#(82,1),(82,8),(82,23),(0,6);:_ZNK6MAUtil6VectorIPN8NativeUI17TabScreenListenerEE5beginEv;2B.;end::(82,26):_ZNK6MAUtil6VectorIPN8NativeUI17TabScreenListenerEE3endEv;2B.;operator[]::(82,27)=#(82,1),(82,28)=&(82,3),(82,6),(0,3),(0,6);:_ZN6MAUtil6VectorIPN8NativeUI17TabScreenListenerEEixEi;2A.(82,29)=#(82,1),(82,17),(82,23),(0,3),(0,6);:_ZNK6MAUtil6VectorIPN8NativeUI17TabScreenListenerEEixEi;2B.;pointer::(82,26):_ZNK6MAUtil6VectorIPN8NativeUI17TabScreenListenerEE7pointerEv;2B.(82,25):_ZN6MAUtil6VectorIPN8NativeUI17TabScreenListenerEE7pointerEv;2A.;;",128,0,95,0
	.stabn	162,0,0,0
	.stabs	"c:/MoSync/include/NativeUI/TabScreenListener.h",130,0,0,0
	.stabn	162,0,0,0
	.stabs	"c:/MoSync/include/NativeUI/TimePicker.h",130,0,0,0
	.stabs	"Vector<NativeUI::TimePickerListener*>:Tt(84,1)=s12mSize:/1(0,3),0,32;mCapacity:/1(0,3),32,32;mData:/1(84,2)=*(84,3)=*(84,4)=xsTimePickerListener:,64,32;__base_ctor::(84,5)=#(84,1),(0,6),(84,6)=*(84,1),(0,3),(0,6);:_ZN6MAUtil6VectorIPN8NativeUI18TimePickerListenerEEC2Ei;2A.;__comp_ctor::(84,5):_ZN6MAUtil6VectorIPN8NativeUI18TimePickerListenerEEC1Ei;2A.;__base_ctor::(84,7)=#(84,1),(0,6),(84,6),(84,8)=*(84,9)=k(84,3),(0,3),(0,6);:_ZN6MAUtil6VectorIPN8NativeUI18TimePickerListenerEEC2EPKS3_i;2A.;__comp_ctor::(84,7):_ZN6MAUtil6VectorIPN8NativeUI18TimePickerListenerEEC1EPKS3_i;2A.;__base_ctor::(84,10)=#(84,1),(0,6),(84,6),(84,11)=&(84,12)=k(84,1),(0,6);:_ZN6MAUtil6VectorIPN8NativeUI18TimePickerListenerEEC2ERKS4_;2A.;__comp_ctor::(84,10):_ZN6MAUtil6VectorIPN8NativeUI18TimePickerListenerEEC1ERKS4_;2A.;__base_dtor::(84,13)=#(84,1),(0,6),(84,6),(0,6);:_ZN6MAUtil6VectorIPN8NativeUI18TimePickerListenerEED2Ev;2A.;__comp_dtor::(84,13):_ZN6MAUtil6VectorIPN8NativeUI18TimePickerListenerEED1Ev;2A.;operator=::(84,14)=#(84,1),(84,15)=&(84,1),(84,6),(84,11),(0,6);:_ZN6MAUtil6VectorIPN8NativeUI18TimePickerListenerEEaSERKS4_;2A.;add::(84,16)=#(84,1),(0,6),(84,6),(84,17)=&(84,9),(0,6);:_ZN6MAUtil6VectorIPN8NativeUI18TimePickerListenerEE3addERKS3_;2A.(84,7):_ZN6MAUtil6VectorIPN8NativeUI18TimePickerListenerEE3addEPKS3_i;2A.;remove::(84,18)=#(84,1),(0,6),(84,6),(84,2),(0,6);:_ZN6MAUtil6VectorIPN8NativeUI18TimePickerListenerEE6removeEPS3_;2A.(84,19)=#(84,1),(0,6),(84,6),(0,3),(0,6);:_ZN6MAUtil6VectorIPN8NativeUI18TimePickerListenerEE6removeEi;2A.(84,20)=#(84,1),(0,6),(84,6),(0,3),(0,3),(0,6);:_ZN6MAUtil6VectorIPN8NativeUI18TimePickerListenerEE6removeEii;2A.;insert::(84,21)=#(84,1),(0,6),(84,6),(0,3),(84,3),(0,6);:_ZN6MAUtil6VectorIPN8NativeUI18TimePickerListenerEE6insertEiS3_;2A.;size::(84,22)=#(84,1),(0,3),(84,23)=*(84,12),(0,6);:_ZNK6MAUtil6VectorIPN8NativeUI18TimePickerListenerEE4sizeEv;2B.;resize::(84,19):_ZN6MAUtil6VectorIPN8NativeUI18TimePickerListenerEE6resizeEi;2A.;reserve::(84,19):_ZN6MAUtil6VectorIPN8NativeUI18TimePickerListenerEE7reserveEi;2A.;clear::(84,13):_ZN6MAUtil6VectorIPN8NativeUI18TimePickerListenerEE5clearEv;2A.;empty::(84,24)=#(84,1),(0,4),(84,23),(0,6);:_ZNK6MAUtil6VectorIPN8NativeUI18TimePickerListenerEE5emptyEv;2B.;capacity::(84,22):_ZNK6MAUtil6VectorIPN8NativeUI18TimePickerListenerEE8capacityEv;2B.;begin::(84,25)=#(84,1),(84,2),(84,6),(0,6);:_ZN6MAUtil6VectorIPN8NativeUI18TimePickerListenerEE5beginEv;2A.;end::(84,25):_ZN6MAUtil6VectorIPN8NativeUI18TimePickerListenerEE3endEv;2A.;begin::(84,26)=#(84,1),(84,8),(84,23),(0,6);:_ZNK6MAUtil6VectorIPN8NativeUI18TimePickerListenerEE5beginEv;2B.;end::(84,26):_ZNK6MAUtil6VectorIPN8NativeUI18TimePickerListenerEE3endEv;2B.;operator[]::(84,27)=#(84,1),(84,28)=&(84,3),(84,6),(0,3),(0,6);:_ZN6MAUtil6VectorIPN8NativeUI18TimePickerListenerEEixEi;2A.(84,29)=#(84,1),(84,17),(84,23),(0,3),(0,6);:_ZNK6MAUtil6VectorIPN8NativeUI18TimePickerListenerEEixEi;2B.;pointer::(84,26):_ZNK6MAUtil6VectorIPN8NativeUI18TimePickerListenerEE7pointerEv;2B.(84,25):_ZN6MAUtil6VectorIPN8NativeUI18TimePickerListenerEE7pointerEv;2A.;;",128,0,95,0
	.stabn	162,0,0,0
	.stabs	"c:/MoSync/include/NativeUI/TimePickerListener.h",130,0,0,0
	.stabn	162,0,0,0
	.stabs	"c:/MoSync/include/NativeUI/ToggleButton.h",130,0,0,0
	.stabs	"Vector<NativeUI::ToggleButtonListener*>:Tt(86,1)=s12mSize:/1(0,3),0,32;mCapacity:/1(0,3),32,32;mData:/1(86,2)=*(86,3)=*(86,4)=xsToggleButtonListener:,64,32;__base_ctor::(86,5)=#(86,1),(0,6),(86,6)=*(86,1),(0,3),(0,6);:_ZN6MAUtil6VectorIPN8NativeUI20ToggleButtonListenerEEC2Ei;2A.;__comp_ctor::(86,5):_ZN6MAUtil6VectorIPN8NativeUI20ToggleButtonListenerEEC1Ei;2A.;__base_ctor::(86,7)=#(86,1),(0,6),(86,6),(86,8)=*(86,9)=k(86,3),(0,3),(0,6);:_ZN6MAUtil6VectorIPN8NativeUI20ToggleButtonListenerEEC2EPKS3_i;2A.;__comp_ctor::(86,7):_ZN6MAUtil6VectorIPN8NativeUI20ToggleButtonListenerEEC1EPKS3_i;2A.;__base_ctor::(86,10)=#(86,1),(0,6),(86,6),(86,11)=&(86,12)=k(86,1),(0,6);:_ZN6MAUtil6VectorIPN8NativeUI20ToggleButtonListenerEEC2ERKS4_;2A.;__comp_ctor::(86,10):_ZN6MAUtil6VectorIPN8NativeUI20ToggleButtonListenerEEC1ERKS4_;2A.;__base_dtor::(86,13)=#(86,1),(0,6),(86,6),(0,6);:_ZN6MAUtil6VectorIPN8NativeUI20ToggleButtonListenerEED2Ev;2A.;__comp_dtor::(86,13):_ZN6MAUtil6VectorIPN8NativeUI20ToggleButtonListenerEED1Ev;2A.;operator=::(86,14)=#(86,1),(86,15)=&(86,1),(86,6),(86,11),(0,6);:_ZN6MAUtil6VectorIPN8NativeUI20ToggleButtonListenerEEaSERKS4_;2A.;add::(86,16)=#(86,1),(0,6),(86,6),(86,17)=&(86,9),(0,6);:_ZN6MAUtil6VectorIPN8NativeUI20ToggleButtonListenerEE3addERKS3_;2A.(86,7):_ZN6MAUtil6VectorIPN8NativeUI20ToggleButtonListenerEE3addEPKS3_i;2A.;remove::(86,18)=#(86,1),(0,6),(86,6),(86,2),(0,6);:_ZN6MAUtil6VectorIPN8NativeUI20ToggleButtonListenerEE6removeEPS3_;2A.(86,19)=#(86,1),(0,6),(86,6),(0,3),(0,6);:_ZN6MAUtil6VectorIPN8NativeUI20ToggleButtonListenerEE6removeEi;2A.(86,20)=#(86,1),(0,6),(86,6),(0,3),(0,3),(0,6);:_ZN6MAUtil6VectorIPN8NativeUI20ToggleButtonListenerEE6removeEii;2A.;insert::(86,21)=#(86,1),(0,6),(86,6),(0,3),(86,3),(0,6);:_ZN6MAUtil6VectorIPN8NativeUI20ToggleButtonListenerEE6insertEiS3_;2A.;size::(86,22)=#(86,1),(0,3),(86,23)=*(86,12),(0,6);:_ZNK6MAUtil6VectorIPN8NativeUI20ToggleButtonListenerEE4sizeEv;2B.;resize::(86,19):_ZN6MAUtil6VectorIPN8NativeUI20ToggleButtonListenerEE6resizeEi;2A.;reserve::(86,19):_ZN6MAUtil6VectorIPN8NativeUI20ToggleButtonListenerEE7reserveEi;2A.;clear::(86,13):_ZN6MAUtil6VectorIPN8NativeUI20ToggleButtonListenerEE5clearEv;2A.;empty::(86,24)=#(86,1),(0,4),(86,23),(0,6);:_ZNK6MAUtil6VectorIPN8NativeUI20ToggleButtonListenerEE5emptyEv;2B.;capacity::(86,22):_ZNK6MAUtil6VectorIPN8NativeUI20ToggleButtonListenerEE8capacityEv;2B.;begin::(86,25)=#(86,1),(86,2),(86,6),(0,6);:_ZN6MAUtil6VectorIPN8NativeUI20ToggleButtonListenerEE5beginEv;2A.;end::(86,25):_ZN6MAUtil6VectorIPN8NativeUI20ToggleButtonListenerEE3endEv;2A.;begin::(86,26)=#(86,1),(86,8),(86,23),(0,6);:_ZNK6MAUtil6VectorIPN8NativeUI20ToggleButtonListenerEE5beginEv;2B.;end::(86,26):_ZNK6MAUtil6VectorIPN8NativeUI20ToggleButtonListenerEE3endEv;2B.;operator[]::(86,27)=#(86,1),(86,28)=&(86,3),(86,6),(0,3),(0,6);:_ZN6MAUtil6VectorIPN8NativeUI20ToggleButtonListenerEEixEi;2A.(86,29)=#(86,1),(86,17),(86,23),(0,3),(0,6);:_ZNK6MAUtil6VectorIPN8NativeUI20ToggleButtonListenerEEixEi;2B.;pointer::(86,26):_ZNK6MAUtil6VectorIPN8NativeUI20ToggleButtonListenerEE7pointerEv;2B.(86,25):_ZN6MAUtil6VectorIPN8NativeUI20ToggleButtonListenerEE7pointerEv;2A.;;",128,0,95,0
	.stabn	162,0,0,0
	.stabs	"c:/MoSync/include/NativeUI/ToggleButtonListener.h",130,0,0,0
	.stabn	162,0,0,0
	.stabs	"c:/MoSync/include/NativeUI/VerticalLayout.h",130,0,0,0
	.stabn	162,0,0,0
	.stabs	"c:/MoSync/include/NativeUI/VideoView.h",130,0,0,0
	.stabs	"Vector<NativeUI::VideoViewListener*>:Tt(89,1)=s12mSize:/1(0,3),0,32;mCapacity:/1(0,3),32,32;mData:/1(89,2)=*(89,3)=*(89,4)=xsVideoViewListener:,64,32;__base_ctor::(89,5)=#(89,1),(0,6),(89,6)=*(89,1),(0,3),(0,6);:_ZN6MAUtil6VectorIPN8NativeUI17VideoViewListenerEEC2Ei;2A.;__comp_ctor::(89,5):_ZN6MAUtil6VectorIPN8NativeUI17VideoViewListenerEEC1Ei;2A.;__base_ctor::(89,7)=#(89,1),(0,6),(89,6),(89,8)=*(89,9)=k(89,3),(0,3),(0,6);:_ZN6MAUtil6VectorIPN8NativeUI17VideoViewListenerEEC2EPKS3_i;2A.;__comp_ctor::(89,7):_ZN6MAUtil6VectorIPN8NativeUI17VideoViewListenerEEC1EPKS3_i;2A.;__base_ctor::(89,10)=#(89,1),(0,6),(89,6),(89,11)=&(89,12)=k(89,1),(0,6);:_ZN6MAUtil6VectorIPN8NativeUI17VideoViewListenerEEC2ERKS4_;2A.;__comp_ctor::(89,10):_ZN6MAUtil6VectorIPN8NativeUI17VideoViewListenerEEC1ERKS4_;2A.;__base_dtor::(89,13)=#(89,1),(0,6),(89,6),(0,6);:_ZN6MAUtil6VectorIPN8NativeUI17VideoViewListenerEED2Ev;2A.;__comp_dtor::(89,13):_ZN6MAUtil6VectorIPN8NativeUI17VideoViewListenerEED1Ev;2A.;operator=::(89,14)=#(89,1),(89,15)=&(89,1),(89,6),(89,11),(0,6);:_ZN6MAUtil6VectorIPN8NativeUI17VideoViewListenerEEaSERKS4_;2A.;add::(89,16)=#(89,1),(0,6),(89,6),(89,17)=&(89,9),(0,6);:_ZN6MAUtil6VectorIPN8NativeUI17VideoViewListenerEE3addERKS3_;2A.(89,7):_ZN6MAUtil6VectorIPN8NativeUI17VideoViewListenerEE3addEPKS3_i;2A.;remove::(89,18)=#(89,1),(0,6),(89,6),(89,2),(0,6);:_ZN6MAUtil6VectorIPN8NativeUI17VideoViewListenerEE6removeEPS3_;2A.(89,19)=#(89,1),(0,6),(89,6),(0,3),(0,6);:_ZN6MAUtil6VectorIPN8NativeUI17VideoViewListenerEE6removeEi;2A.(89,20)=#(89,1),(0,6),(89,6),(0,3),(0,3),(0,6);:_ZN6MAUtil6VectorIPN8NativeUI17VideoViewListenerEE6removeEii;2A.;insert::(89,21)=#(89,1),(0,6),(89,6),(0,3),(89,3),(0,6);:_ZN6MAUtil6VectorIPN8NativeUI17VideoViewListenerEE6insertEiS3_;2A.;size::(89,22)=#(89,1),(0,3),(89,23)=*(89,12),(0,6);:_ZNK6MAUtil6VectorIPN8NativeUI17VideoViewListenerEE4sizeEv;2B.;resize::(89,19):_ZN6MAUtil6VectorIPN8NativeUI17VideoViewListenerEE6resizeEi;2A.;reserve::(89,19):_ZN6MAUtil6VectorIPN8NativeUI17VideoViewListenerEE7reserveEi;2A.;clear::(89,13):_ZN6MAUtil6VectorIPN8NativeUI17VideoViewListenerEE5clearEv;2A.;empty::(89,24)=#(89,1),(0,4),(89,23),(0,6);:_ZNK6MAUtil6VectorIPN8NativeUI17VideoViewListenerEE5emptyEv;2B.;capacity::(89,22):_ZNK6MAUtil6VectorIPN8NativeUI17VideoViewListenerEE8capacityEv;2B.;begin::(89,25)=#(89,1),(89,2),(89,6),(0,6);:_ZN6MAUtil6VectorIPN8NativeUI17VideoViewListenerEE5beginEv;2A.;end::(89,25):_ZN6MAUtil6VectorIPN8NativeUI17VideoViewListenerEE3endEv;2A.;begin::(89,26)=#(89,1),(89,8),(89,23),(0,6);:_ZNK6MAUtil6VectorIPN8NativeUI17VideoViewListenerEE5beginEv;2B.;end::(89,26):_ZNK6MAUtil6VectorIPN8NativeUI17VideoViewListenerEE3endEv;2B.;operator[]::(89,27)=#(89,1),(89,28)=&(89,3),(89,6),(0,3),(0,6);:_ZN6MAUtil6VectorIPN8NativeUI17VideoViewListenerEEixEi;2A.(89,29)=#(89,1),(89,17),(89,23),(0,3),(0,6);:_ZNK6MAUtil6VectorIPN8NativeUI17VideoViewListenerEEixEi;2B.;pointer::(89,26):_ZNK6MAUtil6VectorIPN8NativeUI17VideoViewListenerEE7pointerEv;2B.(89,25):_ZN6MAUtil6VectorIPN8NativeUI17VideoViewListenerEE7pointerEv;2A.;;",128,0,95,0
	.stabn	162,0,0,0
	.stabs	"c:/MoSync/include/NativeUI/VideoViewListener.h",130,0,0,0
	.stabn	162,0,0,0
	.stabs	"c:/MoSync/include/NativeUI/WebViewListener.h",130,0,0,0
	.stabn	162,0,0,0
	.stabs	"c:/MoSync/include/NativeUI/WidgetManager.h",130,0,0,0
	.stabs	"c:/MoSync/include/NativeUI/WidgetEventListener.h",130,0,0,0
	.stabn	162,0,0,0
	.stabs	"Dictionary<const MAHandle,MAUtil::Pair<const MAHandle, NativeUI::Widget*> >:Tt(92,1)=s56mDict:/1(8,32),0,416;mKeyOffset:/1(0,3),416,32;__base_ctor::(92,2)=#(92,1),(0,6),(92,3)=*(92,1),(92,4)=&(92,5)=k(92,1),(0,6);:_ZN6MAUtil10DictionaryIKiNS_4PairIS1_PN8NativeUI6WidgetEEEEC2ERKS7_;2A.;__comp_ctor::(92,2):_ZN6MAUtil10DictionaryIKiNS_4PairIS1_PN8NativeUI6WidgetEEEEC1ERKS7_;2A.;operator=::(92,6)=#(92,1),(92,7)=&(92,1),(92,3),(92,4),(0,6);:_ZN6MAUtil10DictionaryIKiNS_4PairIS1_PN8NativeUI6WidgetEEEEaSERKS7_;2A.;__base_dtor::(92,8)=#(92,1),(0,6),(92,3),(0,6);:_ZN6MAUtil10DictionaryIKiNS_4PairIS1_PN8NativeUI6WidgetEEEED2Ev;2A.;__comp_dtor::(92,8):_ZN6MAUtil10DictionaryIKiNS_4PairIS1_PN8NativeUI6WidgetEEEED1Ev;2A.;find::(92,9)=#(92,1),(92,10)=xsIterator:,(92,3),(9,15),(0,6);:_ZN6MAUtil10DictionaryIKiNS_4PairIS1_PN8NativeUI6WidgetEEEE4findERS1_;2A.(92,11)=#(92,1),(92,12)=xsConstIterator:,(92,13)=*(92,5),(9,15),(0,6);:_ZNK6MAUtil10DictionaryIKiNS_4PairIS1_PN8NativeUI6WidgetEEEE4findERS1_;2B.;erase::(92,14)=#(92,1),(0,4),(92,3),(9,15),(0,6);:_ZN6MAUtil10DictionaryIKiNS_4PairIS1_PN8NativeUI6WidgetEEEE5eraseERS1_;2A.(92,15)=#(92,1),(0,6),(92,3),(92,10),(0,6);:_ZN6MAUtil10DictionaryIKiNS_4PairIS1_PN8NativeUI6WidgetEEEE5eraseENS7_8IteratorE;2A.;begin::(92,16)=#(92,1),(92,10),(92,3),(0,6);:_ZN6MAUtil10DictionaryIKiNS_4PairIS1_PN8NativeUI6WidgetEEEE5beginEv;2A.(92,17)=#(92,1),(92,12),(92,13),(0,6);:_ZNK6MAUtil10DictionaryIKiNS_4PairIS1_PN8NativeUI6WidgetEEEE5beginEv;2B.;end::(92,16):_ZN6MAUtil10DictionaryIKiNS_4PairIS1_PN8NativeUI6WidgetEEEE3endEv;2A.(92,17):_ZNK6MAUtil10DictionaryIKiNS_4PairIS1_PN8NativeUI6WidgetEEEE3endEv;2B.;size::(92,18)=#(92,1),(5,1),(92,13),(0,6);:_ZNK6MAUtil10DictionaryIKiNS_4PairIS1_PN8NativeUI6WidgetEEEE4sizeEv;2B.;clear::(92,8):_ZN6MAUtil10DictionaryIKiNS_4PairIS1_PN8NativeUI6WidgetEEEE5clearEv;2A.;init::(92,19)=#(92,1),(0,6),(92,3),(92,20)=*(92,21)=f(0,3),(0,6);:_ZN6MAUtil10DictionaryIKiNS_4PairIS1_PN8NativeUI6WidgetEEEE4initEPFiRS1_S8_E;1A.;alloc::(8,19):_ZN6MAUtil10DictionaryIKiNS_4PairIS1_PN8NativeUI6WidgetEEEE5allocEPv;1A?;free::(8,23):_ZN6MAUtil10DictionaryIKiNS_4PairIS1_PN8NativeUI6WidgetEEEE4freeEP7dnode_tPv;1A?;__base_ctor::(92,22)=#(92,1),(0,6),(92,3),(92,20),(0,3),(0,6);:_ZN6MAUtil10DictionaryIKiNS_4PairIS1_PN8NativeUI6WidgetEEEEC2EPFiRS1_S8_Ei;1A.;__comp_ctor::(92,22):_ZN6MAUtil10DictionaryIKiNS_4PairIS1_PN8NativeUI6WidgetEEEEC1EPFiRS1_S8_Ei;1A.;insert::(92,23)=#(92,1),(92,24)=xsPair<MAUtil::Dictionary<const MAHandle, MAUtil::Pair<const MAHandle, NativeUI::Widget*> >::Iterator,bool>:,(92,3),(92,25)=&(92,26)=k(92,27)=xsPair<const MAHandle,NativeUI::Widget*>:,(0,6);:_ZN6MAUtil10DictionaryIKiNS_4PairIS1_PN8NativeUI6WidgetEEEE6insertERKS6_;1A.;;",128,0,57,0
	.stabs	"Map<MAHandle,NativeUI::Widget*>:Tt(92,28)=s56!1,020,(92,1);__base_ctor::(92,29)=#(92,28),(0,6),(92,30)=*(92,28),(92,20),(0,6);:_ZN6MAUtil3MapIiPN8NativeUI6WidgetEEC2EPFiRKiS6_E;2A.;__comp_ctor::(92,29):_ZN6MAUtil3MapIiPN8NativeUI6WidgetEEC1EPFiRKiS6_E;2A.;insert::(92,31)=#(92,28),(92,24),(92,30),(9,15),(20,91),(0,6);:_ZN6MAUtil3MapIiPN8NativeUI6WidgetEE6insertERKiRKS3_;2A.(92,32)=#(92,28),(92,24),(92,30),(92,33)=&(92,34)=k(92,35)=xsPair<MAHandle,NativeUI::Widget*>:,(0,6);:_ZN6MAUtil3MapIiPN8NativeUI6WidgetEE6insertERKNS_4PairIiS3_EE;2A.;operator[]::(92,36)=#(92,28),(20,102),(92,30),(9,15),(0,6);:_ZN6MAUtil3MapIiPN8NativeUI6WidgetEEixERKi;2A.;operator=::(92,37)=#(92,28),(92,38)=&(92,28),(92,30),(92,39)=&(92,40)=k(92,28),(0,6);:_ZN6MAUtil3MapIiPN8NativeUI6WidgetEEaSERKS4_;2A.;__base_ctor::(92,41)=#(92,28),(0,6),(92,30),(92,39),(0,6);:_ZN6MAUtil3MapIiPN8NativeUI6WidgetEEC2ERKS4_;2A.;__comp_ctor::(92,41):_ZN6MAUtil3MapIiPN8NativeUI6WidgetEEC1ERKS4_;2A.;__base_dtor::(92,42)=#(92,28),(0,6),(92,30),(0,6);:_ZN6MAUtil3MapIiPN8NativeUI6WidgetEED2Ev;2A.;__comp_dtor::(92,42):_ZN6MAUtil3MapIiPN8NativeUI6WidgetEED1Ev;2A.;;",128,0,33,0
	.stabn	162,0,0,0
	.stabn	162,0,0,0
	.stabn	162,0,0,0
	.stabs	"C:\\Users\\gdr\\Documents\\source\\mobile-app\\MobileApp\\/Util.h",130,0,0,0
	.stabs	"c:/MoSync/include/MAUtil/FileLister.h",130,0,0,0
	.stabs	"FileLister:Tt(95,1)=s4mList:/0(6,10),0,32;__base_ctor::(95,2)=#(95,1),(0,6),(95,3)=*(95,1),(0,6);:_ZN10FileListerC2Ev;2A.;__comp_ctor::(95,2):_ZN10FileListerC1Ev;2A.;__base_dtor::(95,2):_ZN10FileListerD2Ev;2A.;__comp_dtor::(95,2):_ZN10FileListerD1Ev;2A.;start::(95,4)=#(95,1),(0,3),(95,3),(20,7),(20,7),(0,3),(0,6);:_ZN10FileLister5startEPKcS1_i;2A.;next::(95,5)=#(95,1),(0,3),(95,3),(95,6)=&(13,1),(0,6);:_ZN10FileLister4nextERN6MAUtil11BasicStringIcEE;2A.;close::(95,2):_ZN10FileLister5closeEv;2A.;operator=::(95,7)=#(95,1),(95,8)=&(95,1),(95,3),(95,9)=&(95,10)=k(95,1),(0,6);:_ZN10FileListeraSERKS_;2A.;__base_ctor::(95,11)=#(95,1),(0,6),(95,3),(95,9),(0,6);:_ZN10FileListerC2ERKS_;2A.;__comp_ctor::(95,11):_ZN10FileListerC1ERKS_;2A.;;",128,0,34,0
	.stabn	162,0,0,0
	.stabs	"C:\\Users\\gdr\\Documents\\source\\mobile-app\\MobileApp\\/resource/Convert.h",130,0,0,0
	.stabs	"c:/MoSync/include/matime.h",130,0,0,0
	.stabs	"time_t:t(97,1)=(0,3)",128,0,41,0
	.stabs	"tm:Tt(97,2)=s36tm_sec:(0,3),0,32;tm_min:(0,3),32,32;tm_hour:(0,3),64,32;tm_mday:(0,3),96,32;tm_mon:(0,3),128,32;tm_year:(0,3),160,32;tm_wday:(0,3),192,32;tm_yday:(0,3),224,32;tm_isdst:(0,3),256,32;operator=::(97,3)=#(97,2),(97,4)=&(97,2),(97,5)=*(97,2),(97,6)=&(97,7)=k(97,2),(0,6);:_ZN2tmaSERKS_;2A.;__base_ctor::(97,8)=#(97,2),(0,6),(97,5),(97,6),(0,6);:_ZN2tmC2ERKS_;2A.;__comp_ctor::(97,8):_ZN2tmC1ERKS_;2A.;__base_ctor::(97,9)=#(97,2),(0,6),(97,5),(0,6);:_ZN2tmC2Ev;2A.;__comp_ctor::(97,9):_ZN2tmC1Ev;2A.;;",128,0,47,0
	.stabn	162,0,0,0
	.stabs	"STime:Tt(96,1)=s28sec:(0,3),0,32;min:(0,3),32,32;hour:(0,3),64,32;day:(0,3),96,32;mon:(0,3),128,32;sMon:(13,1),160,32;year:(0,3),192,32;operator=::(96,2)=#(96,1),(96,3)=&(96,1),(96,4)=*(96,1),(96,5)=&(96,6)=k(96,1),(0,6);:_ZN5STimeaSERKS_;2A.;__base_ctor::(96,7)=#(96,1),(0,6),(96,4),(96,5),(0,6);:_ZN5STimeC2ERKS_;2A.;__comp_ctor::(96,7):_ZN5STimeC1ERKS_;2A.;__base_ctor::(96,8)=#(96,1),(0,6),(96,4),(0,6);:_ZN5STimeC2Ev;2A.;__comp_ctor::(96,8):_ZN5STimeC1Ev;2A.;__base_dtor::(96,8):_ZN5STimeD2Ev;2A.;__comp_dtor::(96,8):_ZN5STimeD1Ev;2A.;;",128,0,19,0
	.stabs	"Convert:Tt(96,9)=s1__base_ctor::(96,10)=#(96,9),(0,6),(96,11)=*(96,9),(0,6);:_ZN7ConvertC2Ev;2A.;__comp_ctor::(96,10):_ZN7ConvertC1Ev;2A.;__base_dtor::(96,10):_ZN7ConvertD2Ev;2A.;__comp_dtor::(96,10):_ZN7ConvertD1Ev;2A.;toSTime::(96,12)=f(96,1):_ZN7Convert7toSTimeERN6MAUtil11BasicStringIcEE;2A?;toInt::(96,13)=f(0,3):_ZN7Convert5toIntERN6MAUtil11BasicStringIcEE;2A?(96,14)=f(0,3):_ZN7Convert5toIntEPKc;2A?;toDouble::(96,15)=f(0,8):_ZN7Convert8toDoubleERN6MAUtil11BasicStringIcEE;2A?(96,16)=f(0,8):_ZN7Convert8toDoubleEPKc;2A?;toDateTime::(96,17)=f(97,1):_ZN7Convert10toDateTimeERN6MAUtil11BasicStringIcEE;2A?;toString::(96,18)=f(13,1):_ZN7Convert8toStringEi;2A?(96,19)=f(13,1):_ZN7Convert8toStringEd;2A?(96,20)=f(13,1):_ZN7Convert8toStringEx;2A?(96,21)=f(13,1):_ZN7Convert8toStringEPKhm;2A?(96,22)=f(13,1):_ZN7Convert8toStringEb;2A?;hexToInt::(96,14):_ZN7Convert8hexToIntEPKc;2A?;formatJSONBeforeParse::(96,23)=f(0,6):_ZN7Convert21formatJSONBeforeParseERN6MAUtil11BasicStringIcEEi;2A?;tr::(96,24)=f(6,5):_ZN7Convert2trEi;2A?;URLencode::(96,25)=f(13,1):_ZN7Convert9URLencodeERKN6MAUtil11BasicStringIcEE;2A?;URLdecode::(96,25):_ZN7Convert9URLdecodeERKN6MAUtil11BasicStringIcEE;2A?;HTMLdecode::(96,26)=f(0,6):_ZN7Convert10HTMLdecodeERN6MAUtil11BasicStringIcEE;2A?;operator=::(96,27)=#(96,9),(96,28)=&(96,9),(96,11),(96,29)=&(96,30)=k(96,9),(0,6);:_ZN7ConvertaSERKS_;2A.;__base_ctor::(96,31)=#(96,9),(0,6),(96,11),(96,29),(0,6);:_ZN7ConvertC2ERKS_;2A.;__comp_ctor::(96,31):_ZN7ConvertC1ERKS_;2A.;;",128,0,32,0
	.stabn	162,0,0,0
	.stabs	"platform_code:t(94,1)=eANDROID:0,IOS:1,WINDOWSPHONE7:2,;",128,0,43,0
	.stabs	"eHttp:t(94,2)=eGET:0,POST:1,DELETE:2,;",128,0,49,0
	.stabs	"eFile:t(94,3)=eFILE_OPEN_ERROR:0,FILE_NOT_EXIST:1,FILE_CLOSE:2,;",128,0,55,0
	.stabs	"eScreenResolution:t(94,4)=eLARGE_SCREEN_RESOLUTION:0,SMALL_SCREEN_RESOLUTION:1,;",128,0,61,0
.data
LC0:
	.ascii "mosync.device.OS\0"
LC1:
	.ascii "Android\0"
LC2:
	.ascii "iPhone OS\0"
.code
	.stabs	"_Z11getPlatformv:f(0,3)",36,0,71,__Z11getPlatformv

.func __Z11getPlatformv, 0, int
	.stabs	"C:\\Users\\gdr\\Documents\\source\\mobile-app\\MobileApp\\/Util.h",132,0,0,Ltext1
Ltext1:
	.line 71
	push rt,fr
	sub  sp,#0x104
	ld   fr,sp
	add  fr,#0x10c
	.dlab LBB2
	.dlab LBB3
	.line 73
	ld   r14,fr
	add  r14,#0xfffffef8
	ld   i0,#LC0
	ld   i1,r14
	ld   i2,#0x100
	call &_maGetSystemProperty
	.line 75
	ld   r14,fr
	add  r14,#0xfffffef8
	ld   i0,r14
	ld   i1,#LC1
	call &_strcmp
	ld   r0,r14
	ld   r14,#0x0
	jc   ne,r0,r14,#L2
	.line 77
	ld   r14,#0x0
	ld   [fr,-268],r14
	jp   #L1
L2:
	.line 81
	ld   r14,fr
	add  r14,#0xfffffef8
	ld   i0,r14
	ld   i1,#LC2
	call &_strcmp
	ld   r0,r14
	ld   r14,#0x0
	jc   ne,r0,r14,#L3
	.line 82
	ld   r14,#0x1
	ld   [fr,-268],r14
	jp   #L1
L3:
	.line 84
	ld   r14,#0x2
	ld   [fr,-268],r14
L1:
	.dlab LBE3
	.dlab LBE2
	.line 85
	ld   r14,[fr,-268]
	add  sp,#0x104
	pop  rt,fr
	ret
	.stabs	"platform:(94,5)=ar(6,57);0;255;(0,19)",128,0,72,-264
	.stabn	192,0,0,LBB3-__Z11getPlatformv
	.stabn	224,0,0,LBE3-__Z11getPlatformv
Lscope0:
	.stabs	"maGetSystemProperty:f(0,3)",36,0,6598,_maGetSystemProperty
	.stabs	"key:p(20,7)",160,0,6598,-12
	.stabs	"buf:p(6,5)",160,0,6598,-16
	.stabs	"size:p(0,3)",160,0,6598,-20

.func _maGetSystemProperty, 3, int
	.stabs	"c:/MoSync/include/maapi.h",132,0,0,Ltext2
Ltext2:
	.line 6598
	push rt,fr
	sub  sp,#0xc
	ld   fr,sp
	add  fr,#0x14
	ld   [fr,-12],i0
	ld   [fr,-16],i1
	ld   [fr,-20],i2
	.dlab LBB4
	.line 6599
	ld   i0,#0x5a
	ld   i1,[fr,-12]
	ld   i2,[fr,-16]
	ld   i3,[fr,-20]
	call &_maIOCtl
	.dlab LBE4
	.line 6600
	add  sp,#0xc
	pop  rt,fr
	ret
Lscope1:
.data
LC3:
	.ascii "\0"
	.space	63	;(ASM_OUTPUT_SKIP)
LC4:
	.ascii "mosync.network.type\0"
LC5:
	.ascii "Connect\303\251 ? : %i: %s\12\0"
LC6:
	.ascii "none\0"
LC7:
	.ascii "No connection detected\0"
.code
	.stabs	"_Z19getSystemConnectionv:f(0,3)",36,0,88,__Z19getSystemConnectionv

.func __Z19getSystemConnectionv, 0, int
	.stabs	"C:\\Users\\gdr\\Documents\\source\\mobile-app\\MobileApp\\/Util.h",132,0,0,Ltext3
Ltext3:
	.line 88
	push rt,d0
	sub  sp,#0x54
	ld   fr,sp
	add  fr,#0x60
	.dlab LBB5
	.dlab LBB6
	.line 89
	ld.b r14,[&LC3]
	ld.b [fr,-76],r14
	ld   r14,fr
	add  r14,#0xffffffb5
	ld   r0,#0x3f
	ld   i0,r14
	ld   i1,#0x0
	ld   i2,r0
	call &_memset
	.line 91
	ld   r14,fr
	add  r14,#0xffffffb4
	ld   i0,#LC4
	ld   i1,r14
	ld   i2,#0x40
	call &_maGetSystemProperty
	ld   [fr,-80],r14
	.line 92
	ld   r14,[fr,-80]
	ld   [sp],r14
	ld   r14,fr
	add  r14,#0xffffffb4
	ld   [sp,4],r14
	ld   i0,#LC5
	call &_lprintfln
	.line 93
	ld   r14,fr
	add  r14,#0xffffffac
	ld   r0,fr
	add  r0,#0xffffffb4
	ld   i0,r14
	ld   i1,r0
	call &__ZN6MAUtil11BasicStringIcEC1EPKc
	.line 94
	ld   r14,fr
	add  r14,#0xffffffa8
	ld   i0,r14
	ld   i1,#LC6
	call &__ZN6MAUtil11BasicStringIcEC1EPKc
	ld   r0,fr
	add  r0,#0xffffffa8
	ld   r14,fr
	add  r14,#0xffffffac
	ld   i0,r14
	ld   i1,r0
	call &__ZNK6MAUtil11BasicStringIcEeqERKS1_
	ld   d0,r14
	ld   r14,fr
	add  r14,#0xffffffa8
	ld   i0,r14
	call &__ZN6MAUtil11BasicStringIcED1Ev
	ld   r0,d0
	and  r0,#0xff  ; zero extend
	ld   r14,#0x0
	jc   eq,r0,r14,#L7
	.line 97
	ld   i0,#0x1
	ld   i1,#LC7
	call &_maPanic
L7:
	.line 100
	ld   d0,[fr,-80]
	.dlab LBB7
	ld   r14,fr
	add  r14,#0xffffffac
	ld   i0,r14
	call &__ZN6MAUtil11BasicStringIcED1Ev
	.dlab LBE7
	ld   r14,d0
	.dlab LBE6
	.dlab LBE5
	.line 102
	add  sp,#0x54
	pop  rt,d0
	ret
	.stabs	"buf:(94,6)=ar(6,57);0;63;(0,19)",128,0,89,-76
	.stabs	"res:(0,3)",128,0,91,-80
	.stabs	"tmp:(13,1)",128,0,93,-84
	.stabn	192,0,0,LBB6-__Z19getSystemConnectionv
	.stabn	224,0,0,LBE6-__Z19getSystemConnectionv
Lscope2:
.data
LC8:
	.ascii "mosync.iso-639-1\0"
LC9:
	.ascii "LANGUAGE : %i: %s\12\0"
LC10:
	.ascii "fr\0"
LC11:
	.ascii " DAns LANGUAGE : %i: %s\12\0"
.code
	.stabs	"_Z17getSystemLanguagev:f(0,3)",36,0,106,__Z17getSystemLanguagev

.func __Z17getSystemLanguagev, 0, int
	.line 106
	push rt,d0
	sub  sp,#0x58
	ld   fr,sp
	add  fr,#0x64
	.dlab LBB8
	.dlab LBB9
	.line 107
	ld   r14,#0x0
	ld   [fr,-16],r14
	.line 108
	ld.b r14,[&LC3]
	ld.b [fr,-80],r14
	ld   r14,fr
	add  r14,#0xffffffb1
	ld   r0,#0x3f
	ld   i0,r14
	ld   i1,#0x0
	ld   i2,r0
	call &_memset
	.line 109
	ld   r14,fr
	add  r14,#0xffffffb0
	ld   i0,#LC8
	ld   i1,r14
	ld   i2,#0x40
	call &_maGetSystemProperty
	ld   [fr,-84],r14
	.line 110
	ld   r14,[fr,-84]
	ld   [sp],r14
	ld   r14,fr
	add  r14,#0xffffffb0
	ld   [sp,4],r14
	ld   i0,#LC9
	call &_lprintfln
	.line 111
	ld   r14,fr
	add  r14,#0xffffffa8
	ld   r0,fr
	add  r0,#0xffffffb0
	ld   i0,r14
	ld   i1,r0
	call &__ZN6MAUtil11BasicStringIcEC1EPKc
	.line 112
	ld   r14,fr
	add  r14,#0xffffffa4
	ld   i0,r14
	ld   i1,#LC10
	call &__ZN6MAUtil11BasicStringIcEC1EPKc
	ld   r0,fr
	add  r0,#0xffffffa4
	ld   r14,fr
	add  r14,#0xffffffa8
	ld   i0,r14
	ld   i1,r0
	call &__ZNK6MAUtil11BasicStringIcEeqERKS1_
	ld   d0,r14
	ld   r14,fr
	add  r14,#0xffffffa4
	ld   i0,r14
	call &__ZN6MAUtil11BasicStringIcED1Ev
	ld   r0,d0
	and  r0,#0xff  ; zero extend
	ld   r14,#0x0
	jc   eq,r0,r14,#L9
	.line 114
	ld   r14,[fr,-84]
	ld   [sp],r14
	ld   r14,fr
	add  r14,#0xffffffb0
	ld   [sp,4],r14
	ld   i0,#LC11
	call &_lprintfln
	.line 115
	ld   r14,#0x1
	ld   [fr,-16],r14
L9:
	.line 117
	ld   d0,[fr,-16]
	.dlab LBB10
	ld   r14,fr
	add  r14,#0xffffffa8
	ld   i0,r14
	call &__ZN6MAUtil11BasicStringIcED1Ev
	.dlab LBE10
	ld   r14,d0
	.dlab LBE9
	.dlab LBE8
	.line 118
	add  sp,#0x58
	pop  rt,d0
	ret
	.stabs	"language:(0,3)",128,0,107,-16
	.stabs	"buf:(94,6)",128,0,108,-80
	.stabs	"res:(0,3)",128,0,109,-84
	.stabs	"tmp:(13,1)",128,0,111,-88
	.stabn	192,0,0,LBB9-__Z17getSystemLanguagev
	.stabn	224,0,0,LBE9-__Z17getSystemLanguagev
Lscope3:
	.stabs	"_Z17getSystemPropertyPKcRN6MAUtil11BasicStringIcEE:f(0,3)",36,0,120,__Z17getSystemPropertyPKcRN6MAUtil11BasicStringIcEE
	.stabs	"key:p(20,7)",160,0,120,-12
	.stabs	"dst:p(95,6)",160,0,120,-16

.func __Z17getSystemPropertyPKcRN6MAUtil11BasicStringIcEE, 2, int
	.line 120
	push rt,fr
	sub  sp,#0x10
	ld   fr,sp
	add  fr,#0x18
	ld   [fr,-12],i0
	ld   [fr,-16],i1
	.dlab LBB11
	.dlab LBB12
	.line 121
	ld   i0,[fr,-12]
	ld   i1,#0x0
	ld   i2,#0x0
	call &_maGetSystemProperty
	ld   [fr,-20],r14
	.line 122
	ld   r0,[fr,-20]
	ld   r14,#0x0
	jc   ge,r0,r14,#L11
	.line 123
	ld   r14,[fr,-20]
	ld   [fr,-24],r14
	jp   #L10
L11:
	.line 124
	ld   r14,[fr,-20]
	add  r14,#0xffffffff
	ld   i0,[fr,-16]
	ld   i1,r14
	call &__ZN6MAUtil11BasicStringIcE6resizeEi
	.line 125
	ld   i0,[fr,-16]
	call &__ZN6MAUtil11BasicStringIcE7pointerEv
	ld   i0,[fr,-12]
	ld   i1,r14
	ld   i2,[fr,-20]
	call &_maGetSystemProperty
	.line 126
	ld   r14,[fr,-20]
	ld   [fr,-24],r14
L10:
	.dlab LBE12
	.dlab LBE11
	.line 127
	ld   r14,[fr,-24]
	add  sp,#0x10
	pop  rt,fr
	ret
	.stabs	"size:(0,3)",128,0,121,-20
	.stabn	192,0,0,LBB12-__Z17getSystemPropertyPKcRN6MAUtil11BasicStringIcEE
	.stabn	224,0,0,LBE12-__Z17getSystemPropertyPKcRN6MAUtil11BasicStringIcEE
Lscope4:
.data
LC12:
	.ascii "/\0"
LC13:
	.ascii "*\0"
LC14:
	.ascii "mosync.path.local\0"
LC15:
	.ascii "\0"
LC16:
	.ascii "C:\\Users\\gdr\\Documents\\source\\mobile-app\\MobileApp\\/Util.h\0"
.code
	.stabs	"_Z12getLocalPathv:f(13,1)",36,0,129,__Z12getLocalPathv

.func __Z12getLocalPathv, 1, int
	.line 129
	push rt,fr
	sub  sp,#0x14
	ld   fr,sp
	add  fr,#0x1c
	ld   [fr,-28],i0
	.dlab LBB13
	.dlab LBB14
	.line 131
	ld   r14,fr
	add  r14,#0xfffffff4
	ld   i0,r14
	call &__ZN10FileListerC1Ev
	.line 132
	ld   r14,fr
	add  r14,#0xfffffff4
	ld   i0,r14
	ld   i1,#LC12
	ld   i2,#LC13
	ld   i3,#0x0
	call &__ZN10FileLister5startEPKcS1_i
	.line 134
	ld   r14,fr
	add  r14,#0xfffffff0
	ld   i0,r14
	call &__ZN6MAUtil11BasicStringIcEC1Ev
	.line 136
	ld   r14,fr
	add  r14,#0xfffffff0
	ld   i0,#LC14
	ld   i1,r14
	call &__Z17getSystemPropertyPKcRN6MAUtil11BasicStringIcEE
	ld   [fr,-20],r14
	.line 138
	ld   r0,[fr,-20]
	ld   r14,#0x0
	jc   le,r0,r14,#L13
	.line 140
	ld   r14,fr
	add  r14,#0xffffffe8
	ld   i0,r14
	ld   i1,#LC15
	call &__ZN6MAUtil11BasicStringIcEC1EPKc
	ld   r0,fr
	add  r0,#0xffffffe8
	ld   r14,fr
	add  r14,#0xfffffff0
	ld   i0,[fr,-28]
	ld   i1,r14
	ld   i2,r0
	call &__ZNK6MAUtil11BasicStringIcEplERKS1_
	.dlab LBB15
	ld   r14,fr
	add  r14,#0xffffffe8
	ld   i0,r14
	call &__ZN6MAUtil11BasicStringIcED1Ev
	ld   r14,fr
	add  r14,#0xfffffff0
	ld   i0,r14
	call &__ZN6MAUtil11BasicStringIcED1Ev
	ld   r14,fr
	add  r14,#0xfffffff4
	ld   i0,r14
	call &__ZN10FileListerD1Ev
	.dlab LBE15
	jp   #L12
L13:
	.line 144
	ld   r14,fr
	add  r14,#0xfffffff4
	ld   i0,r14
	ld   i1,#LC15
	ld   i2,#LC13
	ld   i3,#0x0
	call &__ZN10FileLister5startEPKcS1_i
	.line 145
	ld   r14,fr
	add  r14,#0xfffffff4
	ld   r0,fr
	add  r0,#0xfffffff0
	ld   i0,r14
	ld   i1,r0
	call &__ZN10FileLister4nextERN6MAUtil11BasicStringIcEE
	ld   [fr,-20],r14
	.line 146
	ld   r0,[fr,-20]
	ld   r14,#0x0
	jc   gt,r0,r14,#L14
	ld   i0,#LC16
	call &_FileNameFromPath
	ld   i0,#0x6
	ld   i1,r14
	ld   i2,#0x92
	call &_bfeHandler
L14:
	.line 147
	ld   r14,fr
	add  r14,#0xfffffff0
	ld   i0,[fr,-28]
	ld   i1,r14
	call &__ZN6MAUtil11BasicStringIcEC1ERKS1_
	.dlab LBB16
	ld   r14,fr
	add  r14,#0xfffffff0
	ld   i0,r14
	call &__ZN6MAUtil11BasicStringIcED1Ev
	ld   r14,fr
	add  r14,#0xfffffff4
	ld   i0,r14
	call &__ZN10FileListerD1Ev
L12:
	.dlab LBE16
	.dlab LBE14
	.dlab LBE13
	.line 148
	ld   r14,[fr,-28]
	add  sp,#0x14
	pop  rt,fr
	ret
	.stabs	"fl:(95,1)",128,0,131,-12
	.stabs	"path:(13,1)",128,0,134,-16
	.stabs	"result:(0,3)",128,0,136,-20
	.stabn	192,0,0,LBB14-__Z12getLocalPathv
	.stabn	224,0,0,LBE14-__Z12getLocalPathv
Lscope5:
	.stabs	"_ZN10FileListerD1Ev:f(0,6)",36,0,37,__ZN10FileListerD1Ev
	.stabs	"this:p(94,7)=k(95,3)",160,0,37,-12

.func __ZN10FileListerD1Ev, 1, void
	.stabs	"c:/MoSync/include/MAUtil/FileLister.h",132,0,0,Ltext4
Ltext4:
	.line 37
	push rt,fr
	sub  sp,#0x4
	ld   fr,sp
	add  fr,#0xc
	ld   [fr,-12],i0
	.dlab LBB17
	.line 37
	ld   i0,[fr,-12]
	call &__ZN10FileLister5closeEv
	.dlab LBE17
	add  sp,#0x4
	pop  rt,fr
	ret
Lscope6:
	.stabs	"_ZN10FileListerC1Ev:f(0,6)",36,0,36,__ZN10FileListerC1Ev
	.stabs	"this:p(94,7)",160,0,36,-12

.func __ZN10FileListerC1Ev, 1, void
	.line 36
	push rt,fr
	sub  sp,#0x4
	ld   fr,sp
	add  fr,#0xc
	ld   [fr,-12],i0
	.dlab LBB18
	.line 36
	ld   r14,[fr,-12]
	ld   r0,#0xffffffff
	ld   [r14],r0
	.dlab LBE18
	add  sp,#0x4
	pop  rt,fr
	ret
Lscope7:
	.lcomm	_ZZ9tryToReadRN6MAUtil11BasicStringIcEEE4data, 600 ; size=600
.data
LC17:
	.ascii "EA_mobile_app_conf.txt\0"
LC18:
	.ascii "Open '%s'\12\0"
LC19:
	.ascii "Size: %i\12\0"
LC20:
	.ascii "Closing...\12\0"
.code
	.stabs	"_Z9tryToReadRN6MAUtil11BasicStringIcEE:f(94,3)",36,0,151,__Z9tryToReadRN6MAUtil11BasicStringIcEE
	.stabs	"config:p(95,6)",160,0,151,-20

.func __Z9tryToReadRN6MAUtil11BasicStringIcEE, 1, int
	.stabs	"C:\\Users\\gdr\\Documents\\source\\mobile-app\\MobileApp\\/Util.h",132,0,0,Ltext5
Ltext5:
	.line 151
	push rt,d1
	sub  sp,#0x24
	ld   fr,sp
	add  fr,#0x34
	ld   [fr,-20],i0
	.dlab LBB19
	.dlab LBB20
	.line 153
	ld   d0,fr
	add  d0,#0xffffffe8
	ld   r14,fr
	add  r14,#0xffffffe4
	ld   i0,r14
	call &__Z12getLocalPathv
	ld   d1,fr
	add  d1,#0xffffffe4
	ld   r14,fr
	add  r14,#0xffffffe0
	ld   i0,r14
	ld   i1,#LC17
	call &__ZN6MAUtil11BasicStringIcEC1EPKc
	ld   r14,fr
	add  r14,#0xffffffe0
	ld   i0,d0
	ld   i1,d1
	ld   i2,r14
	call &__ZNK6MAUtil11BasicStringIcEplERKS1_
	ld   r14,fr
	add  r14,#0xffffffe0
	ld   i0,r14
	call &__ZN6MAUtil11BasicStringIcED1Ev
	ld   r14,fr
	add  r14,#0xffffffe4
	ld   i0,r14
	call &__ZN6MAUtil11BasicStringIcED1Ev
	.line 156
	ld   r14,fr
	add  r14,#0xffffffe8
	ld   i0,r14
	call &__ZNK6MAUtil11BasicStringIcE5c_strEv
	ld   [sp],r14
	ld   i0,#LC18
	call &_lprintfln
	.line 157
	ld   r14,fr
	add  r14,#0xffffffe8
	ld   i0,r14
	call &__ZNK6MAUtil11BasicStringIcE5c_strEv
	ld   i0,r14
	ld   i1,#0x1
	call &_maFileOpen
	ld   [fr,-36],r14
	.line 158
	ld   r0,[fr,-36]
	ld   r14,#0x0
	jc   ge,r0,r14,#L21
	.dlab LBB21
	.line 160
	ld   r14,fr
	add  r14,#0xffffffe8
	ld   i0,r14
	call &__ZN6MAUtil11BasicStringIcED1Ev
	.dlab LBE21
	ld   r14,#0x0
	ld   [fr,-48],r14
	jp   #L20
L21:
	.line 164
	ld   i0,[fr,-36]
	call &_maFileExists
	ld   [fr,-40],r14
	.line 165
	ld   r0,[fr,-40]
	ld   r14,#0x0
	jc   ge,r0,r14,#L22
	ld   i0,#LC16
	call &_FileNameFromPath
	ld   i0,#0x6
	ld   i1,r14
	ld   i2,#0xa5
	call &_bfeHandler
L22:
	.line 166
	ld   r0,[fr,-40]
	ld   r14,#0x0
	jc   ne,r0,r14,#L24
	.line 168
	ld   i0,[fr,-36]
	call &_maFileClose
	.dlab LBB22
	.line 169
	ld   r14,fr
	add  r14,#0xffffffe8
	ld   i0,r14
	call &__ZN6MAUtil11BasicStringIcED1Ev
	.dlab LBE22
	ld   r14,#0x1
	ld   [fr,-48],r14
	jp   #L20
L24:
	.line 173
	ld   i0,[fr,-36]
	call &_maFileSize
	ld   [fr,-44],r14
	.line 174
	ld   r14,[fr,-44]
	ld   [sp],r14
	ld   i0,#LC19
	call &_lprintfln
	.line 175
	ld   r0,[fr,-44]
	ld   r14,#0x0
	jc   ge,r0,r14,#L25
	ld   i0,#LC16
	call &_FileNameFromPath
	ld   i0,#0x6
	ld   i1,r14
	ld   i2,#0xaf
	call &_bfeHandler
L25:
	.line 179
	ld   r0,[fr,-44]
	ld   r14,#0x257
	jc   le,r0,r14,#L27
	ld   i0,#LC16
	call &_FileNameFromPath
	ld   i0,#0x6
	ld   i1,r14
	ld   i2,#0xb3
	call &_bfeHandler
L27:
	.line 180
	ld   i0,[fr,-36]
	ld   i1,#_ZZ9tryToReadRN6MAUtil11BasicStringIcEEE4data
	ld   i2,[fr,-44]
	call &_maFileRead
	ld   [fr,-40],r14
	.line 181
	ld   r0,[fr,-40]
	ld   r14,#0x0
	jc   eq,r0,r14,#L29
	ld   i0,#LC16
	call &_FileNameFromPath
	ld   i0,#0x6
	ld   i1,r14
	ld   i2,#0xb5
	call &_bfeHandler
L29:
	.line 182
	ld   r14,fr
	add  r14,#0xffffffe0
	ld   i0,r14
	ld   i1,#_ZZ9tryToReadRN6MAUtil11BasicStringIcEEE4data
	call &__ZN6MAUtil11BasicStringIcEC1EPKc
	ld   r14,fr
	add  r14,#0xffffffe0
	ld   i0,[fr,-20]
	ld   i1,r14
	call &__ZN6MAUtil11BasicStringIcEaSERKS1_
	ld   r14,fr
	add  r14,#0xffffffe0
	ld   i0,r14
	call &__ZN6MAUtil11BasicStringIcED1Ev
	.line 183
	ld   i0,[fr,-20]
	call &__ZNK6MAUtil11BasicStringIcE5c_strEv
	ld   i0,r14
	call &_lprintfln
	.line 190
	ld   i0,#LC20
	call &_lprintfln
	.line 191
	ld   i0,[fr,-36]
	call &_maFileClose
	ld   [fr,-40],r14
	.line 192
	ld   r0,[fr,-40]
	ld   r14,#0x0
	jc   eq,r0,r14,#L31
	ld   i0,#LC16
	call &_FileNameFromPath
	ld   i0,#0x6
	ld   i1,r14
	ld   i2,#0xc0
	call &_bfeHandler
L31:
	.dlab LBB23
	.line 195
	ld   r14,fr
	add  r14,#0xffffffe8
	ld   i0,r14
	call &__ZN6MAUtil11BasicStringIcED1Ev
	.dlab LBE23
	ld   r14,#0x2
	ld   [fr,-48],r14
L20:
	.dlab LBE20
	.dlab LBE19
	.line 196
	ld   r14,[fr,-48]
	add  sp,#0x24
	pop  rt,d1
	ret
	.stabs	"filename:(13,1)",128,0,153,-24
	.stabs	"file:(6,10)",128,0,157,-36
	.stabs	"res:(0,3)",128,0,164,-40
	.stabs	"size:(0,3)",128,0,173,-44
	.stabs	"data:V(94,8)=ar(6,57);0;599;(0,19)",40,0,178,_ZZ9tryToReadRN6MAUtil11BasicStringIcEEE4data
	.stabn	192,0,0,LBB20-__Z9tryToReadRN6MAUtil11BasicStringIcEE
	.stabn	224,0,0,LBE20-__Z9tryToReadRN6MAUtil11BasicStringIcEE
Lscope8:
	.stabs	"maFileRead:f(0,3)",36,0,6355,_maFileRead
	.stabs	"file:p(6,10)",160,0,6355,-12
	.stabs	"dst:p(6,9)",160,0,6355,-16
	.stabs	"len:p(0,3)",160,0,6355,-20

.func _maFileRead, 3, int
	.stabs	"c:/MoSync/include/maapi.h",132,0,0,Ltext6
Ltext6:
	.line 6355
	push rt,fr
	sub  sp,#0xc
	ld   fr,sp
	add  fr,#0x14
	ld   [fr,-12],i0
	ld   [fr,-16],i1
	ld   [fr,-20],i2
	.dlab LBB24
	.line 6356
	ld   i0,#0x35
	ld   i1,[fr,-12]
	ld   i2,[fr,-16]
	ld   i3,[fr,-20]
	call &_maIOCtl
	.dlab LBE24
	.line 6357
	add  sp,#0xc
	pop  rt,fr
	ret
Lscope9:
	.stabs	"maFileSize:f(0,3)",36,0,6254,_maFileSize
	.stabs	"file:p(6,10)",160,0,6254,-12

.func _maFileSize, 1, int
	.line 6254
	push rt,fr
	sub  sp,#0x4
	ld   fr,sp
	add  fr,#0xc
	ld   [fr,-12],i0
	.dlab LBB25
	.line 6255
	ld   i0,#0x2d
	ld   i1,[fr,-12]
	ld   i2,#0x0
	ld   i3,#0x0
	call &_maIOCtl
	.dlab LBE25
	.line 6256
	add  sp,#0x4
	pop  rt,fr
	ret
Lscope10:
	.stabs	"maFileClose:f(0,3)",36,0,6225,_maFileClose
	.stabs	"file:p(6,10)",160,0,6225,-12

.func _maFileClose, 1, int
	.line 6225
	push rt,fr
	sub  sp,#0x4
	ld   fr,sp
	add  fr,#0xc
	ld   [fr,-12],i0
	.dlab LBB26
	.line 6226
	ld   i0,#0x2a
	ld   i1,[fr,-12]
	ld   i2,#0x0
	ld   i3,#0x0
	call &_maIOCtl
	.dlab LBE26
	.line 6227
	add  sp,#0x4
	pop  rt,fr
	ret
Lscope11:
	.stabs	"maFileExists:f(0,3)",36,0,6218,_maFileExists
	.stabs	"file:p(6,10)",160,0,6218,-12

.func _maFileExists, 1, int
	.line 6218
	push rt,fr
	sub  sp,#0x4
	ld   fr,sp
	add  fr,#0xc
	ld   [fr,-12],i0
	.dlab LBB27
	.line 6219
	ld   i0,#0x29
	ld   i1,[fr,-12]
	ld   i2,#0x0
	ld   i3,#0x0
	call &_maIOCtl
	.dlab LBE27
	.line 6220
	add  sp,#0x4
	pop  rt,fr
	ret
Lscope12:
	.stabs	"maFileOpen:f(6,10)",36,0,6211,_maFileOpen
	.stabs	"path:p(20,7)",160,0,6211,-12
	.stabs	"mode:p(0,3)",160,0,6211,-16

.func _maFileOpen, 2, int
	.line 6211
	push rt,fr
	sub  sp,#0x8
	ld   fr,sp
	add  fr,#0x10
	ld   [fr,-12],i0
	ld   [fr,-16],i1
	.dlab LBB28
	.line 6212
	ld   i0,#0x28
	ld   i1,[fr,-12]
	ld   i2,[fr,-16]
	ld   i3,#0x0
	call &_maIOCtl
	.dlab LBE28
	.line 6213
	add  sp,#0x8
	pop  rt,fr
	ret
Lscope13:
.data
LC21:
	.ascii "true\0"
LC22:
	.ascii "false\0"
LC23:
	.ascii "{\"login\" : \"\0"
LC24:
	.ascii "\",\"token_mobile\" : \"\0"
LC25:
	.ascii "\",\"token_authent\" : \"\0"
LC26:
	.ascii "\",\"authentication_mode\" : \"\0"
LC27:
	.ascii "\",\"id_media_value\" : \0"
LC28:
	.ascii ",\"notification\" : \0"
LC29:
	.ascii ",\"vibrate\" : \0"
LC30:
	.ascii "}\0"
.code
	.stabs	"_Z10tryToWriteRN6MAUtil11BasicStringIcEES2_S2_S2_Rxbb:f(94,3)",36,0,198,__Z10tryToWriteRN6MAUtil11BasicStringIcEES2_S2_S2_Rxbb
	.stabs	"login:p(95,6)",160,0,198,-44
	.stabs	"tokenMobile:p(95,6)",160,0,198,-48
	.stabs	"tokenAuthent:p(95,6)",160,0,198,-52
	.stabs	"mode:p(95,6)",160,0,198,-56
	.stabs	"idMedia:p(94,9)=&(0,15)",160,0,198,0
	.stabs	"vibrate:p(0,4)",160,0,198,4
	.stabs	"notification:p(0,4)",160,0,198,8

.func __Z10tryToWriteRN6MAUtil11BasicStringIcEES2_S2_S2_Rxbb, 7, int
	.stabs	"C:\\Users\\gdr\\Documents\\source\\mobile-app\\MobileApp\\/Util.h",132,0,0,Ltext7
Ltext7:
	.line 198
	push rt,d7
	sub  sp,#0x98
	ld   fr,sp
	add  fr,#0xc0
	ld   [fr,-44],i0
	ld   [fr,-48],i1
	ld   [fr,-52],i2
	ld   [fr,-56],i3
	.dlab LBB29
	.dlab LBB30
	.line 200
	ld   d0,fr
	add  d0,#0xffffffc4
	ld   r14,fr
	add  r14,#0xffffffc0
	ld   i0,r14
	call &__Z12getLocalPathv
	ld   d1,fr
	add  d1,#0xffffffc0
	ld   r14,fr
	add  r14,#0xffffffbc
	ld   i0,r14
	ld   i1,#LC17
	call &__ZN6MAUtil11BasicStringIcEC1EPKc
	ld   r14,fr
	add  r14,#0xffffffbc
	ld   i0,d0
	ld   i1,d1
	ld   i2,r14
	call &__ZNK6MAUtil11BasicStringIcEplERKS1_
	ld   r14,fr
	add  r14,#0xffffffbc
	ld   i0,r14
	call &__ZN6MAUtil11BasicStringIcED1Ev
	ld   r14,fr
	add  r14,#0xffffffc0
	ld   i0,r14
	call &__ZN6MAUtil11BasicStringIcED1Ev
	.line 204
	ld   r14,fr
	add  r14,#0xffffffc4
	ld   i0,r14
	call &__ZNK6MAUtil11BasicStringIcE5c_strEv
	ld   i0,r14
	ld   i1,#0x3
	call &_maFileOpen
	ld   [fr,-72],r14
	.line 205
	ld   r0,[fr,-72]
	ld   r14,#0x0
	jc   ge,r0,r14,#L39
	.dlab LBB31
	.line 207
	ld   r14,fr
	add  r14,#0xffffffc4
	ld   i0,r14
	call &__ZN6MAUtil11BasicStringIcED1Ev
	.dlab LBE31
	ld   r14,#0x0
	ld   [fr,-168],r14
	jp   #L38
L39:
	.line 211
	ld   i0,[fr,-72]
	call &_maFileExists
	ld   [fr,-76],r14
	.line 212
	ld   r0,[fr,-76]
	ld   r14,#0x0
	jc   ge,r0,r14,#L40
	ld   i0,#LC16
	call &_FileNameFromPath
	ld   i0,#0x6
	ld   i1,r14
	ld   i2,#0xd4
	call &_bfeHandler
L40:
	.line 213
	ld   r0,[fr,-76]
	ld   r14,#0x0
	jc   eq,r0,r14,#L42
	.line 216
	ld   i0,[fr,-72]
	ld   i1,#0x0
	call &_maFileTruncate
	ld   [fr,-76],r14
	.line 217
	ld   r0,[fr,-76]
	ld   r14,#0x0
	jc   eq,r0,r14,#L45
	ld   i0,#LC16
	call &_FileNameFromPath
	ld   i0,#0x6
	ld   i1,r14
	ld   i2,#0xd9
	call &_bfeHandler
L42:
	.line 221
	ld   i0,[fr,-72]
	call &_maFileCreate
	ld   [fr,-76],r14
	.line 222
	ld   r0,[fr,-76]
	ld   r14,#0x0
	jc   ge,r0,r14,#L45
	ld   i0,#LC16
	call &_FileNameFromPath
	ld   i0,#0x6
	ld   i1,r14
	ld   i2,#0xde
	call &_bfeHandler
L45:
	.line 227
	ld   r14,fr
	add  r14,#0xffffffbc
	ld   i0,r14
	ld   i1,#LC21
	call &__ZN6MAUtil11BasicStringIcEC1EPKc
	.line 228
	ld   r14,fr
	add  r14,#0xffffffc0
	ld   i0,r14
	ld   i1,#LC21
	call &__ZN6MAUtil11BasicStringIcEC1EPKc
	.line 229
	ld.b r0,[fr,4]
	and  r0,#0xff  ; zero extend
	ld   r14,#0x0
	jc   ne,r0,r14,#L48
	.line 230
	ld   r14,fr
	add  r14,#0xffffffb0
	ld   i0,r14
	ld   i1,#LC22
	call &__ZN6MAUtil11BasicStringIcEC1EPKc
	ld   r0,fr
	add  r0,#0xffffffb0
	ld   r14,fr
	add  r14,#0xffffffbc
	ld   i0,r14
	ld   i1,r0
	call &__ZN6MAUtil11BasicStringIcEaSERKS1_
	ld   r14,fr
	add  r14,#0xffffffb0
	ld   i0,r14
	call &__ZN6MAUtil11BasicStringIcED1Ev
L48:
	.line 232
	ld.b r0,[fr,8]
	and  r0,#0xff  ; zero extend
	ld   r14,#0x0
	jc   ne,r0,r14,#L49
	.line 233
	ld   r14,fr
	add  r14,#0xffffffb0
	ld   i0,r14
	ld   i1,#LC22
	call &__ZN6MAUtil11BasicStringIcEC1EPKc
	ld   r0,fr
	add  r0,#0xffffffb0
	ld   r14,fr
	add  r14,#0xffffffc0
	ld   i0,r14
	ld   i1,r0
	call &__ZN6MAUtil11BasicStringIcEaSERKS1_
	ld   r14,fr
	add  r14,#0xffffffb0
	ld   i0,r14
	call &__ZN6MAUtil11BasicStringIcED1Ev
L49:
	.line 236
	ld   d1,fr
	add  d1,#0xffffffb0
	ld   d2,fr
	add  d2,#0xffffffac
	ld   d3,fr
	add  d3,#0xffffffa8
	ld   d4,fr
	add  d4,#0xffffffa4
	ld   d5,fr
	add  d5,#0xffffffa0
	ld   d6,fr
	add  d6,#0xffffff9c
	ld   d7,fr
	add  d7,#0xffffff98
	ld   r14,fr
	add  r14,#0xffffff94
	ld   [fr,-172],r14
	ld   r14,fr
	add  r14,#0xffffff90
	ld   [fr,-176],r14
	ld   r14,fr
	add  r14,#0xffffff8c
	ld   [fr,-180],r14
	ld   r14,fr
	add  r14,#0xffffff88
	ld   [fr,-184],r14
	ld   r14,fr
	add  r14,#0xffffff84
	ld   [fr,-188],r14
	ld   r14,fr
	add  r14,#0xffffff80
	ld   [fr,-192],r14
	ld   r14,fr
	add  r14,#0xffffff7c
	ld   i0,r14
	ld   i1,#LC23
	ld   i2,[fr,-44]
	call &__ZN6MAUtilplIcEENS_11BasicStringIT_EEPKS2_RKS3_
	ld   d0,fr
	add  d0,#0xffffff7c
	ld   r14,fr
	add  r14,#0xffffff78
	ld   i0,r14
	ld   i1,#LC24
	call &__ZN6MAUtil11BasicStringIcEC1EPKc
	ld   r14,fr
	add  r14,#0xffffff78
	ld   i0,[fr,-192]
	ld   i1,d0
	ld   i2,r14
	call &__ZNK6MAUtil11BasicStringIcEplERKS1_
	ld   r14,fr
	add  r14,#0xffffff80
	ld   i0,[fr,-188]
	ld   i1,r14
	ld   i2,[fr,-48]
	call &__ZNK6MAUtil11BasicStringIcEplERKS1_
	ld   d0,fr
	add  d0,#0xffffff84
	ld   r14,fr
	add  r14,#0xffffff74
	ld   i0,r14
	ld   i1,#LC25
	call &__ZN6MAUtil11BasicStringIcEC1EPKc
	ld   r14,fr
	add  r14,#0xffffff74
	ld   i0,[fr,-184]
	ld   i1,d0
	ld   i2,r14
	call &__ZNK6MAUtil11BasicStringIcEplERKS1_
	ld   r14,fr
	add  r14,#0xffffff88
	ld   i0,[fr,-180]
	ld   i1,r14
	ld   i2,[fr,-52]
	call &__ZNK6MAUtil11BasicStringIcEplERKS1_
	ld   d0,fr
	add  d0,#0xffffff8c
	ld   r14,fr
	add  r14,#0xffffff70
	ld   i0,r14
	ld   i1,#LC26
	call &__ZN6MAUtil11BasicStringIcEC1EPKc
	ld   r14,fr
	add  r14,#0xffffff70
	ld   i0,[fr,-176]
	ld   i1,d0
	ld   i2,r14
	call &__ZNK6MAUtil11BasicStringIcEplERKS1_
	ld   r14,fr
	add  r14,#0xffffff90
	ld   i0,[fr,-172]
	ld   i1,r14
	ld   i2,[fr,-56]
	call &__ZNK6MAUtil11BasicStringIcEplERKS1_
	ld   d0,fr
	add  d0,#0xffffff94
	ld   r14,fr
	add  r14,#0xffffff6c
	ld   i0,r14
	ld   i1,#LC27
	call &__ZN6MAUtil11BasicStringIcEC1EPKc
	ld   r14,fr
	add  r14,#0xffffff6c
	ld   i0,d7
	ld   i1,d0
	ld   i2,r14
	call &__ZNK6MAUtil11BasicStringIcEplERKS1_
	ld   d0,fr
	add  d0,#0xffffff98
	ld   r14,fr
	add  r14,#0xffffff68
	ld   r0,[fr]
	ld   i0,r14
	ld   i1,[r0]
	ld   i2,[r0,4]
	call &__ZN7Convert8toStringEx
	ld   r14,fr
	add  r14,#0xffffff68
	ld   i0,d6
	ld   i1,d0
	ld   i2,r14
	call &__ZNK6MAUtil11BasicStringIcEplERKS1_
	ld   d0,fr
	add  d0,#0xffffff9c
	ld   r14,fr
	add  r14,#0xffffff64
	ld   i0,r14
	ld   i1,#LC28
	call &__ZN6MAUtil11BasicStringIcEC1EPKc
	ld   r14,fr
	add  r14,#0xffffff64
	ld   i0,d5
	ld   i1,d0
	ld   i2,r14
	call &__ZNK6MAUtil11BasicStringIcEplERKS1_
	ld   r14,fr
	add  r14,#0xffffffa0
	ld   r0,fr
	add  r0,#0xffffffc0
	ld   i0,d4
	ld   i1,r14
	ld   i2,r0
	call &__ZNK6MAUtil11BasicStringIcEplERKS1_
	ld   d0,fr
	add  d0,#0xffffffa4
	ld   r14,fr
	add  r14,#0xffffff60
	ld   i0,r14
	ld   i1,#LC29
	call &__ZN6MAUtil11BasicStringIcEC1EPKc
	ld   r14,fr
	add  r14,#0xffffff60
	ld   i0,d3
	ld   i1,d0
	ld   i2,r14
	call &__ZNK6MAUtil11BasicStringIcEplERKS1_
	ld   r14,fr
	add  r14,#0xffffffa8
	ld   r0,fr
	add  r0,#0xffffffbc
	ld   i0,d2
	ld   i1,r14
	ld   i2,r0
	call &__ZNK6MAUtil11BasicStringIcEplERKS1_
	ld   d0,fr
	add  d0,#0xffffffac
	ld   r14,fr
	add  r14,#0xffffff5c
	ld   i0,r14
	ld   i1,#LC30
	call &__ZN6MAUtil11BasicStringIcEC1EPKc
	ld   r14,fr
	add  r14,#0xffffff5c
	ld   i0,d1
	ld   i1,d0
	ld   i2,r14
	call &__ZNK6MAUtil11BasicStringIcEplERKS1_
	ld   r14,fr
	add  r14,#0xffffff5c
	ld   i0,r14
	call &__ZN6MAUtil11BasicStringIcED1Ev
	ld   r14,fr
	add  r14,#0xffffffac
	ld   i0,r14
	call &__ZN6MAUtil11BasicStringIcED1Ev
	ld   r14,fr
	add  r14,#0xffffffa8
	ld   i0,r14
	call &__ZN6MAUtil11BasicStringIcED1Ev
	ld   r14,fr
	add  r14,#0xffffff60
	ld   i0,r14
	call &__ZN6MAUtil11BasicStringIcED1Ev
	ld   r14,fr
	add  r14,#0xffffffa4
	ld   i0,r14
	call &__ZN6MAUtil11BasicStringIcED1Ev
	ld   r14,fr
	add  r14,#0xffffffa0
	ld   i0,r14
	call &__ZN6MAUtil11BasicStringIcED1Ev
	ld   r14,fr
	add  r14,#0xffffff64
	ld   i0,r14
	call &__ZN6MAUtil11BasicStringIcED1Ev
	ld   r14,fr
	add  r14,#0xffffff9c
	ld   i0,r14
	call &__ZN6MAUtil11BasicStringIcED1Ev
	ld   r14,fr
	add  r14,#0xffffff68
	ld   i0,r14
	call &__ZN6MAUtil11BasicStringIcED1Ev
	ld   r14,fr
	add  r14,#0xffffff98
	ld   i0,r14
	call &__ZN6MAUtil11BasicStringIcED1Ev
	ld   r14,fr
	add  r14,#0xffffff6c
	ld   i0,r14
	call &__ZN6MAUtil11BasicStringIcED1Ev
	ld   r14,fr
	add  r14,#0xffffff94
	ld   i0,r14
	call &__ZN6MAUtil11BasicStringIcED1Ev
	ld   r14,fr
	add  r14,#0xffffff90
	ld   i0,r14
	call &__ZN6MAUtil11BasicStringIcED1Ev
	ld   r14,fr
	add  r14,#0xffffff70
	ld   i0,r14
	call &__ZN6MAUtil11BasicStringIcED1Ev
	ld   r14,fr
	add  r14,#0xffffff8c
	ld   i0,r14
	call &__ZN6MAUtil11BasicStringIcED1Ev
	ld   r14,fr
	add  r14,#0xffffff88
	ld   i0,r14
	call &__ZN6MAUtil11BasicStringIcED1Ev
	ld   r14,fr
	add  r14,#0xffffff74
	ld   i0,r14
	call &__ZN6MAUtil11BasicStringIcED1Ev
	ld   r14,fr
	add  r14,#0xffffff84
	ld   i0,r14
	call &__ZN6MAUtil11BasicStringIcED1Ev
	ld   r14,fr
	add  r14,#0xffffff80
	ld   i0,r14
	call &__ZN6MAUtil11BasicStringIcED1Ev
	ld   r14,fr
	add  r14,#0xffffff78
	ld   i0,r14
	call &__ZN6MAUtil11BasicStringIcED1Ev
	ld   r14,fr
	add  r14,#0xffffff7c
	ld   i0,r14
	call &__ZN6MAUtil11BasicStringIcED1Ev
	.line 238
	ld   r14,fr
	add  r14,#0xffffffb0
	ld   i0,r14
	call &__ZNK6MAUtil11BasicStringIcE5c_strEv
	ld   d0,r14
	ld   r14,fr
	add  r14,#0xffffffb0
	ld   i0,r14
	call &__ZNK6MAUtil11BasicStringIcE4sizeEv
	ld   i0,[fr,-72]
	ld   i1,d0
	ld   i2,r14
	call &_maFileWrite
	ld   [fr,-76],r14
	.line 239
	ld   r14,fr
	add  r14,#0xffffffb0
	ld   i0,r14
	call &__ZNK6MAUtil11BasicStringIcE5c_strEv
	ld   i0,r14
	call &_lprintfln
	.line 242
	ld   r0,[fr,-76]
	ld   r14,#0x0
	jc   eq,r0,r14,#L50
	ld   i0,#LC16
	call &_FileNameFromPath
	ld   i0,#0x6
	ld   i1,r14
	ld   i2,#0xf2
	call &_bfeHandler
L50:
	.line 246
	ld   i0,[fr,-72]
	call &_maFileClose
	ld   [fr,-76],r14
	.line 247
	ld   r0,[fr,-76]
	ld   r14,#0x0
	jc   eq,r0,r14,#L52
	ld   i0,#LC16
	call &_FileNameFromPath
	ld   i0,#0x6
	ld   i1,r14
	ld   i2,#0xf7
	call &_bfeHandler
L52:
	.dlab LBB32
	.line 250
	ld   r14,fr
	add  r14,#0xffffffb0
	ld   i0,r14
	call &__ZN6MAUtil11BasicStringIcED1Ev
	ld   r14,fr
	add  r14,#0xffffffc0
	ld   i0,r14
	call &__ZN6MAUtil11BasicStringIcED1Ev
	ld   r14,fr
	add  r14,#0xffffffbc
	ld   i0,r14
	call &__ZN6MAUtil11BasicStringIcED1Ev
	ld   r14,fr
	add  r14,#0xffffffc4
	ld   i0,r14
	call &__ZN6MAUtil11BasicStringIcED1Ev
	.dlab LBE32
	ld   r14,#0x2
	ld   [fr,-168],r14
L38:
	.dlab LBE30
	.dlab LBE29
	.line 251
	ld   r14,[fr,-168]
	add  sp,#0x98
	pop  rt,d7
	ret
	.stabs	"filename:(13,1)",128,0,200,-60
	.stabs	"file:(6,10)",128,0,204,-72
	.stabs	"res:(0,3)",128,0,211,-76
	.stabs	"sVibrate:(13,1)",128,0,227,-68
	.stabs	"sNotification:(13,1)",128,0,228,-64
	.stabs	"tmp:(13,1)",128,0,236,-80
	.stabn	192,0,0,LBB30-__Z10tryToWriteRN6MAUtil11BasicStringIcEES2_S2_S2_Rxbb
	.stabn	224,0,0,LBE30-__Z10tryToWriteRN6MAUtil11BasicStringIcEES2_S2_S2_Rxbb
Lscope14:
	.stabs	"maFileWrite:f(0,3)",36,0,6332,_maFileWrite
	.stabs	"file:p(6,10)",160,0,6332,-12
	.stabs	"src:p(8,5)",160,0,6332,-16
	.stabs	"len:p(0,3)",160,0,6332,-20

.func _maFileWrite, 3, int
	.stabs	"c:/MoSync/include/maapi.h",132,0,0,Ltext8
Ltext8:
	.line 6332
	push rt,fr
	sub  sp,#0xc
	ld   fr,sp
	add  fr,#0x14
	ld   [fr,-12],i0
	ld   [fr,-16],i1
	ld   [fr,-20],i2
	.dlab LBB33
	.line 6333
	ld   i0,#0x33
	ld   i1,[fr,-12]
	ld   i2,[fr,-16]
	ld   i3,[fr,-20]
	call &_maIOCtl
	.dlab LBE33
	.line 6334
	add  sp,#0xc
	pop  rt,fr
	ret
Lscope15:
	.stabs	"maFileCreate:f(0,3)",36,0,6235,_maFileCreate
	.stabs	"file:p(6,10)",160,0,6235,-12

.func _maFileCreate, 1, int
	.line 6235
	push rt,fr
	sub  sp,#0x4
	ld   fr,sp
	add  fr,#0xc
	ld   [fr,-12],i0
	.dlab LBB34
	.line 6236
	ld   i0,#0x2b
	ld   i1,[fr,-12]
	ld   i2,#0x0
	ld   i3,#0x0
	call &_maIOCtl
	.dlab LBE34
	.line 6237
	add  sp,#0x4
	pop  rt,fr
	ret
Lscope16:
	.stabs	"maFileTruncate:f(0,3)",36,0,6321,_maFileTruncate
	.stabs	"file:p(6,10)",160,0,6321,-12
	.stabs	"offset:p(0,3)",160,0,6321,-16

.func _maFileTruncate, 2, int
	.line 6321
	push rt,fr
	sub  sp,#0x8
	ld   fr,sp
	add  fr,#0x10
	ld   [fr,-12],i0
	ld   [fr,-16],i1
	.dlab LBB35
	.line 6322
	ld   i0,#0x32
	ld   i1,[fr,-12]
	ld   i2,[fr,-16]
	ld   i3,#0x0
	call &_maIOCtl
	.dlab LBE35
	.line 6323
	add  sp,#0x8
	pop  rt,fr
	ret
Lscope17:
	.stabn	162,0,0,0
	.stabs	"C:\\Users\\gdr\\Documents\\source\\mobile-app\\MobileApp\\/Connections.h",130,0,0,0
	.stabs	"Connections::eFonction:t(98,1)=eTRACKING_LIST:0,PLUGIN_LIST:1,INFORMATION_LIST:2,ALERT_LIST:3,ASSET_LIST:4,OPERATOR_LIST:5,UNIT_INFO:6,SUB_UNIT_INFO:7,USER_LIST:8,MEDIA_VALUE_LIST:9,MEDIA_TYPE:10,POST_MEDIA_SPE:11,POST_ALERT:12,SEARCH_INFO:13,ALERT_INFO:14,ALERT_RECIPIENT_LIST:15,UNITS_TYPES:16,DELETE_ALERT_LIST:17,USER_TOKEN:18,MEDIAS_LIST:19,POST_MEDIA_VALUE:20,POST_MEDIA_VALUE_VALIDATION:21,AUTHENTICATION_VALIDATION:22,;",128,0,27,0
	.stabn	162,0,0,0
	.stabs	"C:\\Users\\gdr\\Documents\\source\\mobile-app\\MobileApp\\/Page.h",130,0,0,0
	.stabn	162,0,0,0
	.stabs	"C:\\Users\\gdr\\Documents\\source\\mobile-app\\MobileApp\\/ActivityPage.h",130,0,0,0
	.stabn	162,0,0,0
	.stabs	"Dictionary<const int,MAUtil::Pair<const int, NativeUI::ListViewItem*> >:Tt(1,1)=s56mDict:/1(8,32),0,416;mKeyOffset:/1(0,3),416,32;__base_ctor::(1,2)=#(1,1),(0,6),(1,3)=*(1,1),(1,4)=&(1,5)=k(1,1),(0,6);:_ZN6MAUtil10DictionaryIKiNS_4PairIS1_PN8NativeUI12ListViewItemEEEEC2ERKS7_;2A.;__comp_ctor::(1,2):_ZN6MAUtil10DictionaryIKiNS_4PairIS1_PN8NativeUI12ListViewItemEEEEC1ERKS7_;2A.;operator=::(1,6)=#(1,1),(1,7)=&(1,1),(1,3),(1,4),(0,6);:_ZN6MAUtil10DictionaryIKiNS_4PairIS1_PN8NativeUI12ListViewItemEEEEaSERKS7_;2A.;__base_dtor::(1,8)=#(1,1),(0,6),(1,3),(0,6);:_ZN6MAUtil10DictionaryIKiNS_4PairIS1_PN8NativeUI12ListViewItemEEEED2Ev;2A.;__comp_dtor::(1,8):_ZN6MAUtil10DictionaryIKiNS_4PairIS1_PN8NativeUI12ListViewItemEEEED1Ev;2A.;find::(1,9)=#(1,1),(1,10)=xsIterator:,(1,3),(1,11)=&(1,12)=k(0,3),(0,6);:_ZN6MAUtil10DictionaryIKiNS_4PairIS1_PN8NativeUI12ListViewItemEEEE4findERS1_;2A.(1,13)=#(1,1),(1,14)=xsConstIterator:,(1,15)=*(1,5),(1,11),(0,6);:_ZNK6MAUtil10DictionaryIKiNS_4PairIS1_PN8NativeUI12ListViewItemEEEE4findERS1_;2B.;erase::(1,16)=#(1,1),(0,4),(1,3),(1,11),(0,6);:_ZN6MAUtil10DictionaryIKiNS_4PairIS1_PN8NativeUI12ListViewItemEEEE5eraseERS1_;2A.(1,17)=#(1,1),(0,6),(1,3),(1,10),(0,6);:_ZN6MAUtil10DictionaryIKiNS_4PairIS1_PN8NativeUI12ListViewItemEEEE5eraseENS7_8IteratorE;2A.;begin::(1,18)=#(1,1),(1,10),(1,3),(0,6);:_ZN6MAUtil10DictionaryIKiNS_4PairIS1_PN8NativeUI12ListViewItemEEEE5beginEv;2A.(1,19)=#(1,1),(1,14),(1,15),(0,6);:_ZNK6MAUtil10DictionaryIKiNS_4PairIS1_PN8NativeUI12ListViewItemEEEE5beginEv;2B.;end::(1,18):_ZN6MAUtil10DictionaryIKiNS_4PairIS1_PN8NativeUI12ListViewItemEEEE3endEv;2A.(1,19):_ZNK6MAUtil10DictionaryIKiNS_4PairIS1_PN8NativeUI12ListViewItemEEEE3endEv;2B.;size::(1,20)=#(1,1),(5,1),(1,15),(0,6);:_ZNK6MAUtil10DictionaryIKiNS_4PairIS1_PN8NativeUI12ListViewItemEEEE4sizeEv;2B.;clear::(1,8):_ZN6MAUtil10DictionaryIKiNS_4PairIS1_PN8NativeUI12ListViewItemEEEE5clearEv;2A.;init::(1,21)=#(1,1),(0,6),(1,3),(1,22)=*(1,23)=f(0,3),(0,6);:_ZN6MAUtil10DictionaryIKiNS_4PairIS1_PN8NativeUI12ListViewItemEEEE4initEPFiRS1_S8_E;1A.;alloc::(8,19):_ZN6MAUtil10DictionaryIKiNS_4PairIS1_PN8NativeUI12ListViewItemEEEE5allocEPv;1A?;free::(8,23):_ZN6MAUtil10DictionaryIKiNS_4PairIS1_PN8NativeUI12ListViewItemEEEE4freeEP7dnode_tPv;1A?;__base_ctor::(1,24)=#(1,1),(0,6),(1,3),(1,22),(0,3),(0,6);:_ZN6MAUtil10DictionaryIKiNS_4PairIS1_PN8NativeUI12ListViewItemEEEEC2EPFiRS1_S8_Ei;1A.;__comp_ctor::(1,24):_ZN6MAUtil10DictionaryIKiNS_4PairIS1_PN8NativeUI12ListViewItemEEEEC1EPFiRS1_S8_Ei;1A.;insert::(1,25)=#(1,1),(1,26)=xsPair<MAUtil::Dictionary<const int, MAUtil::Pair<const int, NativeUI::ListViewItem*> >::Iterator,bool>:,(1,3),(1,27)=&(1,28)=k(1,29)=xsPair<const int,NativeUI::ListViewItem*>:,(0,6);:_ZN6MAUtil10DictionaryIKiNS_4PairIS1_PN8NativeUI12ListViewItemEEEE6insertERKS6_;1A.;;",128,0,57,0
	.stabs	"Map<int,NativeUI::ListViewItem*>:Tt(1,30)=s56!1,020,(1,1);__base_ctor::(1,31)=#(1,30),(0,6),(1,32)=*(1,30),(1,22),(0,6);:_ZN6MAUtil3MapIiPN8NativeUI12ListViewItemEEC2EPFiRKiS6_E;2A.;__comp_ctor::(1,31):_ZN6MAUtil3MapIiPN8NativeUI12ListViewItemEEC1EPFiRKiS6_E;2A.;insert::(1,33)=#(1,30),(1,26),(1,32),(1,11),(1,34)=&(1,35)=k(1,36)=*(1,37)=xsListViewItem:,(0,6);:_ZN6MAUtil3MapIiPN8NativeUI12ListViewItemEE6insertERKiRKS3_;2A.(1,38)=#(1,30),(1,26),(1,32),(1,39)=&(1,40)=k(1,41)=xsPair<int,NativeUI::ListViewItem*>:,(0,6);:_ZN6MAUtil3MapIiPN8NativeUI12ListViewItemEE6insertERKNS_4PairIiS3_EE;2A.;operator[]::(1,42)=#(1,30),(1,43)=&(1,36),(1,32),(1,11),(0,6);:_ZN6MAUtil3MapIiPN8NativeUI12ListViewItemEEixERKi;2A.;operator=::(1,44)=#(1,30),(1,45)=&(1,30),(1,32),(1,46)=&(1,47)=k(1,30),(0,6);:_ZN6MAUtil3MapIiPN8NativeUI12ListViewItemEEaSERKS4_;2A.;__base_ctor::(1,48)=#(1,30),(0,6),(1,32),(1,46),(0,6);:_ZN6MAUtil3MapIiPN8NativeUI12ListViewItemEEC2ERKS4_;2A.;__comp_ctor::(1,48):_ZN6MAUtil3MapIiPN8NativeUI12ListViewItemEEC1ERKS4_;2A.;__base_dtor::(1,49)=#(1,30),(0,6),(1,32),(0,6);:_ZN6MAUtil3MapIiPN8NativeUI12ListViewItemEED2Ev;2A.;__comp_dtor::(1,49):_ZN6MAUtil3MapIiPN8NativeUI12ListViewItemEED1Ev;2A.;;",128,0,33,0
	.stabs	"Dictionary<const int,MAUtil::Pair<const int, NativeUI::Label*> >:Tt(1,50)=s56mDict:/1(8,32),0,416;mKeyOffset:/1(0,3),416,32;__base_ctor::(1,51)=#(1,50),(0,6),(1,52)=*(1,50),(1,53)=&(1,54)=k(1,50),(0,6);:_ZN6MAUtil10DictionaryIKiNS_4PairIS1_PN8NativeUI5LabelEEEEC2ERKS7_;2A.;__comp_ctor::(1,51):_ZN6MAUtil10DictionaryIKiNS_4PairIS1_PN8NativeUI5LabelEEEEC1ERKS7_;2A.;operator=::(1,55)=#(1,50),(1,56)=&(1,50),(1,52),(1,53),(0,6);:_ZN6MAUtil10DictionaryIKiNS_4PairIS1_PN8NativeUI5LabelEEEEaSERKS7_;2A.;__base_dtor::(1,57)=#(1,50),(0,6),(1,52),(0,6);:_ZN6MAUtil10DictionaryIKiNS_4PairIS1_PN8NativeUI5LabelEEEED2Ev;2A.;__comp_dtor::(1,57):_ZN6MAUtil10DictionaryIKiNS_4PairIS1_PN8NativeUI5LabelEEEED1Ev;2A.;find::(1,58)=#(1,50),(1,59)=xsIterator:,(1,52),(1,11),(0,6);:_ZN6MAUtil10DictionaryIKiNS_4PairIS1_PN8NativeUI5LabelEEEE4findERS1_;2A.(1,60)=#(1,50),(1,61)=xsConstIterator:,(1,62)=*(1,54),(1,11),(0,6);:_ZNK6MAUtil10DictionaryIKiNS_4PairIS1_PN8NativeUI5LabelEEEE4findERS1_;2B.;erase::(1,63)=#(1,50),(0,4),(1,52),(1,11),(0,6);:_ZN6MAUtil10DictionaryIKiNS_4PairIS1_PN8NativeUI5LabelEEEE5eraseERS1_;2A.(1,64)=#(1,50),(0,6),(1,52),(1,59),(0,6);:_ZN6MAUtil10DictionaryIKiNS_4PairIS1_PN8NativeUI5LabelEEEE5eraseENS7_8IteratorE;2A.;begin::(1,65)=#(1,50),(1,59),(1,52),(0,6);:_ZN6MAUtil10DictionaryIKiNS_4PairIS1_PN8NativeUI5LabelEEEE5beginEv;2A.(1,66)=#(1,50),(1,61),(1,62),(0,6);:_ZNK6MAUtil10DictionaryIKiNS_4PairIS1_PN8NativeUI5LabelEEEE5beginEv;2B.;end::(1,65):_ZN6MAUtil10DictionaryIKiNS_4PairIS1_PN8NativeUI5LabelEEEE3endEv;2A.(1,66):_ZNK6MAUtil10DictionaryIKiNS_4PairIS1_PN8NativeUI5LabelEEEE3endEv;2B.;size::(1,67)=#(1,50),(5,1),(1,62),(0,6);:_ZNK6MAUtil10DictionaryIKiNS_4PairIS1_PN8NativeUI5LabelEEEE4sizeEv;2B.;clear::(1,57):_ZN6MAUtil10DictionaryIKiNS_4PairIS1_PN8NativeUI5LabelEEEE5clearEv;2A.;init::(1,68)=#(1,50),(0,6),(1,52),(1,22),(0,6);:_ZN6MAUtil10DictionaryIKiNS_4PairIS1_PN8NativeUI5LabelEEEE4initEPFiRS1_S8_E;1A.;alloc::(8,19):_ZN6MAUtil10DictionaryIKiNS_4PairIS1_PN8NativeUI5LabelEEEE5allocEPv;1A?;free::(8,23):_ZN6MAUtil10DictionaryIKiNS_4PairIS1_PN8NativeUI5LabelEEEE4freeEP7dnode_tPv;1A?;__base_ctor::(1,69)=#(1,50),(0,6),(1,52),(1,22),(0,3),(0,6);:_ZN6MAUtil10DictionaryIKiNS_4PairIS1_PN8NativeUI5LabelEEEEC2EPFiRS1_S8_Ei;1A.;__comp_ctor::(1,69):_ZN6MAUtil10DictionaryIKiNS_4PairIS1_PN8NativeUI5LabelEEEEC1EPFiRS1_S8_Ei;1A.;insert::(1,70)=#(1,50),(1,71)=xsPair<MAUtil::Dictionary<const int, MAUtil::Pair<const int, NativeUI::Label*> >::Iterator,bool>:,(1,52),(1,72)=&(1,73)=k(1,74)=xsPair<const int,NativeUI::Label*>:,(0,6);:_ZN6MAUtil10DictionaryIKiNS_4PairIS1_PN8NativeUI5LabelEEEE6insertERKS6_;1A.;;",128,0,57,0
	.stabs	"Map<int,NativeUI::Label*>:Tt(1,75)=s56!1,020,(1,50);__base_ctor::(1,76)=#(1,75),(0,6),(1,77)=*(1,75),(1,22),(0,6);:_ZN6MAUtil3MapIiPN8NativeUI5LabelEEC2EPFiRKiS6_E;2A.;__comp_ctor::(1,76):_ZN6MAUtil3MapIiPN8NativeUI5LabelEEC1EPFiRKiS6_E;2A.;insert::(1,78)=#(1,75),(1,71),(1,77),(1,11),(1,79)=&(1,80)=k(1,81)=*(1,82)=xsLabel:,(0,6);:_ZN6MAUtil3MapIiPN8NativeUI5LabelEE6insertERKiRKS3_;2A.(1,83)=#(1,75),(1,71),(1,77),(1,84)=&(1,85)=k(1,86)=xsPair<int,NativeUI::Label*>:,(0,6);:_ZN6MAUtil3MapIiPN8NativeUI5LabelEE6insertERKNS_4PairIiS3_EE;2A.;operator[]::(1,87)=#(1,75),(1,88)=&(1,81),(1,77),(1,11),(0,6);:_ZN6MAUtil3MapIiPN8NativeUI5LabelEEixERKi;2A.;operator=::(1,89)=#(1,75),(1,90)=&(1,75),(1,77),(1,91)=&(1,92)=k(1,75),(0,6);:_ZN6MAUtil3MapIiPN8NativeUI5LabelEEaSERKS4_;2A.;__base_ctor::(1,93)=#(1,75),(0,6),(1,77),(1,91),(0,6);:_ZN6MAUtil3MapIiPN8NativeUI5LabelEEC2ERKS4_;2A.;__comp_ctor::(1,93):_ZN6MAUtil3MapIiPN8NativeUI5LabelEEC1ERKS4_;2A.;__base_dtor::(1,94)=#(1,75),(0,6),(1,77),(0,6);:_ZN6MAUtil3MapIiPN8NativeUI5LabelEED2Ev;2A.;__comp_dtor::(1,94):_ZN6MAUtil3MapIiPN8NativeUI5LabelEED1Ev;2A.;;",128,0,33,0
	.stabs	"Dictionary<const int,MAUtil::Pair<const int, long long int> >:Tt(1,95)=s56mDict:/1(8,32),0,416;mKeyOffset:/1(0,3),416,32;__base_ctor::(1,96)=#(1,95),(0,6),(1,97)=*(1,95),(1,98)=&(1,99)=k(1,95),(0,6);:_ZN6MAUtil10DictionaryIKiNS_4PairIS1_xEEEC2ERKS4_;2A.;__comp_ctor::(1,96):_ZN6MAUtil10DictionaryIKiNS_4PairIS1_xEEEC1ERKS4_;2A.;operator=::(1,100)=#(1,95),(1,101)=&(1,95),(1,97),(1,98),(0,6);:_ZN6MAUtil10DictionaryIKiNS_4PairIS1_xEEEaSERKS4_;2A.;__base_dtor::(1,102)=#(1,95),(0,6),(1,97),(0,6);:_ZN6MAUtil10DictionaryIKiNS_4PairIS1_xEEED2Ev;2A.;__comp_dtor::(1,102):_ZN6MAUtil10DictionaryIKiNS_4PairIS1_xEEED1Ev;2A.;find::(1,103)=#(1,95),(1,104)=xsIterator:,(1,97),(1,11),(0,6);:_ZN6MAUtil10DictionaryIKiNS_4PairIS1_xEEE4findERS1_;2A.(1,105)=#(1,95),(1,106)=xsConstIterator:,(1,107)=*(1,99),(1,11),(0,6);:_ZNK6MAUtil10DictionaryIKiNS_4PairIS1_xEEE4findERS1_;2B.;erase::(1,108)=#(1,95),(0,4),(1,97),(1,11),(0,6);:_ZN6MAUtil10DictionaryIKiNS_4PairIS1_xEEE5eraseERS1_;2A.(1,109)=#(1,95),(0,6),(1,97),(1,104),(0,6);:_ZN6MAUtil10DictionaryIKiNS_4PairIS1_xEEE5eraseENS4_8IteratorE;2A.;begin::(1,110)=#(1,95),(1,104),(1,97),(0,6);:_ZN6MAUtil10DictionaryIKiNS_4PairIS1_xEEE5beginEv;2A.(1,111)=#(1,95),(1,106),(1,107),(0,6);:_ZNK6MAUtil10DictionaryIKiNS_4PairIS1_xEEE5beginEv;2B.;end::(1,110):_ZN6MAUtil10DictionaryIKiNS_4PairIS1_xEEE3endEv;2A.(1,111):_ZNK6MAUtil10DictionaryIKiNS_4PairIS1_xEEE3endEv;2B.;size::(1,112)=#(1,95),(5,1),(1,107),(0,6);:_ZNK6MAUtil10DictionaryIKiNS_4PairIS1_xEEE4sizeEv;2B.;clear::(1,102):_ZN6MAUtil10DictionaryIKiNS_4PairIS1_xEEE5clearEv;2A.;init::(1,113)=#(1,95),(0,6),(1,97),(1,22),(0,6);:_ZN6MAUtil10DictionaryIKiNS_4PairIS1_xEEE4initEPFiRS1_S5_E;1A.;alloc::(8,19):_ZN6MAUtil10DictionaryIKiNS_4PairIS1_xEEE5allocEPv;1A?;free::(8,23):_ZN6MAUtil10DictionaryIKiNS_4PairIS1_xEEE4freeEP7dnode_tPv;1A?;__base_ctor::(1,114)=#(1,95),(0,6),(1,97),(1,22),(0,3),(0,6);:_ZN6MAUtil10DictionaryIKiNS_4PairIS1_xEEEC2EPFiRS1_S5_Ei;1A.;__comp_ctor::(1,114):_ZN6MAUtil10DictionaryIKiNS_4PairIS1_xEEEC1EPFiRS1_S5_Ei;1A.;insert::(1,115)=#(1,95),(1,116)=xsPair<MAUtil::Dictionary<const int, MAUtil::Pair<const int, long long int> >::Iterator,bool>:,(1,97),(1,117)=&(1,118)=k(1,119)=xsPair<const int,long long int>:,(0,6);:_ZN6MAUtil10DictionaryIKiNS_4PairIS1_xEEE6insertERKS3_;1A.;;",128,0,57,0
	.stabs	"Map<int,long long int>:Tt(1,120)=s56!1,020,(1,95);__base_ctor::(1,121)=#(1,120),(0,6),(1,122)=*(1,120),(1,22),(0,6);:_ZN6MAUtil3MapIixEC2EPFiRKiS3_E;2A.;__comp_ctor::(1,121):_ZN6MAUtil3MapIixEC1EPFiRKiS3_E;2A.;insert::(1,123)=#(1,120),(1,116),(1,122),(1,11),(1,124)=&(1,125)=k(0,15),(0,6);:_ZN6MAUtil3MapIixE6insertERKiRKx;2A.(1,126)=#(1,120),(1,116),(1,122),(1,127)=&(1,128)=k(1,129)=xsPair<int,long long int>:,(0,6);:_ZN6MAUtil3MapIixE6insertERKNS_4PairIixEE;2A.;operator[]::(1,130)=#(1,120),(94,9),(1,122),(1,11),(0,6);:_ZN6MAUtil3MapIixEixERKi;2A.;operator=::(1,131)=#(1,120),(1,132)=&(1,120),(1,122),(1,133)=&(1,134)=k(1,120),(0,6);:_ZN6MAUtil3MapIixEaSERKS1_;2A.;__base_ctor::(1,135)=#(1,120),(0,6),(1,122),(1,133),(0,6);:_ZN6MAUtil3MapIixEC2ERKS1_;2A.;__comp_ctor::(1,135):_ZN6MAUtil3MapIixEC1ERKS1_;2A.;__base_dtor::(1,136)=#(1,120),(0,6),(1,122),(0,6);:_ZN6MAUtil3MapIixED2Ev;2A.;__comp_dtor::(1,136):_ZN6MAUtil3MapIixED1Ev;2A.;;",128,0,33,0
	.stabs	"Dictionary<const int,MAUtil::Pair<const int, MAUtil::BasicString<char> > >:Tt(1,137)=s56mDict:/1(8,32),0,416;mKeyOffset:/1(0,3),416,32;__base_ctor::(1,138)=#(1,137),(0,6),(1,139)=*(1,137),(1,140)=&(1,141)=k(1,137),(0,6);:_ZN6MAUtil10DictionaryIKiNS_4PairIS1_NS_11BasicStringIcEEEEEC2ERKS6_;2A.;__comp_ctor::(1,138):_ZN6MAUtil10DictionaryIKiNS_4PairIS1_NS_11BasicStringIcEEEEEC1ERKS6_;2A.;operator=::(1,142)=#(1,137),(1,143)=&(1,137),(1,139),(1,140),(0,6);:_ZN6MAUtil10DictionaryIKiNS_4PairIS1_NS_11BasicStringIcEEEEEaSERKS6_;2A.;__base_dtor::(1,144)=#(1,137),(0,6),(1,139),(0,6);:_ZN6MAUtil10DictionaryIKiNS_4PairIS1_NS_11BasicStringIcEEEEED2Ev;2A.;__comp_dtor::(1,144):_ZN6MAUtil10DictionaryIKiNS_4PairIS1_NS_11BasicStringIcEEEEED1Ev;2A.;find::(1,145)=#(1,137),(1,146)=xsIterator:,(1,139),(1,11),(0,6);:_ZN6MAUtil10DictionaryIKiNS_4PairIS1_NS_11BasicStringIcEEEEE4findERS1_;2A.(1,147)=#(1,137),(1,148)=xsConstIterator:,(1,149)=*(1,141),(1,11),(0,6);:_ZNK6MAUtil10DictionaryIKiNS_4PairIS1_NS_11BasicStringIcEEEEE4findERS1_;2B.;erase::(1,150)=#(1,137),(0,4),(1,139),(1,11),(0,6);:_ZN6MAUtil10DictionaryIKiNS_4PairIS1_NS_11BasicStringIcEEEEE5eraseERS1_;2A.(1,151)=#(1,137),(0,6),(1,139),(1,146),(0,6);:_ZN6MAUtil10DictionaryIKiNS_4PairIS1_NS_11BasicStringIcEEEEE5eraseENS6_8IteratorE;2A.;begin::(1,152)=#(1,137),(1,146),(1,139),(0,6);:_ZN6MAUtil10DictionaryIKiNS_4PairIS1_NS_11BasicStringIcEEEEE5beginEv;2A.(1,153)=#(1,137),(1,148),(1,149),(0,6);:_ZNK6MAUtil10DictionaryIKiNS_4PairIS1_NS_11BasicStringIcEEEEE5beginEv;2B.;end::(1,152):_ZN6MAUtil10DictionaryIKiNS_4PairIS1_NS_11BasicStringIcEEEEE3endEv;2A.(1,153):_ZNK6MAUtil10DictionaryIKiNS_4PairIS1_NS_11BasicStringIcEEEEE3endEv;2B.;size::(1,154)=#(1,137),(5,1),(1,149),(0,6);:_ZNK6MAUtil10DictionaryIKiNS_4PairIS1_NS_11BasicStringIcEEEEE4sizeEv;2B.;clear::(1,144):_ZN6MAUtil10DictionaryIKiNS_4PairIS1_NS_11BasicStringIcEEEEE5clearEv;2A.;init::(1,155)=#(1,137),(0,6),(1,139),(1,22),(0,6);:_ZN6MAUtil10DictionaryIKiNS_4PairIS1_NS_11BasicStringIcEEEEE4initEPFiRS1_S7_E;1A.;alloc::(8,19):_ZN6MAUtil10DictionaryIKiNS_4PairIS1_NS_11BasicStringIcEEEEE5allocEPv;1A?;free::(8,23):_ZN6MAUtil10DictionaryIKiNS_4PairIS1_NS_11BasicStringIcEEEEE4freeEP7dnode_tPv;1A?;__base_ctor::(1,156)=#(1,137),(0,6),(1,139),(1,22),(0,3),(0,6);:_ZN6MAUtil10DictionaryIKiNS_4PairIS1_NS_11BasicStringIcEEEEEC2EPFiRS1_S7_Ei;1A.;__comp_ctor::(1,156):_ZN6MAUtil10DictionaryIKiNS_4PairIS1_NS_11BasicStringIcEEEEEC1EPFiRS1_S7_Ei;1A.;insert::(1,157)=#(1,137),(1,158)=xsPair<MAUtil::Dictionary<const int, MAUtil::Pair<const int, MAUtil::BasicString<char> > >::Iterator,bool>:,(1,139),(1,159)=&(1,160)=k(1,161)=xsPair<const int,MAUtil::BasicString<char> >:,(0,6);:_ZN6MAUtil10DictionaryIKiNS_4PairIS1_NS_11BasicStringIcEEEEE6insertERKS5_;1A.;;",128,0,57,0
	.stabs	"Map<int,MAUtil::BasicString<char> >:Tt(1,162)=s56!1,020,(1,137);__base_ctor::(1,163)=#(1,162),(0,6),(1,164)=*(1,162),(1,22),(0,6);:_ZN6MAUtil3MapIiNS_11BasicStringIcEEEC2EPFiRKiS5_E;2A.;__comp_ctor::(1,163):_ZN6MAUtil3MapIiNS_11BasicStringIcEEEC1EPFiRKiS5_E;2A.;insert::(1,165)=#(1,162),(1,158),(1,164),(1,11),(20,38),(0,6);:_ZN6MAUtil3MapIiNS_11BasicStringIcEEE6insertERKiRKS2_;2A.(1,166)=#(1,162),(1,158),(1,164),(1,167)=&(1,168)=k(1,169)=xsPair<int,MAUtil::BasicString<char> >:,(0,6);:_ZN6MAUtil3MapIiNS_11BasicStringIcEEE6insertERKNS_4PairIiS2_EE;2A.;operator[]::(1,170)=#(1,162),(95,6),(1,164),(1,11),(0,6);:_ZN6MAUtil3MapIiNS_11BasicStringIcEEEixERKi;2A.;operator=::(1,171)=#(1,162),(1,172)=&(1,162),(1,164),(1,173)=&(1,174)=k(1,162),(0,6);:_ZN6MAUtil3MapIiNS_11BasicStringIcEEEaSERKS3_;2A.;__base_ctor::(1,175)=#(1,162),(0,6),(1,164),(1,173),(0,6);:_ZN6MAUtil3MapIiNS_11BasicStringIcEEEC2ERKS3_;2A.;__comp_ctor::(1,175):_ZN6MAUtil3MapIiNS_11BasicStringIcEEEC1ERKS3_;2A.;__base_dtor::(1,176)=#(1,162),(0,6),(1,164),(0,6);:_ZN6MAUtil3MapIiNS_11BasicStringIcEEED2Ev;2A.;__comp_dtor::(1,176):_ZN6MAUtil3MapIiNS_11BasicStringIcEEED1Ev;2A.;;",128,0,33,0
	.stabs	"Dictionary<const int,MAUtil::Pair<const int, int> >:Tt(1,177)=s56mDict:/1(8,32),0,416;mKeyOffset:/1(0,3),416,32;__base_ctor::(1,178)=#(1,177),(0,6),(1,179)=*(1,177),(1,180)=&(1,181)=k(1,177),(0,6);:_ZN6MAUtil10DictionaryIKiNS_4PairIS1_iEEEC2ERKS4_;2A.;__comp_ctor::(1,178):_ZN6MAUtil10DictionaryIKiNS_4PairIS1_iEEEC1ERKS4_;2A.;operator=::(1,182)=#(1,177),(1,183)=&(1,177),(1,179),(1,180),(0,6);:_ZN6MAUtil10DictionaryIKiNS_4PairIS1_iEEEaSERKS4_;2A.;__base_dtor::(1,184)=#(1,177),(0,6),(1,179),(0,6);:_ZN6MAUtil10DictionaryIKiNS_4PairIS1_iEEED2Ev;2A.;__comp_dtor::(1,184):_ZN6MAUtil10DictionaryIKiNS_4PairIS1_iEEED1Ev;2A.;find::(1,185)=#(1,177),(1,186)=xsIterator:,(1,179),(1,11),(0,6);:_ZN6MAUtil10DictionaryIKiNS_4PairIS1_iEEE4findERS1_;2A.(1,187)=#(1,177),(1,188)=xsConstIterator:,(1,189)=*(1,181),(1,11),(0,6);:_ZNK6MAUtil10DictionaryIKiNS_4PairIS1_iEEE4findERS1_;2B.;erase::(1,190)=#(1,177),(0,4),(1,179),(1,11),(0,6);:_ZN6MAUtil10DictionaryIKiNS_4PairIS1_iEEE5eraseERS1_;2A.(1,191)=#(1,177),(0,6),(1,179),(1,186),(0,6);:_ZN6MAUtil10DictionaryIKiNS_4PairIS1_iEEE5eraseENS4_8IteratorE;2A.;begin::(1,192)=#(1,177),(1,186),(1,179),(0,6);:_ZN6MAUtil10DictionaryIKiNS_4PairIS1_iEEE5beginEv;2A.(1,193)=#(1,177),(1,188),(1,189),(0,6);:_ZNK6MAUtil10DictionaryIKiNS_4PairIS1_iEEE5beginEv;2B.;end::(1,192):_ZN6MAUtil10DictionaryIKiNS_4PairIS1_iEEE3endEv;2A.(1,193):_ZNK6MAUtil10DictionaryIKiNS_4PairIS1_iEEE3endEv;2B.;size::(1,194)=#(1,177),(5,1),(1,189),(0,6);:_ZNK6MAUtil10DictionaryIKiNS_4PairIS1_iEEE4sizeEv;2B.;clear::(1,184):_ZN6MAUtil10DictionaryIKiNS_4PairIS1_iEEE5clearEv;2A.;init::(1,195)=#(1,177),(0,6),(1,179),(1,22),(0,6);:_ZN6MAUtil10DictionaryIKiNS_4PairIS1_iEEE4initEPFiRS1_S5_E;1A.;alloc::(8,19):_ZN6MAUtil10DictionaryIKiNS_4PairIS1_iEEE5allocEPv;1A?;free::(8,23):_ZN6MAUtil10DictionaryIKiNS_4PairIS1_iEEE4freeEP7dnode_tPv;1A?;__base_ctor::(1,196)=#(1,177),(0,6),(1,179),(1,22),(0,3),(0,6);:_ZN6MAUtil10DictionaryIKiNS_4PairIS1_iEEEC2EPFiRS1_S5_Ei;1A.;__comp_ctor::(1,196):_ZN6MAUtil10DictionaryIKiNS_4PairIS1_iEEEC1EPFiRS1_S5_Ei;1A.;insert::(1,197)=#(1,177),(1,198)=xsPair<MAUtil::Dictionary<const int, MAUtil::Pair<const int, int> >::Iterator,bool>:,(1,179),(1,199)=&(1,200)=k(1,201)=xsPair<const int,int>:,(0,6);:_ZN6MAUtil10DictionaryIKiNS_4PairIS1_iEEE6insertERKS3_;1A.;;",128,0,57,0
	.stabs	"Map<int,int>:Tt(1,202)=s56!1,020,(1,177);__base_ctor::(1,203)=#(1,202),(0,6),(1,204)=*(1,202),(1,22),(0,6);:_ZN6MAUtil3MapIiiEC2EPFiRKiS3_E;2A.;__comp_ctor::(1,203):_ZN6MAUtil3MapIiiEC1EPFiRKiS3_E;2A.;insert::(1,205)=#(1,202),(1,198),(1,204),(1,11),(1,11),(0,6);:_ZN6MAUtil3MapIiiE6insertERKiS3_;2A.(1,206)=#(1,202),(1,198),(1,204),(1,207)=&(1,208)=k(1,209)=xsPair<int,int>:,(0,6);:_ZN6MAUtil3MapIiiE6insertERKNS_4PairIiiEE;2A.;operator[]::(1,210)=#(1,202),(1,211)=&(0,3),(1,204),(1,11),(0,6);:_ZN6MAUtil3MapIiiEixERKi;2A.;operator=::(1,212)=#(1,202),(1,213)=&(1,202),(1,204),(1,214)=&(1,215)=k(1,202),(0,6);:_ZN6MAUtil3MapIiiEaSERKS1_;2A.;__base_ctor::(1,216)=#(1,202),(0,6),(1,204),(1,214),(0,6);:_ZN6MAUtil3MapIiiEC2ERKS1_;2A.;__comp_ctor::(1,216):_ZN6MAUtil3MapIiiEC1ERKS1_;2A.;__base_dtor::(1,217)=#(1,202),(0,6),(1,204),(0,6);:_ZN6MAUtil3MapIiiED2Ev;2A.;__comp_dtor::(1,217):_ZN6MAUtil3MapIiiED1Ev;2A.;;",128,0,33,0
	.stabn	162,0,0,0
	.stabs	"c:/MoSync/include/MAUI/Image.h",130,0,0,0
	.stabs	"c:/MoSync/include/MAUI/Widget.h",130,0,0,0
	.stabs	"c:/MoSync/include/MAUtil/Geometry.h",130,0,0,0
	.stabs	"Point:Tt(103,1)=s8!1,020,(6,19);__base_ctor::(103,2)=#(103,1),(0,6),(103,3)=*(103,1),(0,6);:_ZN6MAUtil5PointC2Ev;2A.;__comp_ctor::(103,2):_ZN6MAUtil5PointC1Ev;2A.;__base_ctor::(103,4)=#(103,1),(0,6),(103,3),(0,3),(0,3),(0,6);:_ZN6MAUtil5PointC2Eii;2A.;__comp_ctor::(103,4):_ZN6MAUtil5PointC1Eii;2A.;set::(103,4):_ZN6MAUtil5Point3setEii;2A.;operator=::(103,5)=#(103,1),(103,6)=&(103,1),(103,3),(103,7)=&(103,8)=k(103,1),(0,6);:_ZN6MAUtil5PointaSERKS0_;2A.;__base_ctor::(103,9)=#(103,1),(0,6),(103,3),(103,7),(0,6);:_ZN6MAUtil5PointC2ERKS0_;2A.;__comp_ctor::(103,9):_ZN6MAUtil5PointC1ERKS0_;2A.;;",128,0,37,0
	.stabn	162,0,0,0
	.stabs	"c:/MoSync/include/MAUI/WidgetSkin.h",130,0,0,0
	.stabs	"WidgetSkin::eType:t(104,1)=eSELECTED:0,UNSELECTED:1,;",128,0,53,0
	.stabs	"WidgetSkin::CacheKey:Tt(104,2)=s16skin:(104,3)=*(104,4)=xsWidgetSkin:,0,32;w:(0,3),32,32;h:(0,3),64,32;type:(104,1),96,32;__base_ctor::(104,5)=#(104,2),(0,6),(104,6)=*(104,2),(0,6);:_ZN4MAUI10WidgetSkin8CacheKeyC2Ev;2A.;__comp_ctor::(104,5):_ZN4MAUI10WidgetSkin8CacheKeyC1Ev;2A.;__base_ctor::(104,7)=#(104,2),(0,6),(104,6),(104,3),(0,3),(0,3),(104,1),(0,6);:_ZN4MAUI10WidgetSkin8CacheKeyC2EPS0_iiNS0_5eTypeE;2A.;__comp_ctor::(104,7):_ZN4MAUI10WidgetSkin8CacheKeyC1EPS0_iiNS0_5eTypeE;2A.;operator==::(104,8)=#(104,2),(0,4),(104,9)=*(104,10)=k(104,2),(104,11)=&(104,10),(0,6);:_ZNK4MAUI10WidgetSkin8CacheKeyeqERKS1_;2B.;operator<::(104,8):_ZNK4MAUI10WidgetSkin8CacheKeyltERKS1_;2B.;operator=::(104,12)=#(104,2),(104,13)=&(104,2),(104,6),(104,11),(0,6);:_ZN4MAUI10WidgetSkin8CacheKeyaSERKS1_;2A.;__base_ctor::(104,14)=#(104,2),(0,6),(104,6),(104,11),(0,6);:_ZN4MAUI10WidgetSkin8CacheKeyC2ERKS1_;2A.;__comp_ctor::(104,14):_ZN4MAUI10WidgetSkin8CacheKeyC1ERKS1_;2A.;;",128,0,172,0
	.stabs	"WidgetSkin::CacheElement:Tt(104,15)=s8image:(6,10),0,32;lastUsed:(0,3),32,32;operator=::(104,16)=#(104,15),(104,17)=&(104,15),(104,18)=*(104,15),(104,19)=&(104,20)=k(104,15),(0,6);:_ZN4MAUI10WidgetSkin12CacheElementaSERKS1_;2A.;__base_ctor::(104,21)=#(104,15),(0,6),(104,18),(104,19),(0,6);:_ZN4MAUI10WidgetSkin12CacheElementC2ERKS1_;2A.;__comp_ctor::(104,21):_ZN4MAUI10WidgetSkin12CacheElementC1ERKS1_;2A.;__base_ctor::(104,22)=#(104,15),(0,6),(104,18),(0,6);:_ZN4MAUI10WidgetSkin12CacheElementC2Ev;2A.;__comp_ctor::(104,22):_ZN4MAUI10WidgetSkin12CacheElementC1Ev;2A.;;",128,0,195,0
	.stabs	"WidgetSkin:Tt(104,4)=s196maxCacheSize:/0(0,3):_ZN4MAUI10WidgetSkin12maxCacheSizeE;useCache:/0(0,4):_ZN4MAUI10WidgetSkin8useCacheE;sCache:/0(104,23)=xsHashMap<MAUI::WidgetSkin::CacheKey,MAUI::WidgetSkin::CacheElement>::_ZN4MAUI10WidgetSkin6sCacheE;selectedImageWidth:/0(0,3),0,32;selectedImageHeight:/0(0,3),32,32;unselectedImageWidth:/0(0,3),64,32;unselectedImageHeight:/0(0,3),96,32;selectedImage:/0(6,10),128,32;unselectedImage:/0(6,10),160,32;topLeft:/0(6,36),192,128;top:/0(6,36),320,128;topRight:/0(6,36),448,128;left:/0(6,36),576,128;center:/0(6,36),704,128;right:/0(6,36),832,128;bottomLeft:/0(6,36),960,128;bottom:/0(6,36),1088,128;bottomRight:/0(6,36),1216,128;startX:/0(0,3),1344,32;endX:/0(0,3),1376,32;startY:/0(0,3),1408,32;endY:/0(0,3),1440,32;imageWidth:/0(0,3),1472,32;imageHeight:/0(0,3),1504,32;selectedTransparent:/0(0,4),1536,8;unselectedTransparent:/0(0,4),1544,8;__base_ctor::(104,24)=#(104,4),(0,6),(104,3),(0,6);:_ZN4MAUI10WidgetSkinC2Ev;2A.;__comp_ctor::(104,24):_ZN4MAUI10WidgetSkinC1Ev;2A.;__base_ctor::(104,25)=#(104,4),(0,6),(104,3),(6,10),(6,10),(0,3),(0,3),(0,3),(0,3),(0,4),(0,4),(0,6);:_ZN4MAUI10WidgetSkinC2Eiiiiiibb;2A.;__comp_ctor::(104,25):_ZN4MAUI10WidgetSkinC1Eiiiiiibb;2A.;setStartX::(104,26)=#(104,4),(0,6),(104,3),(0,3),(0,6);:_ZN4MAUI10WidgetSkin9setStartXEi;2A.;setEndX::(104,26):_ZN4MAUI10WidgetSkin7setEndXEi;2A.;setStartY::(104,26):_ZN4MAUI10WidgetSkin9setStartYEi;2A.;setEndY::(104,26):_ZN4MAUI10WidgetSkin7setEndYEi;2A.;getStartX::(104,27)=#(104,4),(0,3),(104,28)=*(104,29)=k(104,4),(0,6);:_ZNK4MAUI10WidgetSkin9getStartXEv;2B.;getStartY::(104,27):_ZNK4MAUI10WidgetSkin9getStartYEv;2B.;getEndX::(104,27):_ZNK4MAUI10WidgetSkin7getEndXEv;2B.;getEndY::(104,27):_ZNK4MAUI10WidgetSkin7getEndYEv;2B.;getUnselectedImage::(104,30)=#(104,4),(6,10),(104,28),(0,6);:_ZNK4MAUI10WidgetSkin18getUnselectedImageEv;2B.;getSelectedImage::(104,30):_ZNK4MAUI10WidgetSkin16getSelectedImageEv;2B.;setSelectedImage::(104,31)=#(104,4),(0,6),(104,3),(6,10),(0,6);:_ZN4MAUI10WidgetSkin16setSelectedImageEi;2A.;setUnselectedImage::(104,31):_ZN4MAUI10WidgetSkin18setUnselectedImageEi;2A.;draw::(104,32)=#(104,4),(0,6),(104,3),(0,3),(0,3),(0,3),(0,3),(104,1),(0,6);:_ZN4MAUI10WidgetSkin4drawEiiiiNS0_5eTypeE;2A.;drawDirect::(104,32):_ZN4MAUI10WidgetSkin10drawDirectEiiiiNS0_5eTypeE;2A.;drawToData::(104,33)=#(104,4),(0,6),(104,3),(32,15),(0,3),(0,3),(0,3),(0,3),(104,1),(0,6);:_ZN4MAUI10WidgetSkin10drawToDataEPiiiiiNS0_5eTypeE;2A.;calculateNumTiles::(104,34)=#(104,4),(0,3),(104,3),(0,3),(0,3),(0,6);:_ZN4MAUI10WidgetSkin17calculateNumTilesEii;2A.;drawRegion::(104,35)=#(104,4),(0,6),(104,3),(6,10),(32,15),(0,3),(104,36)=*(104,37)=k(6,36),(104,38)=*(104,39)=k(6,27),(0,6);:_ZN4MAUI10WidgetSkin10drawRegionEiPiiPK6MARectPK9MAPoint2d;2A.;getImageHeight::(104,27):_ZNK4MAUI10WidgetSkin14getImageHeightEv;2B.;getImageWidth::(104,27):_ZNK4MAUI10WidgetSkin13getImageWidthEv;2B.;isSelectedTransparent::(104,40)=#(104,4),(0,4),(104,28),(0,6);:_ZNK4MAUI10WidgetSkin21isSelectedTransparentEv;2B.;isUnselectedTransparent::(104,40):_ZNK4MAUI10WidgetSkin23isUnselectedTransparentEv;2B.;setMaxCacheSize::(10,3):_ZN4MAUI10WidgetSkin15setMaxCacheSizeEi;2A?;setCacheEnabled::(104,41)=f(0,6):_ZN4MAUI10WidgetSkin15setCacheEnabledEb;2A?;flushCache::(104,42)=f(0,6):_ZN4MAUI10WidgetSkin10flushCacheEv;2A?;flushCacheUntilNewImageFits::(10,3):_ZN4MAUI10WidgetSkin27flushCacheUntilNewImageFitsEi;2A?;addToCache::(104,43)=f(0,6):_ZN4MAUI10WidgetSkin10addToCacheERKNS0_8CacheKeyERKNS0_12CacheElementE;2A?;getFromCache::(104,44)=f(6,10):_ZN4MAUI10WidgetSkin12getFromCacheERKNS0_8CacheKeyE;2A?;rebuildRects::(104,24):_ZN4MAUI10WidgetSkin12rebuildRectsEv;0A.;operator=::(104,45)=#(104,4),(104,46)=&(104,4),(104,3),(104,47)=&(104,29),(0,6);:_ZN4MAUI10WidgetSkinaSERKS0_;2A.;__base_ctor::(104,48)=#(104,4),(0,6),(104,3),(104,47),(0,6);:_ZN4MAUI10WidgetSkinC2ERKS0_;2A.;__comp_ctor::(104,48):_ZN4MAUI10WidgetSkinC1ERKS0_;2A.;;",128,0,47,0
	.stabn	162,0,0,0
	.stabs	"c:/MoSync/include/MAUI/InputManager.h",130,0,0,0
	.stabn	162,0,0,0
	.stabs	"Vector<MAUI::Widget*>:Tt(102,1)=s12mSize:/1(0,3),0,32;mCapacity:/1(0,3),32,32;mData:/1(102,2)=*(102,3)=*(102,4)=xsWidget:,64,32;__base_ctor::(102,5)=#(102,1),(0,6),(102,6)=*(102,1),(0,3),(0,6);:_ZN6MAUtil6VectorIPN4MAUI6WidgetEEC2Ei;2A.;__comp_ctor::(102,5):_ZN6MAUtil6VectorIPN4MAUI6WidgetEEC1Ei;2A.;__base_ctor::(102,7)=#(102,1),(0,6),(102,6),(102,8)=*(102,9)=k(102,3),(0,3),(0,6);:_ZN6MAUtil6VectorIPN4MAUI6WidgetEEC2EPKS3_i;2A.;__comp_ctor::(102,7):_ZN6MAUtil6VectorIPN4MAUI6WidgetEEC1EPKS3_i;2A.;__base_ctor::(102,10)=#(102,1),(0,6),(102,6),(102,11)=&(102,12)=k(102,1),(0,6);:_ZN6MAUtil6VectorIPN4MAUI6WidgetEEC2ERKS4_;2A.;__comp_ctor::(102,10):_ZN6MAUtil6VectorIPN4MAUI6WidgetEEC1ERKS4_;2A.;__base_dtor::(102,13)=#(102,1),(0,6),(102,6),(0,6);:_ZN6MAUtil6VectorIPN4MAUI6WidgetEED2Ev;2A.;__comp_dtor::(102,13):_ZN6MAUtil6VectorIPN4MAUI6WidgetEED1Ev;2A.;operator=::(102,14)=#(102,1),(102,15)=&(102,1),(102,6),(102,11),(0,6);:_ZN6MAUtil6VectorIPN4MAUI6WidgetEEaSERKS4_;2A.;add::(102,16)=#(102,1),(0,6),(102,6),(102,17)=&(102,9),(0,6);:_ZN6MAUtil6VectorIPN4MAUI6WidgetEE3addERKS3_;2A.(102,7):_ZN6MAUtil6VectorIPN4MAUI6WidgetEE3addEPKS3_i;2A.;remove::(102,18)=#(102,1),(0,6),(102,6),(102,2),(0,6);:_ZN6MAUtil6VectorIPN4MAUI6WidgetEE6removeEPS3_;2A.(102,19)=#(102,1),(0,6),(102,6),(0,3),(0,6);:_ZN6MAUtil6VectorIPN4MAUI6WidgetEE6removeEi;2A.(102,20)=#(102,1),(0,6),(102,6),(0,3),(0,3),(0,6);:_ZN6MAUtil6VectorIPN4MAUI6WidgetEE6removeEii;2A.;insert::(102,21)=#(102,1),(0,6),(102,6),(0,3),(102,3),(0,6);:_ZN6MAUtil6VectorIPN4MAUI6WidgetEE6insertEiS3_;2A.;size::(102,22)=#(102,1),(0,3),(102,23)=*(102,12),(0,6);:_ZNK6MAUtil6VectorIPN4MAUI6WidgetEE4sizeEv;2B.;resize::(102,19):_ZN6MAUtil6VectorIPN4MAUI6WidgetEE6resizeEi;2A.;reserve::(102,19):_ZN6MAUtil6VectorIPN4MAUI6WidgetEE7reserveEi;2A.;clear::(102,13):_ZN6MAUtil6VectorIPN4MAUI6WidgetEE5clearEv;2A.;empty::(102,24)=#(102,1),(0,4),(102,23),(0,6);:_ZNK6MAUtil6VectorIPN4MAUI6WidgetEE5emptyEv;2B.;capacity::(102,22):_ZNK6MAUtil6VectorIPN4MAUI6WidgetEE8capacityEv;2B.;begin::(102,25)=#(102,1),(102,2),(102,6),(0,6);:_ZN6MAUtil6VectorIPN4MAUI6WidgetEE5beginEv;2A.;end::(102,25):_ZN6MAUtil6VectorIPN4MAUI6WidgetEE3endEv;2A.;begin::(102,26)=#(102,1),(102,8),(102,23),(0,6);:_ZNK6MAUtil6VectorIPN4MAUI6WidgetEE5beginEv;2B.;end::(102,26):_ZNK6MAUtil6VectorIPN4MAUI6WidgetEE3endEv;2B.;operator[]::(102,27)=#(102,1),(102,28)=&(102,3),(102,6),(0,3),(0,6);:_ZN6MAUtil6VectorIPN4MAUI6WidgetEEixEi;2A.(102,29)=#(102,1),(102,17),(102,23),(0,3),(0,6);:_ZNK6MAUtil6VectorIPN4MAUI6WidgetEEixEi;2B.;pointer::(102,26):_ZNK6MAUtil6VectorIPN4MAUI6WidgetEE7pointerEv;2B.(102,25):_ZN6MAUtil6VectorIPN4MAUI6WidgetEE7pointerEv;2A.;;",128,0,95,0
	.stabs	"Vector<MAUI::WidgetListener*>:Tt(102,30)=s12mSize:/1(0,3),0,32;mCapacity:/1(0,3),32,32;mData:/1(102,31)=*(102,32)=*(102,33)=xsWidgetListener:,64,32;__base_ctor::(102,34)=#(102,30),(0,6),(102,35)=*(102,30),(0,3),(0,6);:_ZN6MAUtil6VectorIPN4MAUI14WidgetListenerEEC2Ei;2A.;__comp_ctor::(102,34):_ZN6MAUtil6VectorIPN4MAUI14WidgetListenerEEC1Ei;2A.;__base_ctor::(102,36)=#(102,30),(0,6),(102,35),(102,37)=*(102,38)=k(102,32),(0,3),(0,6);:_ZN6MAUtil6VectorIPN4MAUI14WidgetListenerEEC2EPKS3_i;2A.;__comp_ctor::(102,36):_ZN6MAUtil6VectorIPN4MAUI14WidgetListenerEEC1EPKS3_i;2A.;__base_ctor::(102,39)=#(102,30),(0,6),(102,35),(102,40)=&(102,41)=k(102,30),(0,6);:_ZN6MAUtil6VectorIPN4MAUI14WidgetListenerEEC2ERKS4_;2A.;__comp_ctor::(102,39):_ZN6MAUtil6VectorIPN4MAUI14WidgetListenerEEC1ERKS4_;2A.;__base_dtor::(102,42)=#(102,30),(0,6),(102,35),(0,6);:_ZN6MAUtil6VectorIPN4MAUI14WidgetListenerEED2Ev;2A.;__comp_dtor::(102,42):_ZN6MAUtil6VectorIPN4MAUI14WidgetListenerEED1Ev;2A.;operator=::(102,43)=#(102,30),(102,44)=&(102,30),(102,35),(102,40),(0,6);:_ZN6MAUtil6VectorIPN4MAUI14WidgetListenerEEaSERKS4_;2A.;add::(102,45)=#(102,30),(0,6),(102,35),(102,46)=&(102,38),(0,6);:_ZN6MAUtil6VectorIPN4MAUI14WidgetListenerEE3addERKS3_;2A.(102,36):_ZN6MAUtil6VectorIPN4MAUI14WidgetListenerEE3addEPKS3_i;2A.;remove::(102,47)=#(102,30),(0,6),(102,35),(102,31),(0,6);:_ZN6MAUtil6VectorIPN4MAUI14WidgetListenerEE6removeEPS3_;2A.(102,48)=#(102,30),(0,6),(102,35),(0,3),(0,6);:_ZN6MAUtil6VectorIPN4MAUI14WidgetListenerEE6removeEi;2A.(102,49)=#(102,30),(0,6),(102,35),(0,3),(0,3),(0,6);:_ZN6MAUtil6VectorIPN4MAUI14WidgetListenerEE6removeEii;2A.;insert::(102,50)=#(102,30),(0,6),(102,35),(0,3),(102,32),(0,6);:_ZN6MAUtil6VectorIPN4MAUI14WidgetListenerEE6insertEiS3_;2A.;size::(102,51)=#(102,30),(0,3),(102,52)=*(102,41),(0,6);:_ZNK6MAUtil6VectorIPN4MAUI14WidgetListenerEE4sizeEv;2B.;resize::(102,48):_ZN6MAUtil6VectorIPN4MAUI14WidgetListenerEE6resizeEi;2A.;reserve::(102,48):_ZN6MAUtil6VectorIPN4MAUI14WidgetListenerEE7reserveEi;2A.;clear::(102,42):_ZN6MAUtil6VectorIPN4MAUI14WidgetListenerEE5clearEv;2A.;empty::(102,53)=#(102,30),(0,4),(102,52),(0,6);:_ZNK6MAUtil6VectorIPN4MAUI14WidgetListenerEE5emptyEv;2B.;capacity::(102,51):_ZNK6MAUtil6VectorIPN4MAUI14WidgetListenerEE8capacityEv;2B.;begin::(102,54)=#(102,30),(102,31),(102,35),(0,6);:_ZN6MAUtil6VectorIPN4MAUI14WidgetListenerEE5beginEv;2A.;end::(102,54):_ZN6MAUtil6VectorIPN4MAUI14WidgetListenerEE3endEv;2A.;begin::(102,55)=#(102,30),(102,37),(102,52),(0,6);:_ZNK6MAUtil6VectorIPN4MAUI14WidgetListenerEE5beginEv;2B.;end::(102,55):_ZNK6MAUtil6VectorIPN4MAUI14WidgetListenerEE3endEv;2B.;operator[]::(102,56)=#(102,30),(102,57)=&(102,32),(102,35),(0,3),(0,6);:_ZN6MAUtil6VectorIPN4MAUI14WidgetListenerEEixEi;2A.(102,58)=#(102,30),(102,46),(102,52),(0,3),(0,6);:_ZNK6MAUtil6VectorIPN4MAUI14WidgetListenerEEixEi;2B.;pointer::(102,55):_ZNK6MAUtil6VectorIPN4MAUI14WidgetListenerEE7pointerEv;2B.(102,54):_ZN6MAUtil6VectorIPN4MAUI14WidgetListenerEE7pointerEv;2A.;;",128,0,95,0
	.stabn	162,0,0,0
	.stabn	162,0,0,0
	.stabs	"_ZN8AlertTabC2EiN6MAUtil11BasicStringIcEE17eScreenResolution:F(0,6)",36,0,15,__ZN8AlertTabC2EiN6MAUtil11BasicStringIcEE17eScreenResolution
	.stabs	"this:p(0,25)=k(0,26)=*(0,27)=xsAlertTab:",160,0,15,-20
	.stabs	"language:p(0,3)",160,0,15,-24
	.stabs	"loginToken:a(13,1)",64,0,15,4
	.stabs	"screenResolution:p(94,4)",160,0,15,-28
	.global	__ZN8AlertTabC2EiN6MAUtil11BasicStringIcEE17eScreenResolution

.func __ZN8AlertTabC2EiN6MAUtil11BasicStringIcEE17eScreenResolution, 4, void
	.stabs	"C:\\Users\\gdr\\Documents\\source\\mobile-app\\MobileApp\\AlertTab.cpp",132,0,0,Ltext9
Ltext9:
	.line 15
	push rt,d1
	sub  sp,#0xc
	ld   fr,sp
	add  fr,#0x1c
	ld   [fr,-20],i0
	ld   [fr,-24],i1
	ld   d0,i2
	ld   [fr,-28],i3
	.dlab LBB36
	.line 16
	ld   i0,[fr,-20]
	call &__ZN8NativeUI6ScreenC2Ev
	ld   r14,[fr,-20]
	add  r14,#0x48
	ld   i0,r14
	call &__ZN8NativeUI14ButtonListenerC2Ev
	ld   r14,[fr,-20]
	add  r14,#0x4c
	ld   i0,r14
	call &__ZN8NativeUI16ListViewListenerC2Ev
	ld   r14,[fr,-20]
	add  r14,#0x50
	ld   i0,r14
	call &__ZN8NativeUI15EditBoxListenerC2Ev
	ld   r14,[fr,-20]
	add  r14,#0x54
	ld   i0,r14
	call &__ZN11ConnectionsC2Ev
	ld   r14,[fr,-20]
	ld   r0,#__ZTV8AlertTab+8
	ld   [r14],r0
	ld   r14,[fr,-20]
	add  r14,#0x48
	ld   r0,#__ZTV8AlertTab+236
	ld   [r14],r0
	ld   r14,[fr,-20]
	add  r14,#0x4c
	ld   r0,#__ZTV8AlertTab+256
	ld   [r14],r0
	ld   r14,[fr,-20]
	add  r14,#0x50
	ld   r0,#__ZTV8AlertTab+288
	ld   [r14],r0
	ld   r14,[fr,-20]
	add  r14,#0x54
	ld   r0,#__ZTV8AlertTab+312
	ld   [r14],r0
	ld   r14,[fr,-20]
	add  r14,#0x7c
	ld   r0,#__ZTV8AlertTab+360
	ld   [r14],r0
	ld   r14,[fr,-20]
	add  r14,#0x98
	ld   i0,r14
	ld   i1,d0
	call &__ZN6MAUtil11BasicStringIcEC1ERKS1_
	ld   r14,[fr,-20]
	ld   r0,[fr,-24]
	ld   [r14,156],r0
	ld   r14,[fr,-20]
	add  r14,#0xd0
	ld   i0,r14
	ld   i1,#__ZN6MAUtil7CompareIKiEEiRKT_S4_
	call &__ZN6MAUtil3MapIiPN8NativeUI12ListViewItemEEC1EPFiRKiS6_E
	ld   r14,[fr,-20]
	add  r14,#0x108
	ld   i0,r14
	ld   i1,#__ZN6MAUtil7CompareIKiEEiRKT_S4_
	call &__ZN6MAUtil3MapIiPN8NativeUI5LabelEEC1EPFiRKiS6_E
	ld   r14,[fr,-20]
	add  r14,#0x140
	ld   i0,r14
	ld   i1,#__ZN6MAUtil7CompareIKiEEiRKT_S4_
	call &__ZN6MAUtil3MapIixEC1EPFiRKiS3_E
	ld   r14,[fr,-20]
	add  r14,#0x1c0
	ld   i0,r14
	ld   i1,#__ZN6MAUtil7CompareIKiEEiRKT_S4_
	call &__ZN6MAUtil3MapIiPN8NativeUI5LabelEEC1EPFiRKiS6_E
	ld   r14,[fr,-20]
	add  r14,#0x1f8
	ld   i0,r14
	ld   i1,#__ZN6MAUtil7CompareIKiEEiRKT_S4_
	call &__ZN6MAUtil3MapIiPN8NativeUI12ListViewItemEEC1EPFiRKiS6_E
	ld   r14,[fr,-20]
	add  r14,#0x238
	ld   i0,r14
	ld   i1,#__ZN6MAUtil7CompareIKiEEiRKT_S4_
	call &__ZN6MAUtil3MapIixEC1EPFiRKiS3_E
	ld   r14,[fr,-20]
	add  r14,#0x270
	ld   i0,r14
	ld   i1,#__ZN6MAUtil7CompareIKiEEiRKT_S4_
	call &__ZN6MAUtil3MapIiPN8NativeUI12ListViewItemEEC1EPFiRKiS6_E
	ld   r14,[fr,-20]
	add  r14,#0x2a8
	ld   i0,r14
	ld   i1,#__ZN6MAUtil7CompareIKiEEiRKT_S4_
	call &__ZN6MAUtil3MapIiNS_11BasicStringIcEEEC1EPFiRKiS5_E
	ld   r14,[fr,-20]
	add  r14,#0x2e8
	ld   i0,r14
	ld   i1,#__ZN6MAUtil7CompareIKiEEiRKT_S4_
	call &__ZN6MAUtil3MapIixEC1EPFiRKiS3_E
	ld   r14,[fr,-20]
	add  r14,#0x320
	ld   i0,r14
	ld   i1,#__ZN6MAUtil7CompareIKiEEiRKT_S4_
	call &__ZN6MAUtil3MapIiPN8NativeUI12ListViewItemEEC1EPFiRKiS6_E
	ld   r14,[fr,-20]
	add  r14,#0x358
	ld   i0,r14
	ld   i1,#__ZN6MAUtil7CompareIKiEEiRKT_S4_
	call &__ZN6MAUtil3MapIiPN8NativeUI5LabelEEC1EPFiRKiS6_E
	ld   r14,[fr,-20]
	add  r14,#0x398
	ld   i0,r14
	ld   i1,#__ZN6MAUtil7CompareIKiEEiRKT_S4_
	call &__ZN6MAUtil3MapIixEC1EPFiRKiS3_E
	ld   r14,[fr,-20]
	add  r14,#0x3d0
	ld   i0,r14
	ld   i1,#__ZN6MAUtil7CompareIKiEEiRKT_S4_
	call &__ZN6MAUtil3MapIixEC1EPFiRKiS3_E
	ld   r14,[fr,-20]
	add  r14,#0x408
	ld   i0,r14
	ld   i1,#__ZN6MAUtil7CompareIKiEEiRKT_S4_
	call &__ZN6MAUtil3MapIixEC1EPFiRKiS3_E
	ld   r14,[fr,-20]
	add  r14,#0x440
	ld   i0,r14
	ld   i1,#__ZN6MAUtil7CompareIKiEEiRKT_S4_
	call &__ZN6MAUtil3MapIixEC1EPFiRKiS3_E
	ld   r14,[fr,-20]
	add  r14,#0x478
	ld   i0,r14
	ld   i1,#__ZN6MAUtil7CompareIKiEEiRKT_S4_
	call &__ZN6MAUtil3MapIiPN8NativeUI12ListViewItemEEC1EPFiRKiS6_E
	ld   r14,[fr,-20]
	add  r14,#0x4b0
	ld   i0,r14
	ld   i1,#__ZN6MAUtil7CompareIKiEEiRKT_S4_
	call &__ZN6MAUtil3MapIiPN8NativeUI5LabelEEC1EPFiRKiS6_E
	ld   r14,[fr,-20]
	add  r14,#0x4f4
	ld   i0,r14
	ld   i1,#__ZN6MAUtil7CompareIKiEEiRKT_S4_
	call &__ZN6MAUtil3MapIiPN8NativeUI12ListViewItemEEC1EPFiRKiS6_E
	ld   r14,[fr,-20]
	add  r14,#0x550
	ld   i0,r14
	ld   i1,#__ZN6MAUtil7CompareIKiEEiRKT_S4_
	call &__ZN6MAUtil3MapIixEC1EPFiRKiS3_E
	ld   r14,[fr,-20]
	add  r14,#0x588
	ld   i0,r14
	ld   i1,#__ZN6MAUtil7CompareIKiEEiRKT_S4_
	call &__ZN6MAUtil3MapIiPN8NativeUI12ListViewItemEEC1EPFiRKiS6_E
	ld   r14,[fr,-20]
	add  r14,#0x5c0
	ld   i0,r14
	ld   i1,#__ZN6MAUtil7CompareIKiEEiRKT_S4_
	call &__ZN6MAUtil3MapIiPN8NativeUI5LabelEEC1EPFiRKiS6_E
	ld   r14,[fr,-20]
	add  r14,#0x604
	ld   i0,r14
	ld   i1,#__ZN6MAUtil7CompareIKiEEiRKT_S4_
	call &__ZN6MAUtil3MapIixEC1EPFiRKiS3_E
	ld   r14,[fr,-20]
	add  r14,#0x63c
	ld   i0,r14
	ld   i1,#__ZN6MAUtil7CompareIKiEEiRKT_S4_
	call &__ZN6MAUtil3MapIiPN8NativeUI12ListViewItemEEC1EPFiRKiS6_E
	ld   r14,[fr,-20]
	add  r14,#0x674
	ld   i0,r14
	ld   i1,#__ZN6MAUtil7CompareIKiEEiRKT_S4_
	call &__ZN6MAUtil3MapIiPN8NativeUI5LabelEEC1EPFiRKiS6_E
	ld   r14,[fr,-20]
	add  r14,#0x6b4
	ld   i0,r14
	ld   i1,#__ZN6MAUtil7CompareIKiEEiRKT_S4_
	call &__ZN6MAUtil3MapIixEC1EPFiRKiS3_E
	ld   r14,[fr,-20]
	add  r14,#0x6ec
	ld   i0,r14
	ld   i1,#__ZN6MAUtil7CompareIKiEEiRKT_S4_
	call &__ZN6MAUtil3MapIiPN8NativeUI12ListViewItemEEC1EPFiRKiS6_E
	ld   r14,[fr,-20]
	add  r14,#0x724
	ld   i0,r14
	ld   i1,#__ZN6MAUtil7CompareIKiEEiRKT_S4_
	call &__ZN6MAUtil3MapIiPN8NativeUI5LabelEEC1EPFiRKiS6_E
	ld   r14,[fr,-20]
	add  r14,#0x764
	ld   i0,r14
	ld   i1,#__ZN6MAUtil7CompareIKiEEiRKT_S4_
	call &__ZN6MAUtil3MapIixEC1EPFiRKiS3_E
	ld   r14,[fr,-20]
	add  r14,#0x79c
	ld   i0,r14
	ld   i1,#__ZN6MAUtil7CompareIKiEEiRKT_S4_
	call &__ZN6MAUtil3MapIiPN8NativeUI12ListViewItemEEC1EPFiRKiS6_E
	ld   r14,[fr,-20]
	add  r14,#0x7d4
	ld   i0,r14
	ld   i1,#__ZN6MAUtil7CompareIKiEEiRKT_S4_
	call &__ZN6MAUtil3MapIiPN8NativeUI5LabelEEC1EPFiRKiS6_E
	ld   r14,[fr,-20]
	add  r14,#0x814
	ld   i0,r14
	ld   i1,#__ZN6MAUtil7CompareIKiEEiRKT_S4_
	call &__ZN6MAUtil3MapIixEC1EPFiRKiS3_E
	ld   r14,[fr,-20]
	add  r14,#0x84c
	ld   i0,r14
	ld   i1,#__ZN6MAUtil7CompareIKiEEiRKT_S4_
	call &__ZN6MAUtil3MapIiPN8NativeUI12ListViewItemEEC1EPFiRKiS6_E
	ld   r14,[fr,-20]
	add  r14,#0x884
	ld   i0,r14
	ld   i1,#__ZN6MAUtil7CompareIKiEEiRKT_S4_
	call &__ZN6MAUtil3MapIiPN8NativeUI5LabelEEC1EPFiRKiS6_E
	ld   r14,[fr,-20]
	add  r14,#0x8d8
	ld   i0,r14
	ld   i1,#__ZN6MAUtil7CompareIKiEEiRKT_S4_
	call &__ZN6MAUtil3MapIiPN8NativeUI12ListViewItemEEC1EPFiRKiS6_E
	ld   r14,[fr,-20]
	add  r14,#0x910
	ld   i0,r14
	ld   i1,#__ZN6MAUtil7CompareIKiEEiRKT_S4_
	call &__ZN6MAUtil3MapIiPN8NativeUI5LabelEEC1EPFiRKiS6_E
	ld   r14,[fr,-20]
	add  r14,#0x958
	ld   i0,r14
	ld   i1,#__ZN6MAUtil7CompareIKiEEiRKT_S4_
	call &__ZN6MAUtil3MapIixEC1EPFiRKiS3_E
	ld   r14,[fr,-20]
	add  r14,#0x990
	ld   i0,r14
	ld   i1,#__ZN6MAUtil7CompareIKiEEiRKT_S4_
	call &__ZN6MAUtil3MapIiiEC1EPFiRKiS3_E
	ld   r14,[fr,-20]
	add  r14,#0x9c8
	ld   i0,r14
	ld   i1,#__ZN6MAUtil7CompareIKiEEiRKT_S4_
	call &__ZN6MAUtil3MapIixEC1EPFiRKiS3_E
	.line 18
	ld   d1,[fr,-20]
	ld   i0,#0x40
	call &__Znwm
	ld   d0,r14
	ld   i0,d0
	call &__ZN12ActivityPageC1Ev
	ld   [d1,148],d0
	.line 20
	ld   r14,[fr,-28]
	add  r14,#0x6
	ld   i0,[fr,-20]
	ld   i1,r14
	call &__ZN8NativeUI6Screen7setIconEi
	.line 22
	ld   r14,[fr,-20]
	ld   r0,#0xffffffff
	ld   [r14,164],r0
	.line 23
	ld   r14,[fr,-20]
	ld   r0,#0xffffffff
	ld   [r14,168],r0
	.line 24
	ld   r14,[fr,-20]
	ld   r0,#0xffffffff
	ld   [r14,172],r0
	.line 25
	ld   r14,[fr,-20]
	ld   r0,#0xffffffff
	ld   [r14,176],r0
	.line 26
	ld   r14,[fr,-20]
	ld   r0,#0xffffffff
	ld   [r14,180],r0
	.line 27
	ld   r14,[fr,-20]
	ld   r0,#0xffffffff
	ld   [r14,184],r0
	.line 28
	ld   r14,[fr,-20]
	ld   r0,#0xffffffff
	ld   [r14,188],r0
	.line 29
	ld   r14,[fr,-20]
	ld   r0,#0xffffffff
	ld   [r14,192],r0
	.line 30
	ld   r14,[fr,-20]
	ld   r0,#0xffffffff
	ld   [r14,396],r0
	.line 31
	ld   i0,[fr,-20]
	call &__ZN8AlertTab8createUIEv
	.dlab LBE36
	.line 32
	add  sp,#0xc
	pop  rt,d1
	ret
Lscope18:
	.stabs	"_ZN8NativeUI15EditBoxListenerC2Ev:f(0,6)",36,0,16,__ZN8NativeUI15EditBoxListenerC2Ev
	.stabs	"this:p(40,14)",160,0,48,-12

.func __ZN8NativeUI15EditBoxListenerC2Ev, 1, void
	.line 16
	push rt,fr
	sub  sp,#0x4
	ld   fr,sp
	add  fr,#0xc
	ld   [fr,-12],i0
	.dlab LBB37
	.line 16
	ld   r14,[fr,-12]
	ld   r0,#__ZTVN8NativeUI15EditBoxListenerE+8
	ld   [r14],r0
	.dlab LBE37
	add  sp,#0x4
	pop  rt,fr
	ret
Lscope19:
	.stabs	"_ZN8NativeUI16ListViewListenerC2Ev:f(0,6)",36,0,16,__ZN8NativeUI16ListViewListenerC2Ev
	.stabs	"this:p(50,12)",160,0,50,-12

.func __ZN8NativeUI16ListViewListenerC2Ev, 1, void
	.line 16
	push rt,fr
	sub  sp,#0x4
	ld   fr,sp
	add  fr,#0xc
	ld   [fr,-12],i0
	.dlab LBB38
	.line 16
	ld   r14,[fr,-12]
	ld   r0,#__ZTVN8NativeUI16ListViewListenerE+8
	ld   [r14],r0
	.dlab LBE38
	add  sp,#0x4
	pop  rt,fr
	ret
Lscope20:
	.stabs	"_ZN8NativeUI14ButtonListenerC2Ev:f(0,6)",36,0,16,__ZN8NativeUI14ButtonListenerC2Ev
	.stabs	"this:p(28,9)",160,0,48,-12

.func __ZN8NativeUI14ButtonListenerC2Ev, 1, void
	.line 16
	push rt,fr
	sub  sp,#0x4
	ld   fr,sp
	add  fr,#0xc
	ld   [fr,-12],i0
	.dlab LBB39
	.line 16
	ld   r14,[fr,-12]
	ld   r0,#__ZTVN8NativeUI14ButtonListenerE+8
	ld   [r14],r0
	.dlab LBE39
	add  sp,#0x4
	pop  rt,fr
	ret
Lscope21:
	.stabs	"_ZN8AlertTabC1EiN6MAUtil11BasicStringIcEE17eScreenResolution:F(0,6)",36,0,15,__ZN8AlertTabC1EiN6MAUtil11BasicStringIcEE17eScreenResolution
	.stabs	"this:p(0,25)",160,0,15,-20
	.stabs	"language:p(0,3)",160,0,15,-24
	.stabs	"loginToken:a(13,1)",64,0,15,4
	.stabs	"screenResolution:p(94,4)",160,0,15,-28
	.global	__ZN8AlertTabC1EiN6MAUtil11BasicStringIcEE17eScreenResolution

.func __ZN8AlertTabC1EiN6MAUtil11BasicStringIcEE17eScreenResolution, 4, void
	.line 15
	push rt,d1
	sub  sp,#0xc
	ld   fr,sp
	add  fr,#0x1c
	ld   [fr,-20],i0
	ld   [fr,-24],i1
	ld   d0,i2
	ld   [fr,-28],i3
	.dlab LBB40
	.line 16
	ld   i0,[fr,-20]
	call &__ZN8NativeUI6ScreenC2Ev
	ld   r14,[fr,-20]
	add  r14,#0x48
	ld   i0,r14
	call &__ZN8NativeUI14ButtonListenerC2Ev
	ld   r14,[fr,-20]
	add  r14,#0x4c
	ld   i0,r14
	call &__ZN8NativeUI16ListViewListenerC2Ev
	ld   r14,[fr,-20]
	add  r14,#0x50
	ld   i0,r14
	call &__ZN8NativeUI15EditBoxListenerC2Ev
	ld   r14,[fr,-20]
	add  r14,#0x54
	ld   i0,r14
	call &__ZN11ConnectionsC2Ev
	ld   r14,[fr,-20]
	ld   r0,#__ZTV8AlertTab+8
	ld   [r14],r0
	ld   r14,[fr,-20]
	add  r14,#0x48
	ld   r0,#__ZTV8AlertTab+236
	ld   [r14],r0
	ld   r14,[fr,-20]
	add  r14,#0x4c
	ld   r0,#__ZTV8AlertTab+256
	ld   [r14],r0
	ld   r14,[fr,-20]
	add  r14,#0x50
	ld   r0,#__ZTV8AlertTab+288
	ld   [r14],r0
	ld   r14,[fr,-20]
	add  r14,#0x54
	ld   r0,#__ZTV8AlertTab+312
	ld   [r14],r0
	ld   r14,[fr,-20]
	add  r14,#0x7c
	ld   r0,#__ZTV8AlertTab+360
	ld   [r14],r0
	ld   r14,[fr,-20]
	add  r14,#0x98
	ld   i0,r14
	ld   i1,d0
	call &__ZN6MAUtil11BasicStringIcEC1ERKS1_
	ld   r14,[fr,-20]
	ld   r0,[fr,-24]
	ld   [r14,156],r0
	ld   r14,[fr,-20]
	add  r14,#0xd0
	ld   i0,r14
	ld   i1,#__ZN6MAUtil7CompareIKiEEiRKT_S4_
	call &__ZN6MAUtil3MapIiPN8NativeUI12ListViewItemEEC1EPFiRKiS6_E
	ld   r14,[fr,-20]
	add  r14,#0x108
	ld   i0,r14
	ld   i1,#__ZN6MAUtil7CompareIKiEEiRKT_S4_
	call &__ZN6MAUtil3MapIiPN8NativeUI5LabelEEC1EPFiRKiS6_E
	ld   r14,[fr,-20]
	add  r14,#0x140
	ld   i0,r14
	ld   i1,#__ZN6MAUtil7CompareIKiEEiRKT_S4_
	call &__ZN6MAUtil3MapIixEC1EPFiRKiS3_E
	ld   r14,[fr,-20]
	add  r14,#0x1c0
	ld   i0,r14
	ld   i1,#__ZN6MAUtil7CompareIKiEEiRKT_S4_
	call &__ZN6MAUtil3MapIiPN8NativeUI5LabelEEC1EPFiRKiS6_E
	ld   r14,[fr,-20]
	add  r14,#0x1f8
	ld   i0,r14
	ld   i1,#__ZN6MAUtil7CompareIKiEEiRKT_S4_
	call &__ZN6MAUtil3MapIiPN8NativeUI12ListViewItemEEC1EPFiRKiS6_E
	ld   r14,[fr,-20]
	add  r14,#0x238
	ld   i0,r14
	ld   i1,#__ZN6MAUtil7CompareIKiEEiRKT_S4_
	call &__ZN6MAUtil3MapIixEC1EPFiRKiS3_E
	ld   r14,[fr,-20]
	add  r14,#0x270
	ld   i0,r14
	ld   i1,#__ZN6MAUtil7CompareIKiEEiRKT_S4_
	call &__ZN6MAUtil3MapIiPN8NativeUI12ListViewItemEEC1EPFiRKiS6_E
	ld   r14,[fr,-20]
	add  r14,#0x2a8
	ld   i0,r14
	ld   i1,#__ZN6MAUtil7CompareIKiEEiRKT_S4_
	call &__ZN6MAUtil3MapIiNS_11BasicStringIcEEEC1EPFiRKiS5_E
	ld   r14,[fr,-20]
	add  r14,#0x2e8
	ld   i0,r14
	ld   i1,#__ZN6MAUtil7CompareIKiEEiRKT_S4_
	call &__ZN6MAUtil3MapIixEC1EPFiRKiS3_E
	ld   r14,[fr,-20]
	add  r14,#0x320
	ld   i0,r14
	ld   i1,#__ZN6MAUtil7CompareIKiEEiRKT_S4_
	call &__ZN6MAUtil3MapIiPN8NativeUI12ListViewItemEEC1EPFiRKiS6_E
	ld   r14,[fr,-20]
	add  r14,#0x358
	ld   i0,r14
	ld   i1,#__ZN6MAUtil7CompareIKiEEiRKT_S4_
	call &__ZN6MAUtil3MapIiPN8NativeUI5LabelEEC1EPFiRKiS6_E
	ld   r14,[fr,-20]
	add  r14,#0x398
	ld   i0,r14
	ld   i1,#__ZN6MAUtil7CompareIKiEEiRKT_S4_
	call &__ZN6MAUtil3MapIixEC1EPFiRKiS3_E
	ld   r14,[fr,-20]
	add  r14,#0x3d0
	ld   i0,r14
	ld   i1,#__ZN6MAUtil7CompareIKiEEiRKT_S4_
	call &__ZN6MAUtil3MapIixEC1EPFiRKiS3_E
	ld   r14,[fr,-20]
	add  r14,#0x408
	ld   i0,r14
	ld   i1,#__ZN6MAUtil7CompareIKiEEiRKT_S4_
	call &__ZN6MAUtil3MapIixEC1EPFiRKiS3_E
	ld   r14,[fr,-20]
	add  r14,#0x440
	ld   i0,r14
	ld   i1,#__ZN6MAUtil7CompareIKiEEiRKT_S4_
	call &__ZN6MAUtil3MapIixEC1EPFiRKiS3_E
	ld   r14,[fr,-20]
	add  r14,#0x478
	ld   i0,r14
	ld   i1,#__ZN6MAUtil7CompareIKiEEiRKT_S4_
	call &__ZN6MAUtil3MapIiPN8NativeUI12ListViewItemEEC1EPFiRKiS6_E
	ld   r14,[fr,-20]
	add  r14,#0x4b0
	ld   i0,r14
	ld   i1,#__ZN6MAUtil7CompareIKiEEiRKT_S4_
	call &__ZN6MAUtil3MapIiPN8NativeUI5LabelEEC1EPFiRKiS6_E
	ld   r14,[fr,-20]
	add  r14,#0x4f4
	ld   i0,r14
	ld   i1,#__ZN6MAUtil7CompareIKiEEiRKT_S4_
	call &__ZN6MAUtil3MapIiPN8NativeUI12ListViewItemEEC1EPFiRKiS6_E
	ld   r14,[fr,-20]
	add  r14,#0x550
	ld   i0,r14
	ld   i1,#__ZN6MAUtil7CompareIKiEEiRKT_S4_
	call &__ZN6MAUtil3MapIixEC1EPFiRKiS3_E
	ld   r14,[fr,-20]
	add  r14,#0x588
	ld   i0,r14
	ld   i1,#__ZN6MAUtil7CompareIKiEEiRKT_S4_
	call &__ZN6MAUtil3MapIiPN8NativeUI12ListViewItemEEC1EPFiRKiS6_E
	ld   r14,[fr,-20]
	add  r14,#0x5c0
	ld   i0,r14
	ld   i1,#__ZN6MAUtil7CompareIKiEEiRKT_S4_
	call &__ZN6MAUtil3MapIiPN8NativeUI5LabelEEC1EPFiRKiS6_E
	ld   r14,[fr,-20]
	add  r14,#0x604
	ld   i0,r14
	ld   i1,#__ZN6MAUtil7CompareIKiEEiRKT_S4_
	call &__ZN6MAUtil3MapIixEC1EPFiRKiS3_E
	ld   r14,[fr,-20]
	add  r14,#0x63c
	ld   i0,r14
	ld   i1,#__ZN6MAUtil7CompareIKiEEiRKT_S4_
	call &__ZN6MAUtil3MapIiPN8NativeUI12ListViewItemEEC1EPFiRKiS6_E
	ld   r14,[fr,-20]
	add  r14,#0x674
	ld   i0,r14
	ld   i1,#__ZN6MAUtil7CompareIKiEEiRKT_S4_
	call &__ZN6MAUtil3MapIiPN8NativeUI5LabelEEC1EPFiRKiS6_E
	ld   r14,[fr,-20]
	add  r14,#0x6b4
	ld   i0,r14
	ld   i1,#__ZN6MAUtil7CompareIKiEEiRKT_S4_
	call &__ZN6MAUtil3MapIixEC1EPFiRKiS3_E
	ld   r14,[fr,-20]
	add  r14,#0x6ec
	ld   i0,r14
	ld   i1,#__ZN6MAUtil7CompareIKiEEiRKT_S4_
	call &__ZN6MAUtil3MapIiPN8NativeUI12ListViewItemEEC1EPFiRKiS6_E
	ld   r14,[fr,-20]
	add  r14,#0x724
	ld   i0,r14
	ld   i1,#__ZN6MAUtil7CompareIKiEEiRKT_S4_
	call &__ZN6MAUtil3MapIiPN8NativeUI5LabelEEC1EPFiRKiS6_E
	ld   r14,[fr,-20]
	add  r14,#0x764
	ld   i0,r14
	ld   i1,#__ZN6MAUtil7CompareIKiEEiRKT_S4_
	call &__ZN6MAUtil3MapIixEC1EPFiRKiS3_E
	ld   r14,[fr,-20]
	add  r14,#0x79c
	ld   i0,r14
	ld   i1,#__ZN6MAUtil7CompareIKiEEiRKT_S4_
	call &__ZN6MAUtil3MapIiPN8NativeUI12ListViewItemEEC1EPFiRKiS6_E
	ld   r14,[fr,-20]
	add  r14,#0x7d4
	ld   i0,r14
	ld   i1,#__ZN6MAUtil7CompareIKiEEiRKT_S4_
	call &__ZN6MAUtil3MapIiPN8NativeUI5LabelEEC1EPFiRKiS6_E
	ld   r14,[fr,-20]
	add  r14,#0x814
	ld   i0,r14
	ld   i1,#__ZN6MAUtil7CompareIKiEEiRKT_S4_
	call &__ZN6MAUtil3MapIixEC1EPFiRKiS3_E
	ld   r14,[fr,-20]
	add  r14,#0x84c
	ld   i0,r14
	ld   i1,#__ZN6MAUtil7CompareIKiEEiRKT_S4_
	call &__ZN6MAUtil3MapIiPN8NativeUI12ListViewItemEEC1EPFiRKiS6_E
	ld   r14,[fr,-20]
	add  r14,#0x884
	ld   i0,r14
	ld   i1,#__ZN6MAUtil7CompareIKiEEiRKT_S4_
	call &__ZN6MAUtil3MapIiPN8NativeUI5LabelEEC1EPFiRKiS6_E
	ld   r14,[fr,-20]
	add  r14,#0x8d8
	ld   i0,r14
	ld   i1,#__ZN6MAUtil7CompareIKiEEiRKT_S4_
	call &__ZN6MAUtil3MapIiPN8NativeUI12ListViewItemEEC1EPFiRKiS6_E
	ld   r14,[fr,-20]
	add  r14,#0x910
	ld   i0,r14
	ld   i1,#__ZN6MAUtil7CompareIKiEEiRKT_S4_
	call &__ZN6MAUtil3MapIiPN8NativeUI5LabelEEC1EPFiRKiS6_E
	ld   r14,[fr,-20]
	add  r14,#0x958
	ld   i0,r14
	ld   i1,#__ZN6MAUtil7CompareIKiEEiRKT_S4_
	call &__ZN6MAUtil3MapIixEC1EPFiRKiS3_E
	ld   r14,[fr,-20]
	add  r14,#0x990
	ld   i0,r14
	ld   i1,#__ZN6MAUtil7CompareIKiEEiRKT_S4_
	call &__ZN6MAUtil3MapIiiEC1EPFiRKiS3_E
	ld   r14,[fr,-20]
	add  r14,#0x9c8
	ld   i0,r14
	ld   i1,#__ZN6MAUtil7CompareIKiEEiRKT_S4_
	call &__ZN6MAUtil3MapIixEC1EPFiRKiS3_E
	.line 18
	ld   d1,[fr,-20]
	ld   i0,#0x40
	call &__Znwm
	ld   d0,r14
	ld   i0,d0
	call &__ZN12ActivityPageC1Ev
	ld   [d1,148],d0
	.line 20
	ld   r14,[fr,-28]
	add  r14,#0x6
	ld   i0,[fr,-20]
	ld   i1,r14
	call &__ZN8NativeUI6Screen7setIconEi
	.line 22
	ld   r14,[fr,-20]
	ld   r0,#0xffffffff
	ld   [r14,164],r0
	.line 23
	ld   r14,[fr,-20]
	ld   r0,#0xffffffff
	ld   [r14,168],r0
	.line 24
	ld   r14,[fr,-20]
	ld   r0,#0xffffffff
	ld   [r14,172],r0
	.line 25
	ld   r14,[fr,-20]
	ld   r0,#0xffffffff
	ld   [r14,176],r0
	.line 26
	ld   r14,[fr,-20]
	ld   r0,#0xffffffff
	ld   [r14,180],r0
	.line 27
	ld   r14,[fr,-20]
	ld   r0,#0xffffffff
	ld   [r14,184],r0
	.line 28
	ld   r14,[fr,-20]
	ld   r0,#0xffffffff
	ld   [r14,188],r0
	.line 29
	ld   r14,[fr,-20]
	ld   r0,#0xffffffff
	ld   [r14,192],r0
	.line 30
	ld   r14,[fr,-20]
	ld   r0,#0xffffffff
	ld   [r14,396],r0
	.line 31
	ld   i0,[fr,-20]
	call &__ZN8AlertTab8createUIEv
	.dlab LBE40
	.line 32
	add  sp,#0xc
	pop  rt,d1
	ret
Lscope22:
	.stabs	"_ZN8AlertTabD2Ev:F(0,6)",36,0,37,__ZN8AlertTabD2Ev
	.stabs	"this:p(0,25)",160,0,37,-12
	.global	__ZN8AlertTabD2Ev

.func __ZN8AlertTabD2Ev, 1, void
	.line 37
	push rt,fr
	sub  sp,#0x4
	ld   fr,sp
	add  fr,#0xc
	ld   [fr,-12],i0
	.dlab LBB41
	.line 37
	ld   r14,[fr,-12]
	ld   r0,#__ZTV8AlertTab+8
	ld   [r14],r0
	ld   r14,[fr,-12]
	add  r14,#0x48
	ld   r0,#__ZTV8AlertTab+236
	ld   [r14],r0
	ld   r14,[fr,-12]
	add  r14,#0x4c
	ld   r0,#__ZTV8AlertTab+256
	ld   [r14],r0
	ld   r14,[fr,-12]
	add  r14,#0x50
	ld   r0,#__ZTV8AlertTab+288
	ld   [r14],r0
	ld   r14,[fr,-12]
	add  r14,#0x54
	ld   r0,#__ZTV8AlertTab+312
	ld   [r14],r0
	ld   r14,[fr,-12]
	add  r14,#0x7c
	ld   r0,#__ZTV8AlertTab+360
	ld   [r14],r0
	ld   r14,[fr,-12]
	add  r14,#0x9c8
	ld   i0,r14
	call &__ZN6MAUtil3MapIixED1Ev
	ld   r14,[fr,-12]
	add  r14,#0x990
	ld   i0,r14
	call &__ZN6MAUtil3MapIiiED1Ev
	ld   r14,[fr,-12]
	add  r14,#0x958
	ld   i0,r14
	call &__ZN6MAUtil3MapIixED1Ev
	ld   r14,[fr,-12]
	add  r14,#0x910
	ld   i0,r14
	call &__ZN6MAUtil3MapIiPN8NativeUI5LabelEED1Ev
	ld   r14,[fr,-12]
	add  r14,#0x8d8
	ld   i0,r14
	call &__ZN6MAUtil3MapIiPN8NativeUI12ListViewItemEED1Ev
	ld   r14,[fr,-12]
	add  r14,#0x884
	ld   i0,r14
	call &__ZN6MAUtil3MapIiPN8NativeUI5LabelEED1Ev
	ld   r14,[fr,-12]
	add  r14,#0x84c
	ld   i0,r14
	call &__ZN6MAUtil3MapIiPN8NativeUI12ListViewItemEED1Ev
	ld   r14,[fr,-12]
	add  r14,#0x814
	ld   i0,r14
	call &__ZN6MAUtil3MapIixED1Ev
	ld   r14,[fr,-12]
	add  r14,#0x7d4
	ld   i0,r14
	call &__ZN6MAUtil3MapIiPN8NativeUI5LabelEED1Ev
	ld   r14,[fr,-12]
	add  r14,#0x79c
	ld   i0,r14
	call &__ZN6MAUtil3MapIiPN8NativeUI12ListViewItemEED1Ev
	ld   r14,[fr,-12]
	add  r14,#0x764
	ld   i0,r14
	call &__ZN6MAUtil3MapIixED1Ev
	ld   r14,[fr,-12]
	add  r14,#0x724
	ld   i0,r14
	call &__ZN6MAUtil3MapIiPN8NativeUI5LabelEED1Ev
	ld   r14,[fr,-12]
	add  r14,#0x6ec
	ld   i0,r14
	call &__ZN6MAUtil3MapIiPN8NativeUI12ListViewItemEED1Ev
	ld   r14,[fr,-12]
	add  r14,#0x6b4
	ld   i0,r14
	call &__ZN6MAUtil3MapIixED1Ev
	ld   r14,[fr,-12]
	add  r14,#0x674
	ld   i0,r14
	call &__ZN6MAUtil3MapIiPN8NativeUI5LabelEED1Ev
	ld   r14,[fr,-12]
	add  r14,#0x63c
	ld   i0,r14
	call &__ZN6MAUtil3MapIiPN8NativeUI12ListViewItemEED1Ev
	ld   r14,[fr,-12]
	add  r14,#0x604
	ld   i0,r14
	call &__ZN6MAUtil3MapIixED1Ev
	ld   r14,[fr,-12]
	add  r14,#0x5c0
	ld   i0,r14
	call &__ZN6MAUtil3MapIiPN8NativeUI5LabelEED1Ev
	ld   r14,[fr,-12]
	add  r14,#0x588
	ld   i0,r14
	call &__ZN6MAUtil3MapIiPN8NativeUI12ListViewItemEED1Ev
	ld   r14,[fr,-12]
	add  r14,#0x550
	ld   i0,r14
	call &__ZN6MAUtil3MapIixED1Ev
	ld   r14,[fr,-12]
	add  r14,#0x4f4
	ld   i0,r14
	call &__ZN6MAUtil3MapIiPN8NativeUI12ListViewItemEED1Ev
	ld   r14,[fr,-12]
	add  r14,#0x4b0
	ld   i0,r14
	call &__ZN6MAUtil3MapIiPN8NativeUI5LabelEED1Ev
	ld   r14,[fr,-12]
	add  r14,#0x478
	ld   i0,r14
	call &__ZN6MAUtil3MapIiPN8NativeUI12ListViewItemEED1Ev
	ld   r14,[fr,-12]
	add  r14,#0x440
	ld   i0,r14
	call &__ZN6MAUtil3MapIixED1Ev
	ld   r14,[fr,-12]
	add  r14,#0x408
	ld   i0,r14
	call &__ZN6MAUtil3MapIixED1Ev
	ld   r14,[fr,-12]
	add  r14,#0x3d0
	ld   i0,r14
	call &__ZN6MAUtil3MapIixED1Ev
	ld   r14,[fr,-12]
	add  r14,#0x398
	ld   i0,r14
	call &__ZN6MAUtil3MapIixED1Ev
	ld   r14,[fr,-12]
	add  r14,#0x358
	ld   i0,r14
	call &__ZN6MAUtil3MapIiPN8NativeUI5LabelEED1Ev
	ld   r14,[fr,-12]
	add  r14,#0x320
	ld   i0,r14
	call &__ZN6MAUtil3MapIiPN8NativeUI12ListViewItemEED1Ev
	ld   r14,[fr,-12]
	add  r14,#0x2e8
	ld   i0,r14
	call &__ZN6MAUtil3MapIixED1Ev
	ld   r14,[fr,-12]
	add  r14,#0x2a8
	ld   i0,r14
	call &__ZN6MAUtil3MapIiNS_11BasicStringIcEEED1Ev
	ld   r14,[fr,-12]
	add  r14,#0x270
	ld   i0,r14
	call &__ZN6MAUtil3MapIiPN8NativeUI12ListViewItemEED1Ev
	ld   r14,[fr,-12]
	add  r14,#0x238
	ld   i0,r14
	call &__ZN6MAUtil3MapIixED1Ev
	ld   r14,[fr,-12]
	add  r14,#0x1f8
	ld   i0,r14
	call &__ZN6MAUtil3MapIiPN8NativeUI12ListViewItemEED1Ev
	ld   r14,[fr,-12]
	add  r14,#0x1c0
	ld   i0,r14
	call &__ZN6MAUtil3MapIiPN8NativeUI5LabelEED1Ev
	ld   r14,[fr,-12]
	add  r14,#0x140
	ld   i0,r14
	call &__ZN6MAUtil3MapIixED1Ev
	ld   r14,[fr,-12]
	add  r14,#0x108
	ld   i0,r14
	call &__ZN6MAUtil3MapIiPN8NativeUI5LabelEED1Ev
	ld   r14,[fr,-12]
	add  r14,#0xd0
	ld   i0,r14
	call &__ZN6MAUtil3MapIiPN8NativeUI12ListViewItemEED1Ev
	ld   r14,[fr,-12]
	add  r14,#0x98
	ld   i0,r14
	call &__ZN6MAUtil11BasicStringIcED1Ev
	ld   r14,[fr,-12]
	add  r14,#0x54
	ld   i0,r14
	call &__ZN11ConnectionsD2Ev
	ld   i0,[fr,-12]
	call &__ZN8NativeUI6ScreenD2Ev
	.dlab LBE41
	.line 39
	ld   r14,#0x1
	and  r14,#0x0
	ld   r0,r14
	and  r0,#0xff  ; zero extend
	ld   r14,#0x0
	jc   eq,r0,r14,#L62
	ld   i0,[fr,-12]
	call &__ZdlPv
L62:
	add  sp,#0x4
	pop  rt,fr
	ret
Lscope23:
	.stabs	"_ZN6MAUtil3MapIiNS_11BasicStringIcEEED1Ev:f(0,6)",36,0,16,__ZN6MAUtil3MapIiNS_11BasicStringIcEEED1Ev
	.stabs	"this:p(0,28)=k(1,164)",160,0,33,-12

.func __ZN6MAUtil3MapIiNS_11BasicStringIcEEED1Ev, 1, void
	.line 16
	push rt,fr
	sub  sp,#0x4
	ld   fr,sp
	add  fr,#0xc
	ld   [fr,-12],i0
	.dlab LBB42
	.line 16
	ld   i0,[fr,-12]
	call &__ZN6MAUtil10DictionaryIKiNS_4PairIS1_NS_11BasicStringIcEEEEED2Ev
	.dlab LBE42
	add  sp,#0x4
	pop  rt,fr
	ret
Lscope24:
	.stabs	"_ZN6MAUtil3MapIiPN8NativeUI12ListViewItemEED1Ev:f(0,6)",36,0,16,__ZN6MAUtil3MapIiPN8NativeUI12ListViewItemEED1Ev
	.stabs	"this:p(0,29)=k(1,32)",160,0,33,-12

.func __ZN6MAUtil3MapIiPN8NativeUI12ListViewItemEED1Ev, 1, void
	.line 16
	push rt,fr
	sub  sp,#0x4
	ld   fr,sp
	add  fr,#0xc
	ld   [fr,-12],i0
	.dlab LBB43
	.line 16
	ld   i0,[fr,-12]
	call &__ZN6MAUtil10DictionaryIKiNS_4PairIS1_PN8NativeUI12ListViewItemEEEED2Ev
	.dlab LBE43
	add  sp,#0x4
	pop  rt,fr
	ret
Lscope25:
	.stabs	"_ZN6MAUtil3MapIiPN8NativeUI5LabelEED1Ev:f(0,6)",36,0,16,__ZN6MAUtil3MapIiPN8NativeUI5LabelEED1Ev
	.stabs	"this:p(0,30)=k(1,77)",160,0,33,-12

.func __ZN6MAUtil3MapIiPN8NativeUI5LabelEED1Ev, 1, void
	.line 16
	push rt,fr
	sub  sp,#0x4
	ld   fr,sp
	add  fr,#0xc
	ld   [fr,-12],i0
	.dlab LBB44
	.line 16
	ld   i0,[fr,-12]
	call &__ZN6MAUtil10DictionaryIKiNS_4PairIS1_PN8NativeUI5LabelEEEED2Ev
	.dlab LBE44
	add  sp,#0x4
	pop  rt,fr
	ret
Lscope26:
	.stabs	"_ZN6MAUtil3MapIiiED1Ev:f(0,6)",36,0,16,__ZN6MAUtil3MapIiiED1Ev
	.stabs	"this:p(0,31)=k(1,204)",160,0,33,-12

.func __ZN6MAUtil3MapIiiED1Ev, 1, void
	.line 16
	push rt,fr
	sub  sp,#0x4
	ld   fr,sp
	add  fr,#0xc
	ld   [fr,-12],i0
	.dlab LBB45
	.line 16
	ld   i0,[fr,-12]
	call &__ZN6MAUtil10DictionaryIKiNS_4PairIS1_iEEED2Ev
	.dlab LBE45
	add  sp,#0x4
	pop  rt,fr
	ret
Lscope27:
	.stabs	"_ZN6MAUtil3MapIixED1Ev:f(0,6)",36,0,16,__ZN6MAUtil3MapIixED1Ev
	.stabs	"this:p(0,32)=k(1,122)",160,0,33,-12

.func __ZN6MAUtil3MapIixED1Ev, 1, void
	.line 16
	push rt,fr
	sub  sp,#0x4
	ld   fr,sp
	add  fr,#0xc
	ld   [fr,-12],i0
	.dlab LBB46
	.line 16
	ld   i0,[fr,-12]
	call &__ZN6MAUtil10DictionaryIKiNS_4PairIS1_xEEED2Ev
	.dlab LBE46
	add  sp,#0x4
	pop  rt,fr
	ret
Lscope28:
	.set	%0=__ZN8AlertTabD1Ev
	.stabs	"this:p(0,25)",160,0,37,-12
	.global	__ZThn84_N8AlertTabD1Ev

.func __ZThn84_N8AlertTabD1Ev, 1, void
	.stabs	"C:\\Users\\gdr\\Documents\\source\\mobile-app\\MobileApp\\/AlertTab.h",132,0,0,Ltext10
Ltext10:
	.line 39
	push rt,fr
	sub  sp,#0x4
	ld   fr,sp
	add  fr,#0xc
	ld   [fr,-12],i0
	.line 39
	ld   r14,[fr,-12]
	add  r14,#0xffffffac
	ld   i0,r14
	call &%0
	add  sp,#0x4
	pop  rt,fr
	ret
Lscope29:
	.stabs	"_ZN8AlertTabD1Ev:F(0,6)",36,0,37,__ZN8AlertTabD1Ev
	.stabs	"this:p(0,25)",160,0,37,-12
	.global	__ZN8AlertTabD1Ev

.func __ZN8AlertTabD1Ev, 1, void
	.stabs	"C:\\Users\\gdr\\Documents\\source\\mobile-app\\MobileApp\\AlertTab.cpp",132,0,0,Ltext11
Ltext11:
	.line 37
	push rt,fr
	sub  sp,#0x4
	ld   fr,sp
	add  fr,#0xc
	ld   [fr,-12],i0
	.dlab LBB47
	.line 37
	ld   r14,[fr,-12]
	ld   r0,#__ZTV8AlertTab+8
	ld   [r14],r0
	ld   r14,[fr,-12]
	add  r14,#0x48
	ld   r0,#__ZTV8AlertTab+236
	ld   [r14],r0
	ld   r14,[fr,-12]
	add  r14,#0x4c
	ld   r0,#__ZTV8AlertTab+256
	ld   [r14],r0
	ld   r14,[fr,-12]
	add  r14,#0x50
	ld   r0,#__ZTV8AlertTab+288
	ld   [r14],r0
	ld   r14,[fr,-12]
	add  r14,#0x54
	ld   r0,#__ZTV8AlertTab+312
	ld   [r14],r0
	ld   r14,[fr,-12]
	add  r14,#0x7c
	ld   r0,#__ZTV8AlertTab+360
	ld   [r14],r0
	ld   r14,[fr,-12]
	add  r14,#0x9c8
	ld   i0,r14
	call &__ZN6MAUtil3MapIixED1Ev
	ld   r14,[fr,-12]
	add  r14,#0x990
	ld   i0,r14
	call &__ZN6MAUtil3MapIiiED1Ev
	ld   r14,[fr,-12]
	add  r14,#0x958
	ld   i0,r14
	call &__ZN6MAUtil3MapIixED1Ev
	ld   r14,[fr,-12]
	add  r14,#0x910
	ld   i0,r14
	call &__ZN6MAUtil3MapIiPN8NativeUI5LabelEED1Ev
	ld   r14,[fr,-12]
	add  r14,#0x8d8
	ld   i0,r14
	call &__ZN6MAUtil3MapIiPN8NativeUI12ListViewItemEED1Ev
	ld   r14,[fr,-12]
	add  r14,#0x884
	ld   i0,r14
	call &__ZN6MAUtil3MapIiPN8NativeUI5LabelEED1Ev
	ld   r14,[fr,-12]
	add  r14,#0x84c
	ld   i0,r14
	call &__ZN6MAUtil3MapIiPN8NativeUI12ListViewItemEED1Ev
	ld   r14,[fr,-12]
	add  r14,#0x814
	ld   i0,r14
	call &__ZN6MAUtil3MapIixED1Ev
	ld   r14,[fr,-12]
	add  r14,#0x7d4
	ld   i0,r14
	call &__ZN6MAUtil3MapIiPN8NativeUI5LabelEED1Ev
	ld   r14,[fr,-12]
	add  r14,#0x79c
	ld   i0,r14
	call &__ZN6MAUtil3MapIiPN8NativeUI12ListViewItemEED1Ev
	ld   r14,[fr,-12]
	add  r14,#0x764
	ld   i0,r14
	call &__ZN6MAUtil3MapIixED1Ev
	ld   r14,[fr,-12]
	add  r14,#0x724
	ld   i0,r14
	call &__ZN6MAUtil3MapIiPN8NativeUI5LabelEED1Ev
	ld   r14,[fr,-12]
	add  r14,#0x6ec
	ld   i0,r14
	call &__ZN6MAUtil3MapIiPN8NativeUI12ListViewItemEED1Ev
	ld   r14,[fr,-12]
	add  r14,#0x6b4
	ld   i0,r14
	call &__ZN6MAUtil3MapIixED1Ev
	ld   r14,[fr,-12]
	add  r14,#0x674
	ld   i0,r14
	call &__ZN6MAUtil3MapIiPN8NativeUI5LabelEED1Ev
	ld   r14,[fr,-12]
	add  r14,#0x63c
	ld   i0,r14
	call &__ZN6MAUtil3MapIiPN8NativeUI12ListViewItemEED1Ev
	ld   r14,[fr,-12]
	add  r14,#0x604
	ld   i0,r14
	call &__ZN6MAUtil3MapIixED1Ev
	ld   r14,[fr,-12]
	add  r14,#0x5c0
	ld   i0,r14
	call &__ZN6MAUtil3MapIiPN8NativeUI5LabelEED1Ev
	ld   r14,[fr,-12]
	add  r14,#0x588
	ld   i0,r14
	call &__ZN6MAUtil3MapIiPN8NativeUI12ListViewItemEED1Ev
	ld   r14,[fr,-12]
	add  r14,#0x550
	ld   i0,r14
	call &__ZN6MAUtil3MapIixED1Ev
	ld   r14,[fr,-12]
	add  r14,#0x4f4
	ld   i0,r14
	call &__ZN6MAUtil3MapIiPN8NativeUI12ListViewItemEED1Ev
	ld   r14,[fr,-12]
	add  r14,#0x4b0
	ld   i0,r14
	call &__ZN6MAUtil3MapIiPN8NativeUI5LabelEED1Ev
	ld   r14,[fr,-12]
	add  r14,#0x478
	ld   i0,r14
	call &__ZN6MAUtil3MapIiPN8NativeUI12ListViewItemEED1Ev
	ld   r14,[fr,-12]
	add  r14,#0x440
	ld   i0,r14
	call &__ZN6MAUtil3MapIixED1Ev
	ld   r14,[fr,-12]
	add  r14,#0x408
	ld   i0,r14
	call &__ZN6MAUtil3MapIixED1Ev
	ld   r14,[fr,-12]
	add  r14,#0x3d0
	ld   i0,r14
	call &__ZN6MAUtil3MapIixED1Ev
	ld   r14,[fr,-12]
	add  r14,#0x398
	ld   i0,r14
	call &__ZN6MAUtil3MapIixED1Ev
	ld   r14,[fr,-12]
	add  r14,#0x358
	ld   i0,r14
	call &__ZN6MAUtil3MapIiPN8NativeUI5LabelEED1Ev
	ld   r14,[fr,-12]
	add  r14,#0x320
	ld   i0,r14
	call &__ZN6MAUtil3MapIiPN8NativeUI12ListViewItemEED1Ev
	ld   r14,[fr,-12]
	add  r14,#0x2e8
	ld   i0,r14
	call &__ZN6MAUtil3MapIixED1Ev
	ld   r14,[fr,-12]
	add  r14,#0x2a8
	ld   i0,r14
	call &__ZN6MAUtil3MapIiNS_11BasicStringIcEEED1Ev
	ld   r14,[fr,-12]
	add  r14,#0x270
	ld   i0,r14
	call &__ZN6MAUtil3MapIiPN8NativeUI12ListViewItemEED1Ev
	ld   r14,[fr,-12]
	add  r14,#0x238
	ld   i0,r14
	call &__ZN6MAUtil3MapIixED1Ev
	ld   r14,[fr,-12]
	add  r14,#0x1f8
	ld   i0,r14
	call &__ZN6MAUtil3MapIiPN8NativeUI12ListViewItemEED1Ev
	ld   r14,[fr,-12]
	add  r14,#0x1c0
	ld   i0,r14
	call &__ZN6MAUtil3MapIiPN8NativeUI5LabelEED1Ev
	ld   r14,[fr,-12]
	add  r14,#0x140
	ld   i0,r14
	call &__ZN6MAUtil3MapIixED1Ev
	ld   r14,[fr,-12]
	add  r14,#0x108
	ld   i0,r14
	call &__ZN6MAUtil3MapIiPN8NativeUI5LabelEED1Ev
	ld   r14,[fr,-12]
	add  r14,#0xd0
	ld   i0,r14
	call &__ZN6MAUtil3MapIiPN8NativeUI12ListViewItemEED1Ev
	ld   r14,[fr,-12]
	add  r14,#0x98
	ld   i0,r14
	call &__ZN6MAUtil11BasicStringIcED1Ev
	ld   r14,[fr,-12]
	add  r14,#0x54
	ld   i0,r14
	call &__ZN11ConnectionsD2Ev
	ld   i0,[fr,-12]
	call &__ZN8NativeUI6ScreenD2Ev
	.dlab LBE47
	.line 39
	ld   r14,#0x1
	and  r14,#0x2
	ld   r0,r14
	and  r0,#0xff  ; zero extend
	ld   r14,#0x0
	jc   eq,r0,r14,#L82
	ld   i0,[fr,-12]
	call &__ZdlPv
L82:
	add  sp,#0x4
	pop  rt,fr
	ret
Lscope30:
	.set	%1=__ZN8AlertTabD0Ev
	.stabs	"this:p(0,25)",160,0,37,-12
	.global	__ZThn84_N8AlertTabD0Ev

.func __ZThn84_N8AlertTabD0Ev, 1, void
	.stabs	"C:\\Users\\gdr\\Documents\\source\\mobile-app\\MobileApp\\/AlertTab.h",132,0,0,Ltext12
Ltext12:
	.line 39
	push rt,fr
	sub  sp,#0x4
	ld   fr,sp
	add  fr,#0xc
	ld   [fr,-12],i0
	.line 39
	ld   r14,[fr,-12]
	add  r14,#0xffffffac
	ld   i0,r14
	call &%1
	add  sp,#0x4
	pop  rt,fr
	ret
Lscope31:
	.stabs	"_ZN8AlertTabD0Ev:F(0,6)",36,0,37,__ZN8AlertTabD0Ev
	.stabs	"this:p(0,25)",160,0,37,-12
	.global	__ZN8AlertTabD0Ev

.func __ZN8AlertTabD0Ev, 1, void
	.stabs	"C:\\Users\\gdr\\Documents\\source\\mobile-app\\MobileApp\\AlertTab.cpp",132,0,0,Ltext13
Ltext13:
	.line 37
	push rt,fr
	sub  sp,#0x4
	ld   fr,sp
	add  fr,#0xc
	ld   [fr,-12],i0
	.dlab LBB48
	.line 37
	ld   r14,[fr,-12]
	ld   r0,#__ZTV8AlertTab+8
	ld   [r14],r0
	ld   r14,[fr,-12]
	add  r14,#0x48
	ld   r0,#__ZTV8AlertTab+236
	ld   [r14],r0
	ld   r14,[fr,-12]
	add  r14,#0x4c
	ld   r0,#__ZTV8AlertTab+256
	ld   [r14],r0
	ld   r14,[fr,-12]
	add  r14,#0x50
	ld   r0,#__ZTV8AlertTab+288
	ld   [r14],r0
	ld   r14,[fr,-12]
	add  r14,#0x54
	ld   r0,#__ZTV8AlertTab+312
	ld   [r14],r0
	ld   r14,[fr,-12]
	add  r14,#0x7c
	ld   r0,#__ZTV8AlertTab+360
	ld   [r14],r0
	ld   r14,[fr,-12]
	add  r14,#0x9c8
	ld   i0,r14
	call &__ZN6MAUtil3MapIixED1Ev
	ld   r14,[fr,-12]
	add  r14,#0x990
	ld   i0,r14
	call &__ZN6MAUtil3MapIiiED1Ev
	ld   r14,[fr,-12]
	add  r14,#0x958
	ld   i0,r14
	call &__ZN6MAUtil3MapIixED1Ev
	ld   r14,[fr,-12]
	add  r14,#0x910
	ld   i0,r14
	call &__ZN6MAUtil3MapIiPN8NativeUI5LabelEED1Ev
	ld   r14,[fr,-12]
	add  r14,#0x8d8
	ld   i0,r14
	call &__ZN6MAUtil3MapIiPN8NativeUI12ListViewItemEED1Ev
	ld   r14,[fr,-12]
	add  r14,#0x884
	ld   i0,r14
	call &__ZN6MAUtil3MapIiPN8NativeUI5LabelEED1Ev
	ld   r14,[fr,-12]
	add  r14,#0x84c
	ld   i0,r14
	call &__ZN6MAUtil3MapIiPN8NativeUI12ListViewItemEED1Ev
	ld   r14,[fr,-12]
	add  r14,#0x814
	ld   i0,r14
	call &__ZN6MAUtil3MapIixED1Ev
	ld   r14,[fr,-12]
	add  r14,#0x7d4
	ld   i0,r14
	call &__ZN6MAUtil3MapIiPN8NativeUI5LabelEED1Ev
	ld   r14,[fr,-12]
	add  r14,#0x79c
	ld   i0,r14
	call &__ZN6MAUtil3MapIiPN8NativeUI12ListViewItemEED1Ev
	ld   r14,[fr,-12]
	add  r14,#0x764
	ld   i0,r14
	call &__ZN6MAUtil3MapIixED1Ev
	ld   r14,[fr,-12]
	add  r14,#0x724
	ld   i0,r14
	call &__ZN6MAUtil3MapIiPN8NativeUI5LabelEED1Ev
	ld   r14,[fr,-12]
	add  r14,#0x6ec
	ld   i0,r14
	call &__ZN6MAUtil3MapIiPN8NativeUI12ListViewItemEED1Ev
	ld   r14,[fr,-12]
	add  r14,#0x6b4
	ld   i0,r14
	call &__ZN6MAUtil3MapIixED1Ev
	ld   r14,[fr,-12]
	add  r14,#0x674
	ld   i0,r14
	call &__ZN6MAUtil3MapIiPN8NativeUI5LabelEED1Ev
	ld   r14,[fr,-12]
	add  r14,#0x63c
	ld   i0,r14
	call &__ZN6MAUtil3MapIiPN8NativeUI12ListViewItemEED1Ev
	ld   r14,[fr,-12]
	add  r14,#0x604
	ld   i0,r14
	call &__ZN6MAUtil3MapIixED1Ev
	ld   r14,[fr,-12]
	add  r14,#0x5c0
	ld   i0,r14
	call &__ZN6MAUtil3MapIiPN8NativeUI5LabelEED1Ev
	ld   r14,[fr,-12]
	add  r14,#0x588
	ld   i0,r14
	call &__ZN6MAUtil3MapIiPN8NativeUI12ListViewItemEED1Ev
	ld   r14,[fr,-12]
	add  r14,#0x550
	ld   i0,r14
	call &__ZN6MAUtil3MapIixED1Ev
	ld   r14,[fr,-12]
	add  r14,#0x4f4
	ld   i0,r14
	call &__ZN6MAUtil3MapIiPN8NativeUI12ListViewItemEED1Ev
	ld   r14,[fr,-12]
	add  r14,#0x4b0
	ld   i0,r14
	call &__ZN6MAUtil3MapIiPN8NativeUI5LabelEED1Ev
	ld   r14,[fr,-12]
	add  r14,#0x478
	ld   i0,r14
	call &__ZN6MAUtil3MapIiPN8NativeUI12ListViewItemEED1Ev
	ld   r14,[fr,-12]
	add  r14,#0x440
	ld   i0,r14
	call &__ZN6MAUtil3MapIixED1Ev
	ld   r14,[fr,-12]
	add  r14,#0x408
	ld   i0,r14
	call &__ZN6MAUtil3MapIixED1Ev
	ld   r14,[fr,-12]
	add  r14,#0x3d0
	ld   i0,r14
	call &__ZN6MAUtil3MapIixED1Ev
	ld   r14,[fr,-12]
	add  r14,#0x398
	ld   i0,r14
	call &__ZN6MAUtil3MapIixED1Ev
	ld   r14,[fr,-12]
	add  r14,#0x358
	ld   i0,r14
	call &__ZN6MAUtil3MapIiPN8NativeUI5LabelEED1Ev
	ld   r14,[fr,-12]
	add  r14,#0x320
	ld   i0,r14
	call &__ZN6MAUtil3MapIiPN8NativeUI12ListViewItemEED1Ev
	ld   r14,[fr,-12]
	add  r14,#0x2e8
	ld   i0,r14
	call &__ZN6MAUtil3MapIixED1Ev
	ld   r14,[fr,-12]
	add  r14,#0x2a8
	ld   i0,r14
	call &__ZN6MAUtil3MapIiNS_11BasicStringIcEEED1Ev
	ld   r14,[fr,-12]
	add  r14,#0x270
	ld   i0,r14
	call &__ZN6MAUtil3MapIiPN8NativeUI12ListViewItemEED1Ev
	ld   r14,[fr,-12]
	add  r14,#0x238
	ld   i0,r14
	call &__ZN6MAUtil3MapIixED1Ev
	ld   r14,[fr,-12]
	add  r14,#0x1f8
	ld   i0,r14
	call &__ZN6MAUtil3MapIiPN8NativeUI12ListViewItemEED1Ev
	ld   r14,[fr,-12]
	add  r14,#0x1c0
	ld   i0,r14
	call &__ZN6MAUtil3MapIiPN8NativeUI5LabelEED1Ev
	ld   r14,[fr,-12]
	add  r14,#0x140
	ld   i0,r14
	call &__ZN6MAUtil3MapIixED1Ev
	ld   r14,[fr,-12]
	add  r14,#0x108
	ld   i0,r14
	call &__ZN6MAUtil3MapIiPN8NativeUI5LabelEED1Ev
	ld   r14,[fr,-12]
	add  r14,#0xd0
	ld   i0,r14
	call &__ZN6MAUtil3MapIiPN8NativeUI12ListViewItemEED1Ev
	ld   r14,[fr,-12]
	add  r14,#0x98
	ld   i0,r14
	call &__ZN6MAUtil11BasicStringIcED1Ev
	ld   r14,[fr,-12]
	add  r14,#0x54
	ld   i0,r14
	call &__ZN11ConnectionsD2Ev
	ld   i0,[fr,-12]
	call &__ZN8NativeUI6ScreenD2Ev
	.dlab LBE48
	.line 39
	ld   r14,#0x1
	and  r14,#0x3
	ld   r0,r14
	and  r0,#0xff  ; zero extend
	ld   r14,#0x0
	jc   eq,r0,r14,#L87
	ld   i0,[fr,-12]
	call &__ZdlPv
L87:
	add  sp,#0x4
	pop  rt,fr
	ret
Lscope32:
	.stabs	"_ZN8AlertTab14handleKeyPressEi:F(0,6)",36,0,41,__ZN8AlertTab14handleKeyPressEi
	.stabs	"this:p(0,25)",160,0,41,-20
	.stabs	"keyCode:p(0,3)",160,0,41,-24
	.global	__ZN8AlertTab14handleKeyPressEi

.func __ZN8AlertTab14handleKeyPressEi, 2, void
	.line 41
	push rt,d1
	sub  sp,#0xc
	ld   fr,sp
	add  fr,#0x1c
	ld   [fr,-20],i0
	ld   [fr,-24],i1
	.dlab LBB49
	.line 43
	ld   r0,[fr,-24]
	ld   r14,#0x124
	jc   ne,r0,r14,#L91
	.line 44
	ld   r14,[fr,-20]
	ld   r0,[fr,-20]
	ld   r1,[r14,160]
	ld   r14,[r0,560]
	jc   ne,r1,r14,#L93
	.line 45
	ld   r0,[fr,-20]
	ld   r14,[fr,-20]
	ld   r14,[r14,196]
	ld   [r0,160],r14
	jp   #L94
L93:
	.line 46
	ld   r14,[fr,-20]
	ld   r0,[fr,-20]
	ld   r1,[r14,160]
	ld   r14,[r0,736]
	jc   ne,r1,r14,#L95
	.line 47
	ld   r0,[fr,-20]
	ld   r14,[fr,-20]
	ld   r14,[r14,560]
	ld   [r0,160],r14
	jp   #L94
L95:
	.line 48
	ld   r14,[fr,-20]
	ld   r0,[fr,-20]
	ld   r1,[r14,160]
	ld   r14,[r0,912]
	jc   ne,r1,r14,#L97
	.line 49
	ld   r0,[fr,-20]
	ld   r14,[fr,-20]
	ld   r14,[r14,736]
	ld   [r0,160],r14
	jp   #L94
L97:
	.line 50
	ld   r14,[fr,-20]
	ld   r0,[fr,-20]
	ld   r1,[r14,160]
	ld   r14,[r0,1256]
	jc   ne,r1,r14,#L99
	.line 51
	ld   r0,[fr,-20]
	ld   r14,[fr,-20]
	ld   r14,[r14,912]
	ld   [r0,160],r14
	jp   #L94
L99:
	.line 52
	ld   r14,[fr,-20]
	ld   r0,[fr,-20]
	ld   r1,[r14,160]
	ld   r14,[r0,1352]
	jc   eq,r1,r14,#L102
	ld   r14,[fr,-20]
	ld   r0,[fr,-20]
	ld   r1,[r14,160]
	ld   r14,[r0,1528]
	jc   eq,r1,r14,#L102
	jp   #L101
L102:
	.line 54
	ld   r0,[fr,-20]
	ld   r14,[fr,-20]
	ld   r14,[r14,1256]
	ld   [r0,160],r14
	jp   #L94
L101:
	.line 55
	ld   r14,[fr,-20]
	ld   r0,[fr,-20]
	ld   r1,[r14,160]
	ld   r14,[r0,1884]
	jc   ne,r1,r14,#L104
	.line 56
	ld   r0,[fr,-20]
	ld   r14,[fr,-20]
	ld   r14,[r14,1708]
	ld   [r0,160],r14
	jp   #L94
L104:
	.line 57
	ld   r14,[fr,-20]
	ld   r0,[fr,-20]
	ld   r1,[r14,160]
	ld   r14,[r0,2060]
	jc   ne,r1,r14,#L106
	.line 58
	ld   r0,[fr,-20]
	ld   r14,[fr,-20]
	ld   r14,[r14,1884]
	ld   [r0,160],r14
	jp   #L94
L106:
	.line 59
	ld   r14,[fr,-20]
	ld   r0,[fr,-20]
	ld   r1,[r14,160]
	ld   r14,[r0,2236]
	jc   ne,r1,r14,#L108
	.line 60
	ld   r0,[fr,-20]
	ld   r14,[fr,-20]
	ld   r14,[r14,2060]
	ld   [r0,160],r14
	jp   #L94
L108:
	.line 61
	ld   r14,[fr,-20]
	ld   r0,[fr,-20]
	ld   r1,[r14,160]
	ld   r14,[r0,400]
	jc   ne,r1,r14,#L110
	.line 62
	ld   r0,[fr,-20]
	ld   r14,[fr,-20]
	ld   r14,[r14,196]
	ld   [r0,160],r14
	jp   #L94
L110:
	.line 63
	ld   r14,[fr,-20]
	ld   r0,[fr,-20]
	ld   r1,[r14,160]
	ld   r14,[r0,1708]
	jc   ne,r1,r14,#L112
	.line 64
	ld   r14,[fr,-20]
	add  r14,#0x910
	ld   i0,r14
	call &__ZNK6MAUtil10DictionaryIKiNS_4PairIS1_PN8NativeUI5LabelEEEE4sizeEv
	ld   r0,r14
	ld   r14,#0x0
	jc   eq,r0,r14,#L113
	.line 65
	ld   r0,[fr,-20]
	ld   r14,[fr,-20]
	ld   r14,[r14,2256]
	ld   [r0,160],r14
	jp   #L94
L113:
	.line 67
	ld   r0,[fr,-20]
	ld   r14,[fr,-20]
	ld   r14,[r14,1256]
	ld   [r0,160],r14
	jp   #L94
L112:
	.line 69
	ld   r14,[fr,-20]
	ld   r0,[fr,-20]
	ld   r1,[r14,160]
	ld   r14,[r0,196]
	jc   ne,r1,r14,#L94
	.line 70
	ld   r14,[fr,-20]
	ld   r14,[r14,156]
	add  r14,#0x57
	ld   i0,r14
	call &__ZN7Convert2trEi
	ld   d1,r14
	ld   r14,[fr,-20]
	ld   r14,[r14,156]
	add  r14,#0x59
	ld   i0,r14
	call &__ZN7Convert2trEi
	ld   d0,r14
	ld   r14,[fr,-20]
	ld   r14,[r14,156]
	add  r14,#0x5b
	ld   i0,r14
	call &__ZN7Convert2trEi
	ld   [sp],r14
	ld   i0,#LC15
	ld   i1,#LC15
	ld   i2,d1
	ld   i3,d0
	call &_maAlert
L94:
	.line 77
	ld   r14,[fr,-20]
	ld   i0,[fr,-20]
	ld   i1,[r14,160]
	call &__ZN8NativeUI6Screen13setMainWidgetEPNS_6WidgetE
	.line 78
	ld   r14,[fr,-20]
	ld   r14,[r14,160]
	ld   r14,[r14]
	add  r14,#0x6c
	ld   r0,[fr,-20]
	ld   r14,[r14]
	ld   i0,[r0,160]
	call r14
	.line 79
	ld   r14,[fr,-20]
	ld   r14,[r14,160]
	ld   r14,[r14]
	add  r14,#0x68
	ld   r0,[fr,-20]
	ld   r14,[r14]
	ld   i0,[r0,160]
	call r14
L91:
	.dlab LBE49
	.line 82
	add  sp,#0xc
	pop  rt,d1
	ret
Lscope33:
	.stabs	"maAlert:f(0,6)",36,0,7084,_maAlert
	.stabs	"title:p(20,7)",160,0,7084,-12
	.stabs	"message:p(20,7)",160,0,7084,-16
	.stabs	"button1:p(20,7)",160,0,7084,-20
	.stabs	"button2:p(20,7)",160,0,7084,-24
	.stabs	"button3:p(20,7)",160,0,7084,0

.func _maAlert, 5, void
	.stabs	"c:/MoSync/include/maapi.h",132,0,0,Ltext14
Ltext14:
	.line 7084
	push rt,fr
	sub  sp,#0x18
	ld   fr,sp
	add  fr,#0x20
	ld   [fr,-12],i0
	ld   [fr,-16],i1
	ld   [fr,-20],i2
	ld   [fr,-24],i3
	.dlab LBB50
	.line 7085
	ld   r14,[fr,-24]
	ld   [sp],r14
	ld   r14,[fr]
	ld   [sp,4],r14
	ld   i0,#0x19b
	ld   i1,[fr,-12]
	ld   i2,[fr,-16]
	ld   i3,[fr,-20]
	call &_maIOCtl
	.dlab LBE50
	.line 7086
	add  sp,#0x18
	pop  rt,fr
	ret
Lscope34:
	.set	%2=__ZN8AlertTab11connectUrl1Ev
	.stabs	"this:p(0,25)",160,0,83,-12
	.global	__ZThn84_N8AlertTab11connectUrl1Ev

.func __ZThn84_N8AlertTab11connectUrl1Ev, 1, void
	.stabs	"C:\\Users\\gdr\\Documents\\source\\mobile-app\\MobileApp\\/AlertTab.h",132,0,0,Ltext15
Ltext15:
	.line 39
	push rt,fr
	sub  sp,#0x4
	ld   fr,sp
	add  fr,#0xc
	ld   [fr,-12],i0
	.line 39
	ld   r14,[fr,-12]
	add  r14,#0xffffffac
	ld   i0,r14
	call &%2
	add  sp,#0x4
	pop  rt,fr
	ret
Lscope35:
	.stabs	"_ZN8AlertTab11connectUrl1Ev:F(0,6)",36,0,83,__ZN8AlertTab11connectUrl1Ev
	.stabs	"this:p(0,25)",160,0,83,-12
	.global	__ZN8AlertTab11connectUrl1Ev

.func __ZN8AlertTab11connectUrl1Ev, 1, void
	.stabs	"C:\\Users\\gdr\\Documents\\source\\mobile-app\\MobileApp\\AlertTab.cpp",132,0,0,Ltext16
Ltext16:
	.line 83
	push rt,fr
	sub  sp,#0x4
	ld   fr,sp
	add  fr,#0xc
	ld   [fr,-12],i0
	.dlab LBB51
	.line 84
	ld   r14,[fr,-12]
	ld   i0,[fr,-12]
	ld   i1,[r14,148]
	call &__ZN8NativeUI6Screen13setMainWidgetEPNS_6WidgetE
	.dlab LBE51
	.line 85
	add  sp,#0x4
	pop  rt,fr
	ret
Lscope36:
	.set	%3=__ZN8AlertTab13dataDownload1EPN6MAUtil7YAJLDom5ValueEiN11Connections9eFonctionE
	.stabs	"this:p(0,25)",160,0,88,-12
	.stabs	"root:p(24,35)",160,0,88,-16
	.stabs	"result:p(0,3)",160,0,88,-20
	.stabs	"fonction:p(98,1)",160,0,88,-24
	.global	__ZThn84_N8AlertTab13dataDownload1EPN6MAUtil7YAJLDom5ValueEiN11Connections9eFonctionE

.func __ZThn84_N8AlertTab13dataDownload1EPN6MAUtil7YAJLDom5ValueEiN11Connections9eFonctionE, 4, void
	.stabs	"C:\\Users\\gdr\\Documents\\source\\mobile-app\\MobileApp\\/AlertTab.h",132,0,0,Ltext17
Ltext17:
	.line 39
	push rt,fr
	sub  sp,#0x10
	ld   fr,sp
	add  fr,#0x18
	ld   [fr,-12],i0
	ld   [fr,-16],i1
	ld   [fr,-20],i2
	ld   [fr,-24],i3
	.line 39
	ld   r14,[fr,-12]
	add  r14,#0xffffffac
	ld   i0,r14
	ld   i1,[fr,-16]
	ld   i2,[fr,-20]
	ld   i3,[fr,-24]
	call &%3
	add  sp,#0x10
	pop  rt,fr
	ret
Lscope37:
.data
LC31:
	.ascii "AlertTab DataDownload1\0"
LC32:
	.ascii "AlertTab DataDownload result = %d\0"
LC33:
	.ascii "DNS resolution error.\0"
LC34:
	.ascii "http://192.168.1.50\0"
LC35:
	.ascii "/alerts/\0"
LC36:
	.ascii "ERREUR\0"
LC37:
	.ascii "ALERT not deleted\0"
.code
	.stabs	"_ZN8AlertTab13dataDownload1EPN6MAUtil7YAJLDom5ValueEiN11Connections9eFonctionE:F(0,6)",36,0,88,__ZN8AlertTab13dataDownload1EPN6MAUtil7YAJLDom5ValueEiN11Connections9eFonctionE
	.stabs	"this:p(0,25)",160,0,88,-16
	.stabs	"root:p(24,35)",160,0,88,-20
	.stabs	"result:p(0,3)",160,0,88,-24
	.stabs	"fonction:p(98,1)",160,0,88,-28
	.global	__ZN8AlertTab13dataDownload1EPN6MAUtil7YAJLDom5ValueEiN11Connections9eFonctionE

.func __ZN8AlertTab13dataDownload1EPN6MAUtil7YAJLDom5ValueEiN11Connections9eFonctionE, 4, void
	.stabs	"C:\\Users\\gdr\\Documents\\source\\mobile-app\\MobileApp\\AlertTab.cpp",132,0,0,Ltext18
Ltext18:
	.line 88
	push rt,d0
	sub  sp,#0x20
	ld   fr,sp
	add  fr,#0x2c
	ld   [fr,-16],i0
	ld   [fr,-20],i1
	ld   [fr,-24],i2
	ld   [fr,-28],i3
	.dlab LBB52
	.dlab LBB53
	.line 89
	ld   i0,#LC31
	call &_lprintfln
	.dlab LBB54
	.line 90
	ld   r0,[fr,-24]
	ld   r14,#0x1
	jc   eq,r0,r14,#L123
	ld   r0,[fr,-24]
	ld   r14,#0xcc
	jc   eq,r0,r14,#L123
	jp   #L122
L123:
	.line 91
	ld   r14,[fr,-28]
	case r14,#0x1,#0x10,#L143,#L144
.data
	.align 4
L143:
	.word L125
	.word L126
	.word L127
	.word L128
	.word L129
	.word L130
	.word L131
	.word L132
	.word L134
	.word L133
	.word L135
	.word L136
	.word L137
	.word L138
	.word L139
	.word L140
	.word L141
.code
L125:
	.line 93
	ld   i0,[fr,-16]
	ld   i1,[fr,-20]
	call &__ZN8AlertTab15parseJSONPluginEPN6MAUtil7YAJLDom5ValueE
	.line 94
	jp   #L144
L126:
	.line 96
	ld   i0,[fr,-16]
	ld   i1,[fr,-20]
	call &__ZN8AlertTab20parseJSONInformationEPN6MAUtil7YAJLDom5ValueE
	.line 97
	jp   #L144
L127:
	.line 99
	ld   i0,[fr,-16]
	ld   i1,[fr,-20]
	call &__ZN8AlertTab14parseJSONAlertEPN6MAUtil7YAJLDom5ValueE
	.line 100
	jp   #L144
L128:
	.line 102
	ld   i0,[fr,-16]
	ld   i1,[fr,-20]
	call &__ZN8AlertTab14parseJSONAssetEPN6MAUtil7YAJLDom5ValueE
	.line 103
	jp   #L144
L129:
	.line 105
	ld   i0,[fr,-16]
	ld   i1,[fr,-20]
	call &__ZN8AlertTab17parseJSONOperatorEPN6MAUtil7YAJLDom5ValueE
	.line 106
	jp   #L144
L130:
	.line 108
	ld   i0,[fr,-16]
	ld   i1,[fr,-20]
	call &__ZN8AlertTab17parseJSONUnitInfoEPN6MAUtil7YAJLDom5ValueE
	.line 109
	jp   #L144
L131:
	.line 111
	ld   i0,[fr,-16]
	ld   i1,[fr,-20]
	call &__ZN8AlertTab20parseJSONSubUnitInfoEPN6MAUtil7YAJLDom5ValueE
	.line 112
	jp   #L144
L132:
	.line 114
	ld   i0,[fr,-16]
	ld   i1,[fr,-20]
	call &__ZN8AlertTab28parseJSONUserForOrganisationEPN6MAUtil7YAJLDom5ValueE
	.line 115
	jp   #L144
L133:
	.line 117
	ld   i0,[fr,-16]
	ld   i1,[fr,-20]
	call &__ZN8AlertTab18parseJSONMediaTypeEPN6MAUtil7YAJLDom5ValueE
	.line 118
	jp   #L144
L134:
	.line 120
	ld   i0,[fr,-16]
	ld   i1,[fr,-20]
	call &__ZN8AlertTab19parseJSONMediaValueEPN6MAUtil7YAJLDom5ValueE
	.line 121
	jp   #L144
L135:
	.line 123
	ld   i0,[fr,-16]
	ld   i1,[fr,-20]
	call &__ZN8AlertTab21parseJSONPostMediaSpeEPN6MAUtil7YAJLDom5ValueE
	.line 124
	jp   #L144
L136:
	.line 126
	ld   i0,[fr,-16]
	ld   i1,[fr,-20]
	call &__ZN8AlertTab18parseJSONPostAlertEPN6MAUtil7YAJLDom5ValueE
	.line 127
	jp   #L144
L137:
	.line 129
	ld   i0,[fr,-16]
	ld   i1,[fr,-20]
	call &__ZN8AlertTab19parseJSONSearchInfoEPN6MAUtil7YAJLDom5ValueE
	.line 130
	jp   #L144
L138:
	.line 132
	ld   i0,[fr,-16]
	ld   i1,[fr,-20]
	call &__ZN8AlertTab18parseJSONAlertInfoEPN6MAUtil7YAJLDom5ValueE
	.line 133
	jp   #L144
L139:
	.line 135
	ld   i0,[fr,-16]
	ld   i1,[fr,-20]
	call &__ZN8AlertTab27parseJSONAlertRecipientListEPN6MAUtil7YAJLDom5ValueE
	.line 136
	jp   #L144
L140:
	.line 138
	ld   i0,[fr,-16]
	ld   i1,[fr,-20]
	call &__ZN8AlertTab19parseJSONUnitsTypesEPN6MAUtil7YAJLDom5ValueE
	.line 139
	jp   #L144
L141:
	.line 141
	ld   i0,[fr,-16]
	ld   i1,[fr,-20]
	call &__ZN8AlertTab20parseJSONDeleteAlertEPN6MAUtil7YAJLDom5ValueE
	.line 142
	jp   #L144
L122:
	.dlab LBB55
	.dlab LBB56
	.line 148
	ld   r0,[fr,-24]
	ld   r14,#0xfffffffc
	jc   ne,r0,r14,#L145
	.line 149
	ld   r14,[fr,-24]
	ld   [sp],r14
	ld   i0,#LC32
	call &_lprintfln
	.line 150
	ld   i0,#LC33
	call &_lprintfln
	jp   #L144
L145:
	.dlab LBB57
	.dlab LBB58
	.line 151
	ld   r0,[fr,-24]
	ld   r14,#0x194
	jc   ne,r0,r14,#L147
	ld   r0,[fr,-28]
	ld   r14,#0x3
	jc   ne,r0,r14,#L147
	.line 153
	ld   i0,#LC15
	call &_maGetTextSize
	xh r14,r14
	ld   r1,r14
	mul  r1,#0x4
	ld   r14,[fr,-16]
	ld   r14,[r14,200]
	ld   r14,[r14]
	add  r14,#0x64
	ld   r0,[fr,-16]
	ld   r14,[r14]
	ld   i0,[r0,200]
	ld   i1,r1
	call r14
	jp   #L144
L147:
	.dlab LBB59
	.dlab LBB60
	.line 156
	ld   r0,[fr,-24]
	ld   r14,#0x1f7
	jc   ne,r0,r14,#L149
	ld   r0,[fr,-28]
	ld   r14,#0xc
	jc   ne,r0,r14,#L149
	.line 157
	ld   r14,[fr,-16]
	ld   r14,[r14,156]
	add  r14,#0x61
	ld   i0,r14
	call &__ZN7Convert2trEi
	ld   d0,r14
	ld   r14,[fr,-16]
	ld   r14,[r14,156]
	add  r14,#0x63
	ld   i0,r14
	call &__ZN7Convert2trEi
	ld   i0,d0
	ld   i1,r14
	call &_maMessageBox
	.line 159
	ld   r0,[fr,-16]
	ld   r14,[fr,-16]
	ld   r14,[r14,196]
	ld   [r0,160],r14
	jp   #L144
L149:
	.dlab LBB61
	.dlab LBB62
	.line 160
	ld   r0,[fr,-24]
	ld   r14,#0x1
	jc   eq,r0,r14,#L151
	ld   r0,[fr,-28]
	ld   r14,#0xc
	jc   eq,r0,r14,#L152
	ld   r0,[fr,-28]
	ld   r14,#0x3
	jc   eq,r0,r14,#L152
	jp   #L151
L152:
	.dlab LBB63
	.line 161
	ld   r14,fr
	add  r14,#0xffffffe0
	ld   i0,r14
	ld   i1,#LC34
	call &__ZN6MAUtil11BasicStringIcEC1EPKc
	.line 162
	ld   r14,fr
	add  r14,#0xffffffdc
	ld   i0,r14
	ld   i1,#LC35
	call &__ZN6MAUtil11BasicStringIcEC1EPKc
	ld   r0,fr
	add  r0,#0xffffffdc
	ld   r14,fr
	add  r14,#0xffffffe0
	ld   i0,r14
	ld   i1,r0
	call &__ZN6MAUtil11BasicStringIcEpLERKS1_
	ld   r14,fr
	add  r14,#0xffffffdc
	ld   i0,r14
	call &__ZN6MAUtil11BasicStringIcED1Ev
	.line 163
	ld   r14,fr
	add  r14,#0xffffffe0
	ld   r0,[fr,-16]
	add  r0,#0x98
	ld   i0,r14
	ld   i1,r0
	call &__ZN6MAUtil11BasicStringIcEpLERKS1_
	.line 164
	ld   r14,fr
	add  r14,#0xffffffdc
	ld   r0,fr
	add  r0,#0xffffffe0
	ld   i0,r14
	ld   i1,r0
	call &__ZN6MAUtil11BasicStringIcEC1ERKS1_
	ld   d0,fr
	add  d0,#0xffffffdc
	ld   r14,fr
	add  r14,#0xffffffd8
	ld   i0,r14
	ld   i1,#LC15
	call &__ZN6MAUtil11BasicStringIcEC1EPKc
	ld   r14,fr
	add  r14,#0xffffffd8
	ld   r0,[fr,-16]
	add  r0,#0x54
	ld   [sp],r14
	ld   i0,r0
	ld   i1,d0
	ld   i2,#0x3
	ld   i3,#0x0
	call &__ZN11Connections10connectUrlEN6MAUtil11BasicStringIcEENS_9eFonctionEiS2_
	ld   r14,fr
	add  r14,#0xffffffd8
	ld   i0,r14
	call &__ZN6MAUtil11BasicStringIcED1Ev
	ld   r14,fr
	add  r14,#0xffffffdc
	ld   i0,r14
	call &__ZN6MAUtil11BasicStringIcED1Ev
	ld   r14,fr
	add  r14,#0xffffffe0
	ld   i0,r14
	call &__ZN6MAUtil11BasicStringIcED1Ev
	.dlab LBE63
	jp   #L144
L151:
	.line 166
	ld   r0,[fr,-24]
	ld   r14,#0x194
	jc   ne,r0,r14,#L154
	ld   r0,[fr,-28]
	ld   r14,#0xa
	jc   ne,r0,r14,#L154
	.line 167
	ld   r14,[fr,-16]
	ld   r14,[r14,156]
	add  r14,#0x71
	ld   i0,r14
	call &__ZN7Convert2trEi
	ld   i0,r14
	ld   i1,#0x0
	call &_maToast
	jp   #L144
L154:
	.line 168
	ld   r0,[fr,-24]
	ld   r14,#0x194
	jc   eq,r0,r14,#L156
	ld   r0,[fr,-28]
	ld   r14,#0x11
	jc   ne,r0,r14,#L156
	.line 169
	ld   i0,#LC36
	ld   i1,#LC37
	call &_maMessageBox
	jp   #L144
L156:
	.line 171
	ld   r14,[fr,-24]
	ld   [sp],r14
	ld   i0,#LC32
	call &_lprintfln
L144:
	.dlab LBE62
	.dlab LBE61
	.dlab LBE60
	.dlab LBE59
	.dlab LBE58
	.dlab LBE57
	.dlab LBE56
	.dlab LBE55
	.dlab LBE54
	.line 173
	ld   r0,[fr,-24]
	ld   r14,#0x1
	jc   eq,r0,r14,#L121
	ld   r0,[fr,-24]
	ld   r14,#0xcc
	jc   eq,r0,r14,#L121
	.line 174
	ld   r14,[fr,-16]
	ld   r14,[r14,160]
	ld   r14,[r14]
	add  r14,#0x64
	ld   r0,[fr,-16]
	ld   r14,[r14]
	ld   i0,[r0,160]
	ld   i1,#0x7530
	call r14
	.line 175
	ld   r14,[fr,-16]
	ld   i0,[fr,-16]
	ld   i1,[r14,160]
	call &__ZN8NativeUI6Screen13setMainWidgetEPNS_6WidgetE
	.line 176
	ld   r14,[fr,-16]
	ld   r14,[r14,160]
	ld   r14,[r14]
	add  r14,#0x6c
	ld   r0,[fr,-16]
	ld   r14,[r14]
	ld   i0,[r0,160]
	call r14
	.line 177
	ld   r14,[fr,-16]
	ld   r14,[r14,160]
	ld   r14,[r14]
	add  r14,#0x68
	ld   r0,[fr,-16]
	ld   r14,[r14]
	ld   i0,[r0,160]
	call r14
L121:
	.dlab LBE53
	.dlab LBE52
	.line 179
	add  sp,#0x20
	pop  rt,d0
	ret
	.stabs	"urlTmp:(13,1)",128,0,161,-32
	.stabn	192,0,0,LBB63-__ZN8AlertTab13dataDownload1EPN6MAUtil7YAJLDom5ValueEiN11Connections9eFonctionE
	.stabn	224,0,0,LBE63-__ZN8AlertTab13dataDownload1EPN6MAUtil7YAJLDom5ValueEiN11Connections9eFonctionE
Lscope38:
	.stabs	"maToast:f(0,3)",36,0,7103,_maToast
	.stabs	"message:p(20,7)",160,0,7103,-12
	.stabs	"duration:p(0,3)",160,0,7103,-16

.func _maToast, 2, int
	.stabs	"c:/MoSync/include/maapi.h",132,0,0,Ltext19
Ltext19:
	.line 7103
	push rt,fr
	sub  sp,#0x8
	ld   fr,sp
	add  fr,#0x10
	ld   [fr,-12],i0
	ld   [fr,-16],i1
	.dlab LBB64
	.line 7104
	ld   i0,#0x19c
	ld   i1,[fr,-12]
	ld   i2,[fr,-16]
	ld   i3,#0x0
	call &_maIOCtl
	.dlab LBE64
	.line 7105
	add  sp,#0x8
	pop  rt,fr
	ret
Lscope39:
	.stabs	"maMessageBox:f(0,6)",36,0,7067,_maMessageBox
	.stabs	"title:p(20,7)",160,0,7067,-12
	.stabs	"message:p(20,7)",160,0,7067,-16

.func _maMessageBox, 2, void
	.line 7067
	push rt,fr
	sub  sp,#0x8
	ld   fr,sp
	add  fr,#0x10
	ld   [fr,-12],i0
	ld   [fr,-16],i1
	.dlab LBB65
	.line 7068
	ld   i0,#0x19a
	ld   i1,[fr,-12]
	ld   i2,[fr,-16]
	ld   i3,#0x0
	call &_maIOCtl
	.dlab LBE65
	.line 7069
	add  sp,#0x8
	pop  rt,fr
	ret
Lscope40:
.data
LC38:
	.ascii "parseJSONDeleteAlert\0"
.code
	.stabs	"_ZN8AlertTab20parseJSONDeleteAlertEPN6MAUtil7YAJLDom5ValueE:F(0,6)",36,0,316,__ZN8AlertTab20parseJSONDeleteAlertEPN6MAUtil7YAJLDom5ValueE
	.stabs	"this:p(0,25)",160,0,316,-16
	.stabs	"root:p(24,35)",160,0,316,-20
	.global	__ZN8AlertTab20parseJSONDeleteAlertEPN6MAUtil7YAJLDom5ValueE

.func __ZN8AlertTab20parseJSONDeleteAlertEPN6MAUtil7YAJLDom5ValueE, 2, void
	.stabs	"C:\\Users\\gdr\\Documents\\source\\mobile-app\\MobileApp\\AlertTab.cpp",132,0,0,Ltext20
Ltext20:
	.line 316
	push rt,d0
	sub  sp,#0x1c
	ld   fr,sp
	add  fr,#0x28
	ld   [fr,-16],i0
	ld   [fr,-20],i1
	.dlab LBB66
	.dlab LBB67
	.line 317
	ld   i0,#LC38
	call &_lprintfln
	.line 318
	ld   r14,fr
	add  r14,#0xffffffe8
	ld   i0,r14
	ld   i1,#LC34
	call &__ZN6MAUtil11BasicStringIcEC1EPKc
	.line 319
	ld   r14,fr
	add  r14,#0xffffffe4
	ld   i0,r14
	ld   i1,#LC35
	call &__ZN6MAUtil11BasicStringIcEC1EPKc
	ld   r0,fr
	add  r0,#0xffffffe4
	ld   r14,fr
	add  r14,#0xffffffe8
	ld   i0,r14
	ld   i1,r0
	call &__ZN6MAUtil11BasicStringIcEpLERKS1_
	ld   r14,fr
	add  r14,#0xffffffe4
	ld   i0,r14
	call &__ZN6MAUtil11BasicStringIcED1Ev
	.line 320
	ld   r14,fr
	add  r14,#0xffffffe8
	ld   r0,[fr,-16]
	add  r0,#0x98
	ld   i0,r14
	ld   i1,r0
	call &__ZN6MAUtil11BasicStringIcEpLERKS1_
	.line 321
	ld   r14,fr
	add  r14,#0xffffffe4
	ld   r0,fr
	add  r0,#0xffffffe8
	ld   i0,r14
	ld   i1,r0
	call &__ZN6MAUtil11BasicStringIcEC1ERKS1_
	ld   d0,fr
	add  d0,#0xffffffe4
	ld   r14,fr
	add  r14,#0xffffffe0
	ld   i0,r14
	ld   i1,#LC15
	call &__ZN6MAUtil11BasicStringIcEC1EPKc
	ld   r14,fr
	add  r14,#0xffffffe0
	ld   r0,[fr,-16]
	add  r0,#0x54
	ld   [sp],r14
	ld   i0,r0
	ld   i1,d0
	ld   i2,#0x3
	ld   i3,#0x0
	call &__ZN11Connections10connectUrlEN6MAUtil11BasicStringIcEENS_9eFonctionEiS2_
	ld   r14,fr
	add  r14,#0xffffffe0
	ld   i0,r14
	call &__ZN6MAUtil11BasicStringIcED1Ev
	ld   r14,fr
	add  r14,#0xffffffe4
	ld   i0,r14
	call &__ZN6MAUtil11BasicStringIcED1Ev
	.dlab LBB68
	.line 322
	ld   r14,#0x0
	ld   [fr,-36],r14
L162:
	ld   r14,[fr,-16]
	add  r14,#0x140
	ld   i0,r14
	call &__ZNK6MAUtil10DictionaryIKiNS_4PairIS1_xEEE4sizeEv
	ld   r0,r14
	ld   r14,[fr,-36]
	jc   geu,r14,r0,#L163
	.line 323
	ld   r14,[fr,-16]
	add  r14,#0xd0
	ld   r0,fr
	add  r0,#0xffffffdc
	ld   i0,r14
	ld   i1,r0
	call &__ZN6MAUtil3MapIiPN8NativeUI12ListViewItemEEixERKi
	ld   r1,[r14]
	ld   r14,[fr,-16]
	ld   r14,[r14,204]
	ld   r14,[r14]
	add  r14,#0x3c
	ld   r0,[fr,-16]
	ld   r14,[r14]
	ld   i0,[r0,204]
	ld   i1,r1
	call r14
	.line 322
	ld   r14,[fr,-36]
	add  r14,#0x1
	ld   [fr,-36],r14
	jp   #L162
L163:
	.dlab LBE68
	.line 325
	ld   r14,[fr,-16]
	add  r14,#0x140
	ld   i0,r14
	call &__ZN6MAUtil10DictionaryIKiNS_4PairIS1_xEEE5clearEv
	ld   r14,fr
	add  r14,#0xffffffe8
	ld   i0,r14
	call &__ZN6MAUtil11BasicStringIcED1Ev
	.dlab LBE67
	.dlab LBE66
	.line 326
	add  sp,#0x1c
	pop  rt,d0
	ret
	.stabs	"urlTmp:(13,1)",128,0,318,-24
	.stabn	192,0,0,LBB67-__ZN8AlertTab20parseJSONDeleteAlertEPN6MAUtil7YAJLDom5ValueE
	.stabs	"idx0:(0,3)",128,0,322,-36
	.stabn	192,0,0,LBB68-__ZN8AlertTab20parseJSONDeleteAlertEPN6MAUtil7YAJLDom5ValueE
	.stabn	224,0,0,LBE68-__ZN8AlertTab20parseJSONDeleteAlertEPN6MAUtil7YAJLDom5ValueE
	.stabn	224,0,0,LBE67-__ZN8AlertTab20parseJSONDeleteAlertEPN6MAUtil7YAJLDom5ValueE
Lscope41:
.data
LC39:
	.ascii "parseJSONAlertRecipientList\0"
LC40:
	.ascii "Root node is not valid\12\0"
LC41:
	.ascii "Root node is valid :) \12\0"
LC42:
	.ascii "media_value\0"
LC43:
	.ascii "value\0"
.code
	.stabs	"_ZN8AlertTab27parseJSONAlertRecipientListEPN6MAUtil7YAJLDom5ValueE:F(0,6)",36,0,328,__ZN8AlertTab27parseJSONAlertRecipientListEPN6MAUtil7YAJLDom5ValueE
	.stabs	"this:p(0,25)",160,0,328,-24
	.stabs	"root:p(24,35)",160,0,328,-28
	.global	__ZN8AlertTab27parseJSONAlertRecipientListEPN6MAUtil7YAJLDom5ValueE

.func __ZN8AlertTab27parseJSONAlertRecipientListEPN6MAUtil7YAJLDom5ValueE, 2, void
	.line 328
	push rt,d2
	sub  sp,#0x28
	ld   fr,sp
	add  fr,#0x3c
	ld   [fr,-24],i0
	ld   [fr,-28],i1
	.dlab LBB69
	.dlab LBB70
	.line 329
	ld   i0,#LC39
	call &_lprintfln
	.line 330
	ld   r14,[fr,-24]
	add  r14,#0x1f8
	ld   i0,r14
	call &__ZNK6MAUtil10DictionaryIKiNS_4PairIS1_PN8NativeUI12ListViewItemEEEE4sizeEv
	ld   [fr,-32],r14
	.dlab LBB71
	.line 331
	ld   r0,#0x0
	ld   [fr,-36],r0
L166:
	ld   r0,[fr,-36]
	ld   r14,[fr,-32]
	jc   ge,r0,r14,#L167
	.line 332
	ld   r14,[fr,-24]
	add  r14,#0x1f8
	ld   r0,fr
	add  r0,#0xffffffdc
	ld   i0,r14
	ld   i1,r0
	call &__ZN6MAUtil3MapIiPN8NativeUI12ListViewItemEEixERKi
	ld   r1,[r14]
	ld   r14,[fr,-24]
	ld   r14,[r14,440]
	ld   r14,[r14]
	add  r14,#0x3c
	ld   r0,[fr,-24]
	ld   r14,[r14]
	ld   i0,[r0,440]
	ld   i1,r1
	call r14
	.line 333
	ld   r14,[fr,-24]
	add  r14,#0x1f8
	ld   r0,fr
	add  r0,#0xffffffdc
	ld   i0,r14
	ld   i1,r0
	call &__ZN6MAUtil3MapIiPN8NativeUI12ListViewItemEEixERKi
	ld   d0,[r14]
	ld   r14,[fr,-24]
	add  r14,#0x1c0
	ld   r0,fr
	add  r0,#0xffffffdc
	ld   i0,r14
	ld   i1,r0
	call &__ZN6MAUtil3MapIiPN8NativeUI5LabelEEixERKi
	ld   r0,[r14]
	ld   r14,[d0]
	add  r14,#0x3c
	ld   r14,[r14]
	ld   i0,d0
	ld   i1,r0
	call r14
	.line 334
	ld   r14,[fr,-24]
	add  r14,#0x1c0
	ld   r0,fr
	add  r0,#0xffffffdc
	ld   i0,r14
	ld   i1,r0
	call &__ZN6MAUtil3MapIiPN8NativeUI5LabelEEixERKi
	ld   r14,[r14]
	ld   [fr,-56],r14
	ld   r14,#0x0
	ld   r0,[fr,-56]
	jc   eq,r0,r14,#L170
	ld   r0,[fr,-56]
	ld   r14,[r0]
	add  r14,#0x4
	ld   r14,[r14]
	ld   i0,[fr,-56]
	call r14
L170:
	.line 335
	ld   r14,[fr,-24]
	add  r14,#0x1f8
	ld   r0,fr
	add  r0,#0xffffffdc
	ld   i0,r14
	ld   i1,r0
	call &__ZN6MAUtil3MapIiPN8NativeUI12ListViewItemEEixERKi
	ld   r14,[r14]
	ld   [fr,-60],r14
	ld   r14,#0x0
	ld   r0,[fr,-60]
	jc   eq,r0,r14,#L168
	ld   r0,[fr,-60]
	ld   r14,[r0]
	add  r14,#0x4
	ld   r14,[r14]
	ld   i0,[fr,-60]
	call r14
L168:
	.line 331
	ld   r14,[fr,-36]
	add  r14,#0x1
	ld   [fr,-36],r14
	jp   #L166
L167:
	.dlab LBE71
	.line 337
	ld   r14,[fr,-24]
	add  r14,#0x1c0
	ld   i0,r14
	call &__ZN6MAUtil10DictionaryIKiNS_4PairIS1_PN8NativeUI5LabelEEEE5clearEv
	.line 338
	ld   r14,[fr,-24]
	add  r14,#0x1f8
	ld   i0,r14
	call &__ZN6MAUtil10DictionaryIKiNS_4PairIS1_PN8NativeUI12ListViewItemEEEE5clearEv
	.dlab LBB72
	.line 340
	ld   r0,[fr,-28]
	ld   r14,#0x0
	jc   eq,r0,r14,#L174
	ld   i0,[fr,-28]
	call &__ZNK6MAUtil7YAJLDom5Value7getTypeEv
	ld   r0,r14
	ld   r14,#0x0
	jc   eq,r0,r14,#L174
	ld   i0,[fr,-28]
	call &__ZNK6MAUtil7YAJLDom5Value7getTypeEv
	ld   r0,r14
	ld   r14,#0x3
	jc   ne,r0,r14,#L174
	jp   #L173
L174:
	.line 342
	ld   i0,#LC40
	call &_lprintfln
	jp   #L165
L173:
	.dlab LBB73
	.line 344
	ld   i0,#LC41
	call &_lprintfln
	.dlab LBB74
	.line 345
	ld   r14,#0x0
	ld   [fr,-36],r14
L176:
	ld   r14,[fr,-28]
	ld   r14,[r14]
	add  r14,#0x28
	ld   r14,[r14]
	ld   i0,[fr,-28]
	call r14
	ld   r0,r14
	add  r0,#0xffffffff
	ld   r14,[fr,-36]
	jc   lt,r0,r14,#L177
	.dlab LBB75
	.dlab LBB76
	.line 346
	ld   r14,[fr,-28]
	ld   r14,[r14]
	add  r14,#0x1c
	ld   r14,[r14]
	ld   i0,[fr,-28]
	ld   i1,[fr,-36]
	call r14
	ld   [fr,-40],r14
	.line 348
	ld   r14,fr
	add  r14,#0xffffffd0
	ld   i0,r14
	ld   i1,#LC42
	call &__ZN6MAUtil11BasicStringIcEC1EPKc
	ld   r0,fr
	add  r0,#0xffffffd0
	ld   r14,[fr,-40]
	ld   r14,[r14]
	add  r14,#0x18
	ld   r14,[r14]
	ld   i0,[fr,-40]
	ld   i1,r0
	call r14
	ld   [fr,-44],r14
	ld   r14,fr
	add  r14,#0xffffffd0
	ld   i0,r14
	call &__ZN6MAUtil11BasicStringIcED1Ev
	.line 350
	ld   r14,[fr,-24]
	add  r14,#0x1f8
	ld   r0,fr
	add  r0,#0xffffffdc
	ld   i0,r14
	ld   i1,r0
	call &__ZN6MAUtil3MapIiPN8NativeUI12ListViewItemEEixERKi
	ld   d1,r14
	ld   i0,#0x30
	call &__Znwm
	ld   d0,r14
	ld   i0,d0
	call &__ZN8NativeUI12ListViewItemC1Ev
	ld   [d1],d0
	.line 351
	ld   r14,[fr,-24]
	add  r14,#0x1f8
	ld   r0,fr
	add  r0,#0xffffffdc
	ld   i0,r14
	ld   i1,r0
	call &__ZN6MAUtil3MapIiPN8NativeUI12ListViewItemEEixERKi
	ld   r1,[r14]
	ld   r14,[fr,-24]
	ld   r14,[r14,440]
	ld   r14,[r14]
	add  r14,#0x34
	ld   r0,[fr,-24]
	ld   r14,[r14]
	ld   i0,[r0,440]
	ld   i1,r1
	call r14
	.line 352
	ld   r14,[fr,-24]
	add  r14,#0x1c0
	ld   r0,fr
	add  r0,#0xffffffdc
	ld   i0,r14
	ld   i1,r0
	call &__ZN6MAUtil3MapIiPN8NativeUI5LabelEEixERKi
	ld   d2,r14
	ld   d0,fr
	add  d0,#0xffffffd0
	ld   r14,fr
	add  r14,#0xffffffcc
	ld   i0,r14
	ld   i1,#LC43
	call &__ZN6MAUtil11BasicStringIcEC1EPKc
	ld   r0,fr
	add  r0,#0xffffffcc
	ld   r14,[fr,-44]
	ld   r14,[r14]
	add  r14,#0x18
	ld   r14,[r14]
	ld   i0,[fr,-44]
	ld   i1,r0
	call r14
	ld   r0,r14
	ld   r14,[r0]
	add  r14,#0x8
	ld   r14,[r14]
	ld   i0,d0
	ld   i1,r0
	call r14
	ld   d1,fr
	add  d1,#0xffffffd0
	ld   i0,#0x30
	call &__Znwm
	ld   d0,r14
	ld   i0,d0
	ld   i1,d1
	call &__ZN8NativeUI5LabelC1EN6MAUtil11BasicStringIcEE
	ld   [d2],d0
	ld   r14,fr
	add  r14,#0xffffffd0
	ld   i0,r14
	call &__ZN6MAUtil11BasicStringIcED1Ev
	ld   r14,fr
	add  r14,#0xffffffcc
	ld   i0,r14
	call &__ZN6MAUtil11BasicStringIcED1Ev
	.line 354
	ld   r14,[fr,-24]
	add  r14,#0x1f8
	ld   r0,fr
	add  r0,#0xffffffdc
	ld   i0,r14
	ld   i1,r0
	call &__ZN6MAUtil3MapIiPN8NativeUI12ListViewItemEEixERKi
	ld   d0,[r14]
	ld   r14,[fr,-24]
	add  r14,#0x1c0
	ld   r0,fr
	add  r0,#0xffffffdc
	ld   i0,r14
	ld   i1,r0
	call &__ZN6MAUtil3MapIiPN8NativeUI5LabelEEixERKi
	ld   r0,[r14]
	ld   r14,[d0]
	add  r14,#0x34
	ld   r14,[r14]
	ld   i0,d0
	ld   i1,r0
	call r14
	.dlab LBE76
	.dlab LBE75
	.line 345
	ld   r14,[fr,-36]
	add  r14,#0x1
	ld   [fr,-36],r14
	jp   #L176
L177:
	.dlab LBE74
	.line 357
	ld   r14,[fr,-24]
	ld   i0,[fr,-24]
	ld   i1,[r14,400]
	call &__ZN8NativeUI6Screen13setMainWidgetEPNS_6WidgetE
	.line 358
	ld   r0,[fr,-24]
	ld   r14,[fr,-24]
	ld   r14,[r14,400]
	ld   [r0,160],r14
L165:
	.dlab LBE73
	.dlab LBE72
	.dlab LBE70
	.dlab LBE69
	.line 360
	add  sp,#0x28
	pop  rt,d2
	ret
	.stabs	"tmpSize:(0,3)",128,0,330,-32
	.stabn	192,0,0,LBB70-__ZN8AlertTab27parseJSONAlertRecipientListEPN6MAUtil7YAJLDom5ValueE
	.stabs	"idx1:(0,3)",128,0,331,-36
	.stabn	192,0,0,LBB71-__ZN8AlertTab27parseJSONAlertRecipientListEPN6MAUtil7YAJLDom5ValueE
	.stabn	224,0,0,LBE71-__ZN8AlertTab27parseJSONAlertRecipientListEPN6MAUtil7YAJLDom5ValueE
	.stabs	"idx:(0,3)",128,0,345,-36
	.stabn	192,0,0,LBB74-__ZN8AlertTab27parseJSONAlertRecipientListEPN6MAUtil7YAJLDom5ValueE
	.stabs	"valueTmp:(24,35)",128,0,346,-40
	.stabs	"valueTmp1:(24,35)",128,0,347,-44
	.stabn	192,0,0,LBB76-__ZN8AlertTab27parseJSONAlertRecipientListEPN6MAUtil7YAJLDom5ValueE
	.stabn	224,0,0,LBE76-__ZN8AlertTab27parseJSONAlertRecipientListEPN6MAUtil7YAJLDom5ValueE
	.stabn	224,0,0,LBE74-__ZN8AlertTab27parseJSONAlertRecipientListEPN6MAUtil7YAJLDom5ValueE
	.stabn	224,0,0,LBE70-__ZN8AlertTab27parseJSONAlertRecipientListEPN6MAUtil7YAJLDom5ValueE
Lscope42:
.data
LC44:
	.ascii "parseJSONUnitsTypes\0"
LC45:
	.ascii "name\0"
LC46:
	.ascii "number\0"
.code
	.stabs	"_ZN8AlertTab19parseJSONUnitsTypesEPN6MAUtil7YAJLDom5ValueE:F(0,6)",36,0,362,__ZN8AlertTab19parseJSONUnitsTypesEPN6MAUtil7YAJLDom5ValueE
	.stabs	"this:p(0,25)",160,0,362,-16
	.stabs	"root:p(24,35)",160,0,362,-20
	.global	__ZN8AlertTab19parseJSONUnitsTypesEPN6MAUtil7YAJLDom5ValueE

.func __ZN8AlertTab19parseJSONUnitsTypesEPN6MAUtil7YAJLDom5ValueE, 2, void
	.line 362
	push rt,d0
	sub  sp,#0x14
	ld   fr,sp
	add  fr,#0x20
	ld   [fr,-16],i0
	ld   [fr,-20],i1
	.dlab LBB77
	.line 363
	ld   i0,#LC44
	call &_lprintfln
	.line 364
	ld   r0,[fr,-20]
	ld   r14,#0x0
	jc   eq,r0,r14,#L181
	ld   i0,[fr,-20]
	call &__ZNK6MAUtil7YAJLDom5Value7getTypeEv
	ld   r0,r14
	ld   r14,#0x0
	jc   eq,r0,r14,#L181
	ld   i0,[fr,-20]
	call &__ZNK6MAUtil7YAJLDom5Value7getTypeEv
	ld   r0,r14
	ld   r14,#0x3
	jc   eq,r0,r14,#L181
	jp   #L180
L181:
	.line 366
	ld   i0,#LC40
	call &_lprintfln
	jp   #L179
L180:
	.line 368
	ld   i0,#LC41
	call &_lprintfln
	.line 371
	ld   d0,fr
	add  d0,#0xffffffe8
	ld   r14,fr
	add  r14,#0xffffffe4
	ld   i0,r14
	ld   i1,#LC45
	call &__ZN6MAUtil11BasicStringIcEC1EPKc
	ld   r0,fr
	add  r0,#0xffffffe4
	ld   r14,[fr,-20]
	ld   r14,[r14]
	add  r14,#0x18
	ld   r14,[r14]
	ld   i0,[fr,-20]
	ld   i1,r0
	call r14
	ld   r0,r14
	ld   r14,[r0]
	add  r14,#0x8
	ld   r14,[r14]
	ld   i0,d0
	ld   i1,r0
	call r14
	ld   d0,fr
	add  d0,#0xffffffe8
	ld   r14,fr
	add  r14,#0xffffffe0
	ld   i0,r14
	ld   i1,#LC46
	call &__ZN6MAUtil11BasicStringIcEC1EPKc
	ld   r14,fr
	add  r14,#0xffffffe0
	ld   i0,d0
	ld   i1,r14
	call &__ZNK6MAUtil11BasicStringIcEeqERKS1_
	ld   d0,r14
	ld   r14,fr
	add  r14,#0xffffffe0
	ld   i0,r14
	call &__ZN6MAUtil11BasicStringIcED1Ev
	ld   r14,fr
	add  r14,#0xffffffe8
	ld   i0,r14
	call &__ZN6MAUtil11BasicStringIcED1Ev
	ld   r14,fr
	add  r14,#0xffffffe4
	ld   i0,r14
	call &__ZN6MAUtil11BasicStringIcED1Ev
	ld   r0,d0
	and  r0,#0xff  ; zero extend
	ld   r14,#0x0
	jc   eq,r0,r14,#L183
	.line 372
	ld   r14,[fr,-16]
	ld   r14,[r14,1340]
	ld   r14,[r14]
	add  r14,#0xc0
	ld   r0,[fr,-16]
	ld   r14,[r14]
	ld   i0,[r0,1340]
	ld   i1,#0x2
	call r14
	jp   #L184
L183:
	.line 374
	ld   r14,[fr,-16]
	ld   r14,[r14,1340]
	ld   r14,[r14]
	add  r14,#0xc0
	ld   r0,[fr,-16]
	ld   r14,[r14]
	ld   i0,[r0,1340]
	ld   i1,#0x0
	call r14
L184:
	.line 376
	ld   r14,[fr,-16]
	ld   i0,[fr,-16]
	ld   i1,[r14,1256]
	call &__ZN8NativeUI6Screen13setMainWidgetEPNS_6WidgetE
	.line 377
	ld   r0,[fr,-16]
	ld   r14,[fr,-16]
	ld   r14,[r14,1256]
	ld   [r0,160],r14
L179:
	.dlab LBE77
	.line 379
	add  sp,#0x14
	pop  rt,d0
	ret
Lscope43:
.data
LC47:
	.ascii "parseJSONSearchInfo\0"
LC48:
	.ascii "pos_key_value\0"
LC49:
	.ascii "N/A\0"
LC50:
	.ascii "/units/\0"
LC51:
	.ascii "/types/\0"
.code
	.stabs	"_ZN8AlertTab19parseJSONSearchInfoEPN6MAUtil7YAJLDom5ValueE:F(0,6)",36,0,381,__ZN8AlertTab19parseJSONSearchInfoEPN6MAUtil7YAJLDom5ValueE
	.stabs	"this:p(0,25)",160,0,381,-24
	.stabs	"root:p(24,35)",160,0,381,-28
	.global	__ZN8AlertTab19parseJSONSearchInfoEPN6MAUtil7YAJLDom5ValueE

.func __ZN8AlertTab19parseJSONSearchInfoEPN6MAUtil7YAJLDom5ValueE, 2, void
	.line 381
	push rt,d2
	sub  sp,#0x20
	ld   fr,sp
	add  fr,#0x34
	ld   [fr,-24],i0
	ld   [fr,-28],i1
	.dlab LBB78
	.dlab LBB79
	.line 382
	ld   i0,#LC47
	call &_lprintfln
	.dlab LBB80
	.line 383
	ld   r0,[fr,-28]
	ld   r14,#0x0
	jc   eq,r0,r14,#L187
	ld   i0,[fr,-28]
	call &__ZNK6MAUtil7YAJLDom5Value7getTypeEv
	ld   r0,r14
	ld   r14,#0x0
	jc   eq,r0,r14,#L187
	ld   i0,[fr,-28]
	call &__ZNK6MAUtil7YAJLDom5Value7getTypeEv
	ld   r0,r14
	ld   r14,#0x3
	jc   eq,r0,r14,#L187
	jp   #L186
L187:
	.line 385
	ld   i0,#LC40
	call &_lprintfln
	jp   #L185
L186:
	.dlab LBB81
	.line 387
	ld   i0,#LC41
	call &_lprintfln
	.line 390
	ld   r14,fr
	add  r14,#0xffffffe0
	ld   i0,r14
	ld   i1,#LC48
	call &__ZN6MAUtil11BasicStringIcEC1EPKc
	ld   r0,fr
	add  r0,#0xffffffe0
	ld   r14,[fr,-28]
	ld   r14,[r14]
	add  r14,#0x18
	ld   r14,[r14]
	ld   i0,[fr,-28]
	ld   i1,r0
	call r14
	ld   r0,r14
	ld   r14,[r0]
	add  r14,#0x10
	ld   r14,[r14]
	ld   i0,r0
	call r14
	ld   d0,r14
	ld   r14,fr
	add  r14,#0xffffffe0
	ld   i0,r14
	call &__ZN6MAUtil11BasicStringIcED1Ev
	ld   r14,#0x0
	jc   ne,d0,r14,#L189
	.line 392
	ld   r14,[fr,-24]
	ld   r14,[r14,1324]
	ld   r14,[r14]
	add  r14,#0xb0
	ld   r0,[fr,-24]
	ld   r14,[r14]
	ld   i0,[r0,1324]
	ld   i1,#0x606060
	call r14
	.line 393
	ld   r14,fr
	add  r14,#0xffffffdc
	ld   i0,r14
	ld   i1,#LC49
	call &__ZN6MAUtil11BasicStringIcEC1EPKc
	ld   r1,fr
	add  r1,#0xffffffdc
	ld   r14,[fr,-24]
	ld   r14,[r14,1328]
	ld   r14,[r14]
	add  r14,#0xa0
	ld   r0,[fr,-24]
	ld   r14,[r14]
	ld   i0,[r0,1328]
	ld   i1,r1
	call r14
	ld   r14,fr
	add  r14,#0xffffffdc
	ld   i0,r14
	call &__ZN6MAUtil11BasicStringIcED1Ev
	.line 394
	ld   r14,[fr,-24]
	ld   r14,[r14,1328]
	ld   r14,[r14]
	add  r14,#0x8c
	ld   r0,[fr,-24]
	ld   r14,[r14]
	ld   i0,[r0,1328]
	ld   i1,#0x0
	call r14
	jp   #L190
L189:
	.line 397
	ld   r14,[fr,-24]
	ld   r14,[r14,1324]
	ld   r14,[r14]
	add  r14,#0xb0
	ld   r0,[fr,-24]
	ld   r14,[r14]
	ld   i0,[r0,1324]
	ld   i1,#0xc8c8c8
	call r14
	.line 398
	ld   r14,fr
	add  r14,#0xffffffdc
	ld   i0,r14
	ld   i1,#LC15
	call &__ZN6MAUtil11BasicStringIcEC1EPKc
	ld   r1,fr
	add  r1,#0xffffffdc
	ld   r14,[fr,-24]
	ld   r14,[r14,1328]
	ld   r14,[r14]
	add  r14,#0xa0
	ld   r0,[fr,-24]
	ld   r14,[r14]
	ld   i0,[r0,1328]
	ld   i1,r1
	call r14
	ld   r14,fr
	add  r14,#0xffffffdc
	ld   i0,r14
	call &__ZN6MAUtil11BasicStringIcED1Ev
	.line 399
	ld   r14,[fr,-24]
	ld   r14,[r14,1328]
	ld   r14,[r14]
	add  r14,#0x8c
	ld   r0,[fr,-24]
	ld   r14,[r14]
	ld   i0,[r0,1328]
	ld   i1,#0x1
	call r14
L190:
	.line 401
	ld   r14,fr
	add  r14,#0xffffffdc
	ld   i0,r14
	ld   i1,#LC34
	call &__ZN6MAUtil11BasicStringIcEC1EPKc
	.line 402
	ld   d1,fr
	add  d1,#0xffffffe0
	ld   d2,fr
	add  d2,#0xffffffd8
	ld   d0,fr
	add  d0,#0xffffffd4
	ld   r14,[fr,-24]
	add  r14,#0x408
	ld   r0,[fr,-24]
	add  r0,#0xac
	ld   i0,r14
	ld   i1,r0
	call &__ZN6MAUtil3MapIixEixERKi
	ld   i0,d0
	ld   i1,[r14]
	ld   i2,[r14,4]
	call &__ZN7Convert8toStringEx
	ld   r14,fr
	add  r14,#0xffffffd4
	ld   i0,d2
	ld   i1,#LC50
	ld   i2,r14
	call &__ZN6MAUtilplIcEENS_11BasicStringIT_EEPKS2_RKS3_
	ld   d0,fr
	add  d0,#0xffffffd8
	ld   r14,fr
	add  r14,#0xffffffd0
	ld   i0,r14
	ld   i1,#LC51
	call &__ZN6MAUtil11BasicStringIcEC1EPKc
	ld   r14,fr
	add  r14,#0xffffffd0
	ld   i0,d1
	ld   i1,d0
	ld   i2,r14
	call &__ZNK6MAUtil11BasicStringIcEplERKS1_
	ld   r0,fr
	add  r0,#0xffffffe0
	ld   r14,fr
	add  r14,#0xffffffdc
	ld   i0,r14
	ld   i1,r0
	call &__ZN6MAUtil11BasicStringIcEpLERKS1_
	ld   r14,fr
	add  r14,#0xffffffe0
	ld   i0,r14
	call &__ZN6MAUtil11BasicStringIcED1Ev
	ld   r14,fr
	add  r14,#0xffffffd0
	ld   i0,r14
	call &__ZN6MAUtil11BasicStringIcED1Ev
	ld   r14,fr
	add  r14,#0xffffffd8
	ld   i0,r14
	call &__ZN6MAUtil11BasicStringIcED1Ev
	ld   r14,fr
	add  r14,#0xffffffd4
	ld   i0,r14
	call &__ZN6MAUtil11BasicStringIcED1Ev
	.line 405
	ld   r14,fr
	add  r14,#0xffffffdc
	ld   r0,[fr,-24]
	add  r0,#0x98
	ld   i0,r14
	ld   i1,r0
	call &__ZN6MAUtil11BasicStringIcEpLERKS1_
	.line 406
	ld   r14,fr
	add  r14,#0xffffffe0
	ld   r0,fr
	add  r0,#0xffffffdc
	ld   i0,r14
	ld   i1,r0
	call &__ZN6MAUtil11BasicStringIcEC1ERKS1_
	ld   d0,fr
	add  d0,#0xffffffe0
	ld   r14,fr
	add  r14,#0xffffffd0
	ld   i0,r14
	ld   i1,#LC15
	call &__ZN6MAUtil11BasicStringIcEC1EPKc
	ld   r14,fr
	add  r14,#0xffffffd0
	ld   r0,[fr,-24]
	add  r0,#0x54
	ld   [sp],r14
	ld   i0,r0
	ld   i1,d0
	ld   i2,#0x10
	ld   i3,#0x0
	call &__ZN11Connections10connectUrlEN6MAUtil11BasicStringIcEENS_9eFonctionEiS2_
	ld   r14,fr
	add  r14,#0xffffffd0
	ld   i0,r14
	call &__ZN6MAUtil11BasicStringIcED1Ev
	ld   r14,fr
	add  r14,#0xffffffe0
	ld   i0,r14
	call &__ZN6MAUtil11BasicStringIcED1Ev
	ld   r14,fr
	add  r14,#0xffffffdc
	ld   i0,r14
	call &__ZN6MAUtil11BasicStringIcED1Ev
L185:
	.dlab LBE81
	.dlab LBE80
	.dlab LBE79
	.dlab LBE78
	.line 408
	add  sp,#0x20
	pop  rt,d2
	ret
	.stabs	"urlTmp:(13,1)",128,0,401,-36
	.stabn	192,0,0,LBB81-__ZN8AlertTab19parseJSONSearchInfoEPN6MAUtil7YAJLDom5ValueE
	.stabn	224,0,0,LBE81-__ZN8AlertTab19parseJSONSearchInfoEPN6MAUtil7YAJLDom5ValueE
Lscope44:
.data
LC52:
	.ascii "parseJSONPostAlert\0"
.code
	.stabs	"_ZN8AlertTab18parseJSONPostAlertEPN6MAUtil7YAJLDom5ValueE:F(0,6)",36,0,410,__ZN8AlertTab18parseJSONPostAlertEPN6MAUtil7YAJLDom5ValueE
	.stabs	"this:p(0,25)",160,0,410,-16
	.stabs	"root:p(24,35)",160,0,410,-20
	.global	__ZN8AlertTab18parseJSONPostAlertEPN6MAUtil7YAJLDom5ValueE

.func __ZN8AlertTab18parseJSONPostAlertEPN6MAUtil7YAJLDom5ValueE, 2, void
	.line 410
	push rt,d0
	sub  sp,#0x28
	ld   fr,sp
	add  fr,#0x34
	ld   [fr,-16],i0
	ld   [fr,-20],i1
	.dlab LBB82
	.dlab LBB83
	.line 411
	ld   i0,#LC52
	call &_lprintfln
	.line 412
	ld   r14,fr
	add  r14,#0xffffffe8
	ld   i0,r14
	ld   i1,#LC34
	call &__ZN6MAUtil11BasicStringIcEC1EPKc
	.line 413
	ld   r14,fr
	add  r14,#0xffffffe4
	ld   i0,r14
	ld   i1,#LC35
	call &__ZN6MAUtil11BasicStringIcEC1EPKc
	ld   r0,fr
	add  r0,#0xffffffe4
	ld   r14,fr
	add  r14,#0xffffffe8
	ld   i0,r14
	ld   i1,r0
	call &__ZN6MAUtil11BasicStringIcEpLERKS1_
	ld   r14,fr
	add  r14,#0xffffffe4
	ld   i0,r14
	call &__ZN6MAUtil11BasicStringIcED1Ev
	.line 414
	ld   r14,fr
	add  r14,#0xffffffe8
	ld   r0,[fr,-16]
	add  r0,#0x98
	ld   i0,r14
	ld   i1,r0
	call &__ZN6MAUtil11BasicStringIcEpLERKS1_
	.line 415
	ld   r14,fr
	add  r14,#0xffffffe4
	ld   r0,fr
	add  r0,#0xffffffe8
	ld   i0,r14
	ld   i1,r0
	call &__ZN6MAUtil11BasicStringIcEC1ERKS1_
	ld   d0,fr
	add  d0,#0xffffffe4
	ld   r14,fr
	add  r14,#0xffffffe0
	ld   i0,r14
	ld   i1,#LC15
	call &__ZN6MAUtil11BasicStringIcEC1EPKc
	ld   r14,fr
	add  r14,#0xffffffe0
	ld   r0,[fr,-16]
	add  r0,#0x54
	ld   [sp],r14
	ld   i0,r0
	ld   i1,d0
	ld   i2,#0x3
	ld   i3,#0x0
	call &__ZN11Connections10connectUrlEN6MAUtil11BasicStringIcEENS_9eFonctionEiS2_
	ld   r14,fr
	add  r14,#0xffffffe0
	ld   i0,r14
	call &__ZN6MAUtil11BasicStringIcED1Ev
	ld   r14,fr
	add  r14,#0xffffffe4
	ld   i0,r14
	call &__ZN6MAUtil11BasicStringIcED1Ev
	.line 417
	ld   r14,[fr,-16]
	add  r14,#0x990
	ld   i0,r14
	call &__ZNK6MAUtil10DictionaryIKiNS_4PairIS1_iEEE4sizeEv
	ld   [fr,-36],r14
	.dlab LBB84
	.line 418
	ld   r0,#0x0
	ld   [fr,-40],r0
L192:
	ld   r0,[fr,-40]
	ld   r14,[fr,-36]
	jc   ge,r0,r14,#L193
	.line 419
	ld   r14,[fr,-16]
	add  r14,#0x8d8
	ld   r0,fr
	add  r0,#0xffffffd8
	ld   i0,r14
	ld   i1,r0
	call &__ZN6MAUtil3MapIiPN8NativeUI12ListViewItemEEixERKi
	ld   r1,[r14]
	ld   r14,[fr,-16]
	ld   r14,[r14,2260]
	ld   r14,[r14]
	add  r14,#0x3c
	ld   r0,[fr,-16]
	ld   r14,[r14]
	ld   i0,[r0,2260]
	ld   i1,r1
	call r14
	.line 420
	ld   r14,[fr,-16]
	add  r14,#0x8d8
	ld   r0,fr
	add  r0,#0xffffffd8
	ld   i0,r14
	ld   i1,r0
	call &__ZN6MAUtil3MapIiPN8NativeUI12ListViewItemEEixERKi
	ld   d0,[r14]
	ld   r14,[fr,-16]
	add  r14,#0x910
	ld   r0,fr
	add  r0,#0xffffffd8
	ld   i0,r14
	ld   i1,r0
	call &__ZN6MAUtil3MapIiPN8NativeUI5LabelEEixERKi
	ld   r0,[r14]
	ld   r14,[d0]
	add  r14,#0x3c
	ld   r14,[r14]
	ld   i0,d0
	ld   i1,r0
	call r14
	.line 421
	ld   r14,[fr,-16]
	add  r14,#0x910
	ld   r0,fr
	add  r0,#0xffffffd8
	ld   i0,r14
	ld   i1,r0
	call &__ZN6MAUtil3MapIiPN8NativeUI5LabelEEixERKi
	ld   r14,[r14]
	ld   [fr,-44],r14
	ld   r14,#0x0
	ld   r0,[fr,-44]
	jc   eq,r0,r14,#L196
	ld   r0,[fr,-44]
	ld   r14,[r0]
	add  r14,#0x4
	ld   r14,[r14]
	ld   i0,[fr,-44]
	call r14
L196:
	.line 422
	ld   r14,[fr,-16]
	add  r14,#0x8d8
	ld   r0,fr
	add  r0,#0xffffffd8
	ld   i0,r14
	ld   i1,r0
	call &__ZN6MAUtil3MapIiPN8NativeUI12ListViewItemEEixERKi
	ld   r14,[r14]
	ld   [fr,-48],r14
	ld   r14,#0x0
	ld   r0,[fr,-48]
	jc   eq,r0,r14,#L194
	ld   r0,[fr,-48]
	ld   r14,[r0]
	add  r14,#0x4
	ld   r14,[r14]
	ld   i0,[fr,-48]
	call r14
L194:
	.line 418
	ld   r14,[fr,-40]
	add  r14,#0x1
	ld   [fr,-40],r14
	jp   #L192
L193:
	.dlab LBE84
	.line 424
	ld   r14,[fr,-16]
	add  r14,#0x910
	ld   i0,r14
	call &__ZN6MAUtil10DictionaryIKiNS_4PairIS1_PN8NativeUI5LabelEEEE5clearEv
	.line 425
	ld   r14,[fr,-16]
	add  r14,#0x8d8
	ld   i0,r14
	call &__ZN6MAUtil10DictionaryIKiNS_4PairIS1_PN8NativeUI12ListViewItemEEEE5clearEv
	.line 426
	ld   r14,[fr,-16]
	add  r14,#0x9c8
	ld   i0,r14
	call &__ZN6MAUtil10DictionaryIKiNS_4PairIS1_xEEE5clearEv
	.line 427
	ld   r14,[fr,-16]
	add  r14,#0x958
	ld   i0,r14
	call &__ZN6MAUtil10DictionaryIKiNS_4PairIS1_xEEE5clearEv
	.line 428
	ld   r14,[fr,-16]
	add  r14,#0x990
	ld   i0,r14
	call &__ZN6MAUtil10DictionaryIKiNS_4PairIS1_iEEE5clearEv
	.line 429
	ld   r14,[fr,-16]
	ld   r0,#0xffffffff
	ld   [r14,164],r0
	.line 430
	ld   r14,[fr,-16]
	ld   r0,#0xffffffff
	ld   [r14,168],r0
	.line 431
	ld   r14,[fr,-16]
	ld   r0,#0xffffffff
	ld   [r14,172],r0
	.line 432
	ld   r14,[fr,-16]
	ld   r0,#0xffffffff
	ld   [r14,176],r0
	.line 433
	ld   r14,[fr,-16]
	ld   r0,#0xffffffff
	ld   [r14,180],r0
	.line 434
	ld   r14,[fr,-16]
	ld   r0,#0xffffffff
	ld   [r14,184],r0
	.line 435
	ld   r14,[fr,-16]
	ld   r0,#0xffffffff
	ld   [r14,188],r0
	.line 436
	ld   r14,[fr,-16]
	ld   r0,#0xffffffff
	ld   [r14,192],r0
	ld   r14,fr
	add  r14,#0xffffffe8
	ld   i0,r14
	call &__ZN6MAUtil11BasicStringIcED1Ev
	.dlab LBE83
	.dlab LBE82
	.line 437
	add  sp,#0x28
	pop  rt,d0
	ret
	.stabs	"urlTmp:(13,1)",128,0,412,-24
	.stabs	"index:(0,3)",128,0,417,-36
	.stabn	192,0,0,LBB83-__ZN8AlertTab18parseJSONPostAlertEPN6MAUtil7YAJLDom5ValueE
	.stabs	"idx:(0,3)",128,0,418,-40
	.stabn	192,0,0,LBB84-__ZN8AlertTab18parseJSONPostAlertEPN6MAUtil7YAJLDom5ValueE
	.stabn	224,0,0,LBE84-__ZN8AlertTab18parseJSONPostAlertEPN6MAUtil7YAJLDom5ValueE
	.stabn	224,0,0,LBE83-__ZN8AlertTab18parseJSONPostAlertEPN6MAUtil7YAJLDom5ValueE
Lscope45:
.data
LC53:
	.ascii "parseJSONAlertInfo\0"
LC54:
	.ascii "alert\0"
LC55:
	.ascii " - \0"
LC56:
	.ascii "criteria\0"
LC57:
	.ascii "alert_value\0"
LC58:
	.ascii "information_unit\0"
LC59:
	.ascii "key_value\0"
LC60:
	.ascii "/recipients/\0"
.code
	.stabs	"_ZN8AlertTab18parseJSONAlertInfoEPN6MAUtil7YAJLDom5ValueE:F(0,6)",36,0,439,__ZN8AlertTab18parseJSONAlertInfoEPN6MAUtil7YAJLDom5ValueE
	.stabs	"this:p(0,25)",160,0,439,-24
	.stabs	"root:p(24,35)",160,0,439,-28
	.global	__ZN8AlertTab18parseJSONAlertInfoEPN6MAUtil7YAJLDom5ValueE

.func __ZN8AlertTab18parseJSONAlertInfoEPN6MAUtil7YAJLDom5ValueE, 2, void
	.line 439
	push rt,d2
	sub  sp,#0x3c
	ld   fr,sp
	add  fr,#0x50
	ld   [fr,-24],i0
	ld   [fr,-28],i1
	.dlab LBB85
	.dlab LBB86
	.line 440
	ld   i0,#LC53
	call &_lprintfln
	.dlab LBB87
	.line 441
	ld   r0,[fr,-28]
	ld   r14,#0x0
	jc   eq,r0,r14,#L201
	ld   i0,[fr,-28]
	call &__ZNK6MAUtil7YAJLDom5Value7getTypeEv
	ld   r0,r14
	ld   r14,#0x0
	jc   eq,r0,r14,#L201
	ld   i0,[fr,-28]
	call &__ZNK6MAUtil7YAJLDom5Value7getTypeEv
	ld   r0,r14
	ld   r14,#0x3
	jc   eq,r0,r14,#L201
	jp   #L200
L201:
	.line 443
	ld   i0,#LC40
	call &_lprintfln
	jp   #L199
L200:
	.dlab LBB88
	.line 445
	ld   i0,#LC41
	call &_lprintfln
	.line 447
	ld   r14,fr
	add  r14,#0xffffffdc
	ld   i0,r14
	ld   i1,#LC54
	call &__ZN6MAUtil11BasicStringIcEC1EPKc
	ld   r0,fr
	add  r0,#0xffffffdc
	ld   r14,[fr,-28]
	ld   r14,[r14]
	add  r14,#0x18
	ld   r14,[r14]
	ld   i0,[fr,-28]
	ld   i1,r0
	call r14
	ld   [fr,-32],r14
	ld   r14,fr
	add  r14,#0xffffffdc
	ld   i0,r14
	call &__ZN6MAUtil11BasicStringIcED1Ev
	.line 449
	ld   d0,fr
	add  d0,#0xffffffdc
	ld   r14,fr
	add  r14,#0xffffffd8
	ld   i0,r14
	ld   i1,#LC45
	call &__ZN6MAUtil11BasicStringIcEC1EPKc
	ld   r0,fr
	add  r0,#0xffffffd8
	ld   r14,[fr,-32]
	ld   r14,[r14]
	add  r14,#0x18
	ld   r14,[r14]
	ld   i0,[fr,-32]
	ld   i1,r0
	call r14
	ld   r0,r14
	ld   r14,[r0]
	add  r14,#0x8
	ld   r14,[r14]
	ld   i0,d0
	ld   i1,r0
	call r14
	ld   r14,fr
	add  r14,#0xffffffd8
	ld   i0,r14
	call &__ZN6MAUtil11BasicStringIcED1Ev
	.line 450
	ld   r14,fr
	add  r14,#0xffffffd8
	ld   r0,fr
	add  r0,#0xffffffdc
	ld   i0,r14
	ld   i1,r0
	call &__ZN6MAUtil11BasicStringIcEC1ERKS1_
	.line 451
	ld   r14,fr
	add  r14,#0xffffffd4
	ld   r0,fr
	add  r0,#0xffffffdc
	ld   i0,r14
	ld   i1,r0
	call &__ZN6MAUtil11BasicStringIcEC1ERKS1_
	.line 452
	ld   r14,fr
	add  r14,#0xffffffd0
	ld   i0,r14
	ld   i1,#LC55
	call &__ZN6MAUtil11BasicStringIcEC1EPKc
	ld   r0,fr
	add  r0,#0xffffffd0
	ld   r14,fr
	add  r14,#0xffffffdc
	ld   i0,r14
	ld   i1,r0
	ld   i2,#0x0
	call &__ZNK6MAUtil11BasicStringIcE4findERKS1_j
	ld   r0,r14
	ld   r14,fr
	add  r14,#0xffffffdc
	ld   i0,r14
	ld   i1,r0
	call &__ZN6MAUtil11BasicStringIcE6resizeEi
	ld   r14,fr
	add  r14,#0xffffffd0
	ld   i0,r14
	call &__ZN6MAUtil11BasicStringIcED1Ev
	.line 453
	ld   r14,fr
	add  r14,#0xffffffdc
	ld   i0,r14
	call &__ZNK6MAUtil11BasicStringIcE4sizeEv
	ld   r0,r14
	add  r0,#0x3
	ld   r14,fr
	add  r14,#0xffffffd8
	ld   i0,r14
	ld   i1,#0x0
	ld   i2,r0
	call &__ZN6MAUtil11BasicStringIcE6removeEii
	.line 454
	ld   r14,fr
	add  r14,#0xffffffd0
	ld   i0,r14
	ld   i1,#LC55
	call &__ZN6MAUtil11BasicStringIcEC1EPKc
	ld   r0,fr
	add  r0,#0xffffffd0
	ld   r14,fr
	add  r14,#0xffffffd8
	ld   i0,r14
	ld   i1,r0
	ld   i2,#0x0
	call &__ZNK6MAUtil11BasicStringIcE4findERKS1_j
	ld   r0,r14
	ld   r14,fr
	add  r14,#0xffffffd8
	ld   i0,r14
	ld   i1,r0
	call &__ZN6MAUtil11BasicStringIcE6resizeEi
	ld   r14,fr
	add  r14,#0xffffffd0
	ld   i0,r14
	call &__ZN6MAUtil11BasicStringIcED1Ev
	.line 455
	ld   r14,fr
	add  r14,#0xffffffd8
	ld   i0,r14
	call &__ZNK6MAUtil11BasicStringIcE4sizeEv
	ld   d0,r14
	ld   r14,fr
	add  r14,#0xffffffdc
	ld   i0,r14
	call &__ZNK6MAUtil11BasicStringIcE4sizeEv
	add  r14,d0
	ld   r0,r14
	add  r0,#0x6
	ld   r14,fr
	add  r14,#0xffffffd4
	ld   i0,r14
	ld   i1,#0x0
	ld   i2,r0
	call &__ZN6MAUtil11BasicStringIcE6removeEii
	.line 456
	ld   d0,fr
	add  d0,#0xffffffd0
	ld   r14,[fr,-24]
	ld   r14,[r14,156]
	add  r14,#0x75
	ld   i0,r14
	call &__ZN7Convert2trEi
	ld   r0,fr
	add  r0,#0xffffffdc
	ld   i0,d0
	ld   i1,r14
	ld   i2,r0
	call &__ZN6MAUtilplIcEENS_11BasicStringIT_EEPKS2_RKS3_
	ld   r1,fr
	add  r1,#0xffffffd0
	ld   r14,[fr,-24]
	ld   r14,[r14,404]
	ld   r14,[r14]
	add  r14,#0xa0
	ld   r0,[fr,-24]
	ld   r14,[r14]
	ld   i0,[r0,404]
	ld   i1,r1
	call r14
	ld   r14,fr
	add  r14,#0xffffffd0
	ld   i0,r14
	call &__ZN6MAUtil11BasicStringIcED1Ev
	.line 457
	ld   d0,fr
	add  d0,#0xffffffd0
	ld   r14,[fr,-24]
	ld   r14,[r14,156]
	add  r14,#0x77
	ld   i0,r14
	call &__ZN7Convert2trEi
	ld   r0,fr
	add  r0,#0xffffffd8
	ld   i0,d0
	ld   i1,r14
	ld   i2,r0
	call &__ZN6MAUtilplIcEENS_11BasicStringIT_EEPKS2_RKS3_
	ld   r1,fr
	add  r1,#0xffffffd0
	ld   r14,[fr,-24]
	ld   r14,[r14,408]
	ld   r14,[r14]
	add  r14,#0xa0
	ld   r0,[fr,-24]
	ld   r14,[r14]
	ld   i0,[r0,408]
	ld   i1,r1
	call r14
	ld   r14,fr
	add  r14,#0xffffffd0
	ld   i0,r14
	call &__ZN6MAUtil11BasicStringIcED1Ev
	.line 458
	ld   d0,fr
	add  d0,#0xffffffd0
	ld   r14,[fr,-24]
	ld   r14,[r14,156]
	add  r14,#0x79
	ld   i0,r14
	call &__ZN7Convert2trEi
	ld   r0,fr
	add  r0,#0xffffffd4
	ld   i0,d0
	ld   i1,r14
	ld   i2,r0
	call &__ZN6MAUtilplIcEENS_11BasicStringIT_EEPKS2_RKS3_
	ld   r1,fr
	add  r1,#0xffffffd0
	ld   r14,[fr,-24]
	ld   r14,[r14,412]
	ld   r14,[r14]
	add  r14,#0xa0
	ld   r0,[fr,-24]
	ld   r14,[r14]
	ld   i0,[r0,412]
	ld   i1,r1
	call r14
	ld   r14,fr
	add  r14,#0xffffffd0
	ld   i0,r14
	call &__ZN6MAUtil11BasicStringIcED1Ev
	.line 462
	ld   r14,fr
	add  r14,#0xffffffd0
	ld   i0,r14
	ld   i1,#LC56
	call &__ZN6MAUtil11BasicStringIcEC1EPKc
	ld   r0,fr
	add  r0,#0xffffffd0
	ld   r14,[fr,-28]
	ld   r14,[r14]
	add  r14,#0x18
	ld   r14,[r14]
	ld   i0,[fr,-28]
	ld   i1,r0
	call r14
	ld   [fr,-52],r14
	ld   r14,fr
	add  r14,#0xffffffd0
	ld   i0,r14
	call &__ZN6MAUtil11BasicStringIcED1Ev
	.line 463
	ld   d0,fr
	add  d0,#0xffffffd0
	ld   r14,[fr,-24]
	ld   r14,[r14,156]
	add  r14,#0x33
	ld   i0,r14
	call &__ZN7Convert2trEi
	ld   d1,r14
	ld   d2,fr
	add  d2,#0xffffffc8
	ld   r14,fr
	add  r14,#0xffffffc4
	ld   i0,r14
	ld   i1,#LC45
	call &__ZN6MAUtil11BasicStringIcEC1EPKc
	ld   r0,fr
	add  r0,#0xffffffc4
	ld   r14,[fr,-52]
	ld   r14,[r14]
	add  r14,#0x18
	ld   r14,[r14]
	ld   i0,[fr,-52]
	ld   i1,r0
	call r14
	ld   r0,r14
	ld   r14,[r0]
	add  r14,#0x8
	ld   r14,[r14]
	ld   i0,d2
	ld   i1,r0
	call r14
	ld   r14,fr
	add  r14,#0xffffffc8
	ld   i0,d0
	ld   i1,d1
	ld   i2,r14
	call &__ZN6MAUtilplIcEENS_11BasicStringIT_EEPKS2_RKS3_
	ld   r1,fr
	add  r1,#0xffffffd0
	ld   r14,[fr,-24]
	ld   r14,[r14,416]
	ld   r14,[r14]
	add  r14,#0xa0
	ld   r0,[fr,-24]
	ld   r14,[r14]
	ld   i0,[r0,416]
	ld   i1,r1
	call r14
	ld   r14,fr
	add  r14,#0xffffffd0
	ld   i0,r14
	call &__ZN6MAUtil11BasicStringIcED1Ev
	ld   r14,fr
	add  r14,#0xffffffc8
	ld   i0,r14
	call &__ZN6MAUtil11BasicStringIcED1Ev
	ld   r14,fr
	add  r14,#0xffffffc4
	ld   i0,r14
	call &__ZN6MAUtil11BasicStringIcED1Ev
	.line 466
	ld   r14,fr
	add  r14,#0xffffffd0
	ld   i0,r14
	ld   i1,#LC57
	call &__ZN6MAUtil11BasicStringIcEC1EPKc
	ld   r0,fr
	add  r0,#0xffffffd0
	ld   r14,[fr,-28]
	ld   r14,[r14]
	add  r14,#0x18
	ld   r14,[r14]
	ld   i0,[fr,-28]
	ld   i1,r0
	call r14
	ld   [fr,-64],r14
	ld   r14,fr
	add  r14,#0xffffffd0
	ld   i0,r14
	call &__ZN6MAUtil11BasicStringIcED1Ev
	.line 467
	ld   d0,fr
	add  d0,#0xffffffd0
	ld   r14,[fr,-24]
	ld   r14,[r14,156]
	add  r14,#0x35
	ld   i0,r14
	call &__ZN7Convert2trEi
	ld   d1,r14
	ld   d2,fr
	add  d2,#0xffffffc4
	ld   r14,fr
	add  r14,#0xffffffc8
	ld   i0,r14
	ld   i1,#LC43
	call &__ZN6MAUtil11BasicStringIcEC1EPKc
	ld   r0,fr
	add  r0,#0xffffffc8
	ld   r14,[fr,-64]
	ld   r14,[r14]
	add  r14,#0x18
	ld   r14,[r14]
	ld   i0,[fr,-64]
	ld   i1,r0
	call r14
	ld   r0,r14
	ld   r14,[r0]
	add  r14,#0x8
	ld   r14,[r14]
	ld   i0,d2
	ld   i1,r0
	call r14
	ld   r14,fr
	add  r14,#0xffffffc4
	ld   i0,d0
	ld   i1,d1
	ld   i2,r14
	call &__ZN6MAUtilplIcEENS_11BasicStringIT_EEPKS2_RKS3_
	ld   r1,fr
	add  r1,#0xffffffd0
	ld   r14,[fr,-24]
	ld   r14,[r14,420]
	ld   r14,[r14]
	add  r14,#0xa0
	ld   r0,[fr,-24]
	ld   r14,[r14]
	ld   i0,[r0,420]
	ld   i1,r1
	call r14
	ld   r14,fr
	add  r14,#0xffffffd0
	ld   i0,r14
	call &__ZN6MAUtil11BasicStringIcED1Ev
	ld   r14,fr
	add  r14,#0xffffffc4
	ld   i0,r14
	call &__ZN6MAUtil11BasicStringIcED1Ev
	ld   r14,fr
	add  r14,#0xffffffc8
	ld   i0,r14
	call &__ZN6MAUtil11BasicStringIcED1Ev
	.line 471
	ld   r14,fr
	add  r14,#0xffffffd0
	ld   i0,r14
	ld   i1,#LC58
	call &__ZN6MAUtil11BasicStringIcEC1EPKc
	ld   r0,fr
	add  r0,#0xffffffd0
	ld   r14,[fr,-28]
	ld   r14,[r14]
	add  r14,#0x18
	ld   r14,[r14]
	ld   i0,[fr,-28]
	ld   i1,r0
	call r14
	ld   [fr,-68],r14
	ld   r14,fr
	add  r14,#0xffffffd0
	ld   i0,r14
	call &__ZN6MAUtil11BasicStringIcED1Ev
	.line 472
	ld   d0,fr
	add  d0,#0xffffffd0
	ld   r14,[fr,-24]
	ld   r14,[r14,156]
	add  r14,#0x37
	ld   i0,r14
	call &__ZN7Convert2trEi
	ld   d1,r14
	ld   d2,fr
	add  d2,#0xffffffc4
	ld   r14,fr
	add  r14,#0xffffffc8
	ld   i0,r14
	ld   i1,#LC45
	call &__ZN6MAUtil11BasicStringIcEC1EPKc
	ld   r0,fr
	add  r0,#0xffffffc8
	ld   r14,[fr,-68]
	ld   r14,[r14]
	add  r14,#0x18
	ld   r14,[r14]
	ld   i0,[fr,-68]
	ld   i1,r0
	call r14
	ld   r0,r14
	ld   r14,[r0]
	add  r14,#0x8
	ld   r14,[r14]
	ld   i0,d2
	ld   i1,r0
	call r14
	ld   r14,fr
	add  r14,#0xffffffc4
	ld   i0,d0
	ld   i1,d1
	ld   i2,r14
	call &__ZN6MAUtilplIcEENS_11BasicStringIT_EEPKS2_RKS3_
	ld   r1,fr
	add  r1,#0xffffffd0
	ld   r14,[fr,-24]
	ld   r14,[r14,424]
	ld   r14,[r14]
	add  r14,#0xa0
	ld   r0,[fr,-24]
	ld   r14,[r14]
	ld   i0,[r0,424]
	ld   i1,r1
	call r14
	ld   r14,fr
	add  r14,#0xffffffd0
	ld   i0,r14
	call &__ZN6MAUtil11BasicStringIcED1Ev
	ld   r14,fr
	add  r14,#0xffffffc4
	ld   i0,r14
	call &__ZN6MAUtil11BasicStringIcED1Ev
	ld   r14,fr
	add  r14,#0xffffffc8
	ld   i0,r14
	call &__ZN6MAUtil11BasicStringIcED1Ev
	.line 475
	ld   d0,fr
	add  d0,#0xffffffd0
	ld   r14,[fr,-24]
	ld   r14,[r14,156]
	add  r14,#0x39
	ld   i0,r14
	call &__ZN7Convert2trEi
	ld   d1,r14
	ld   d2,fr
	add  d2,#0xffffffc4
	ld   r14,fr
	add  r14,#0xffffffc8
	ld   i0,r14
	ld   i1,#LC59
	call &__ZN6MAUtil11BasicStringIcEC1EPKc
	ld   r0,fr
	add  r0,#0xffffffc8
	ld   r14,[fr,-64]
	ld   r14,[r14]
	add  r14,#0x18
	ld   r14,[r14]
	ld   i0,[fr,-64]
	ld   i1,r0
	call r14
	ld   r0,r14
	ld   r14,[r0]
	add  r14,#0x8
	ld   r14,[r14]
	ld   i0,d2
	ld   i1,r0
	call r14
	ld   r14,fr
	add  r14,#0xffffffc4
	ld   i0,d0
	ld   i1,d1
	ld   i2,r14
	call &__ZN6MAUtilplIcEENS_11BasicStringIT_EEPKS2_RKS3_
	ld   r1,fr
	add  r1,#0xffffffd0
	ld   r14,[fr,-24]
	ld   r14,[r14,428]
	ld   r14,[r14]
	add  r14,#0xa0
	ld   r0,[fr,-24]
	ld   r14,[r14]
	ld   i0,[r0,428]
	ld   i1,r1
	call r14
	ld   r14,fr
	add  r14,#0xffffffd0
	ld   i0,r14
	call &__ZN6MAUtil11BasicStringIcED1Ev
	ld   r14,fr
	add  r14,#0xffffffc4
	ld   i0,r14
	call &__ZN6MAUtil11BasicStringIcED1Ev
	ld   r14,fr
	add  r14,#0xffffffc8
	ld   i0,r14
	call &__ZN6MAUtil11BasicStringIcED1Ev
	.line 479
	ld   r14,fr
	add  r14,#0xffffffd0
	ld   i0,r14
	ld   i1,#LC34
	call &__ZN6MAUtil11BasicStringIcEC1EPKc
	.line 480
	ld   d1,fr
	add  d1,#0xffffffc4
	ld   d2,fr
	add  d2,#0xffffffc8
	ld   d0,fr
	add  d0,#0xffffffb8
	ld   r14,[fr,-24]
	add  r14,#0x140
	ld   r0,[fr,-24]
	add  r0,#0x18c
	ld   i0,r14
	ld   i1,r0
	call &__ZN6MAUtil3MapIixEixERKi
	ld   i0,d0
	ld   i1,[r14]
	ld   i2,[r14,4]
	call &__ZN7Convert8toStringEx
	ld   r14,fr
	add  r14,#0xffffffb8
	ld   i0,d2
	ld   i1,#LC35
	ld   i2,r14
	call &__ZN6MAUtilplIcEENS_11BasicStringIT_EEPKS2_RKS3_
	ld   d0,fr
	add  d0,#0xffffffc8
	ld   r14,fr
	add  r14,#0xffffffb4
	ld   i0,r14
	ld   i1,#LC60
	call &__ZN6MAUtil11BasicStringIcEC1EPKc
	ld   r14,fr
	add  r14,#0xffffffb4
	ld   i0,d1
	ld   i1,d0
	ld   i2,r14
	call &__ZNK6MAUtil11BasicStringIcEplERKS1_
	ld   r0,fr
	add  r0,#0xffffffc4
	ld   r14,fr
	add  r14,#0xffffffd0
	ld   i0,r14
	ld   i1,r0
	call &__ZN6MAUtil11BasicStringIcEpLERKS1_
	ld   r14,fr
	add  r14,#0xffffffc4
	ld   i0,r14
	call &__ZN6MAUtil11BasicStringIcED1Ev
	ld   r14,fr
	add  r14,#0xffffffb4
	ld   i0,r14
	call &__ZN6MAUtil11BasicStringIcED1Ev
	ld   r14,fr
	add  r14,#0xffffffc8
	ld   i0,r14
	call &__ZN6MAUtil11BasicStringIcED1Ev
	ld   r14,fr
	add  r14,#0xffffffb8
	ld   i0,r14
	call &__ZN6MAUtil11BasicStringIcED1Ev
	.line 482
	ld   r14,fr
	add  r14,#0xffffffd0
	ld   r0,[fr,-24]
	add  r0,#0x98
	ld   i0,r14
	ld   i1,r0
	call &__ZN6MAUtil11BasicStringIcEpLERKS1_
	.line 483
	ld   r14,fr
	add  r14,#0xffffffb4
	ld   r0,fr
	add  r0,#0xffffffd0
	ld   i0,r14
	ld   i1,r0
	call &__ZN6MAUtil11BasicStringIcEC1ERKS1_
	ld   d0,fr
	add  d0,#0xffffffb4
	ld   r14,fr
	add  r14,#0xffffffb8
	ld   i0,r14
	ld   i1,#LC15
	call &__ZN6MAUtil11BasicStringIcEC1EPKc
	ld   r14,fr
	add  r14,#0xffffffb8
	ld   r0,[fr,-24]
	add  r0,#0x54
	ld   [sp],r14
	ld   i0,r0
	ld   i1,d0
	ld   i2,#0xf
	ld   i3,#0x0
	call &__ZN11Connections10connectUrlEN6MAUtil11BasicStringIcEENS_9eFonctionEiS2_
	ld   r14,fr
	add  r14,#0xffffffb8
	ld   i0,r14
	call &__ZN6MAUtil11BasicStringIcED1Ev
	ld   r14,fr
	add  r14,#0xffffffb4
	ld   i0,r14
	call &__ZN6MAUtil11BasicStringIcED1Ev
	ld   r14,fr
	add  r14,#0xffffffd0
	ld   i0,r14
	call &__ZN6MAUtil11BasicStringIcED1Ev
	ld   r14,fr
	add  r14,#0xffffffd4
	ld   i0,r14
	call &__ZN6MAUtil11BasicStringIcED1Ev
	ld   r14,fr
	add  r14,#0xffffffd8
	ld   i0,r14
	call &__ZN6MAUtil11BasicStringIcED1Ev
	ld   r14,fr
	add  r14,#0xffffffdc
	ld   i0,r14
	call &__ZN6MAUtil11BasicStringIcED1Ev
L199:
	.dlab LBE88
	.dlab LBE87
	.dlab LBE86
	.dlab LBE85
	.line 485
	add  sp,#0x3c
	pop  rt,d2
	ret
	.stabs	"valueTmp1:(24,35)",128,0,447,-32
	.stabs	"asset:(13,1)",128,0,449,-36
	.stabs	"plugin:(13,1)",128,0,450,-40
	.stabs	"information:(13,1)",128,0,451,-44
	.stabs	"valueTmp2:(24,35)",128,0,462,-52
	.stabs	"valueTmp3:(24,35)",128,0,466,-64
	.stabs	"valueTmp4:(24,35)",128,0,470,-68
	.stabs	"urlTmp:(13,1)",128,0,479,-48
	.stabn	192,0,0,LBB88-__ZN8AlertTab18parseJSONAlertInfoEPN6MAUtil7YAJLDom5ValueE
	.stabn	224,0,0,LBE88-__ZN8AlertTab18parseJSONAlertInfoEPN6MAUtil7YAJLDom5ValueE
Lscope46:
.data
LC61:
	.ascii "parseJSONPostMediaSpe\0"
LC62:
	.ascii "id\0"
LC63:
	.ascii "ID AMS = %d\0"
LC64:
	.ascii "/medias/specializations/\0"
LC65:
	.ascii "                {\"ams_snooze\": \0"
LC66:
	.ascii ",\"mev_id\" : \0"
LC67:
	.ascii "                        {\"name\": \"\0"
LC68:
	.ascii "\",\"alert_value\": \"\0"
LC69:
	.ascii "\",\"thread_sleep\": 0,\"key_value\": \"\0"
LC70:
	.ascii "\",\"ast_id\": \0"
LC71:
	.ascii ",\"sea_id\": \0"
LC72:
	.ascii ",\"src_id\": \0"
LC73:
	.ascii ",\"plg_id\": \0"
LC74:
	.ascii ",\"inf_value_num\": \0"
LC75:
	.ascii ",\"inu_id\": \0"
LC76:
	.ascii ",\"acr_id\": \0"
LC77:
	.ascii ",\"ams_id\": [\0"
LC78:
	.ascii ", \0"
LC79:
	.ascii "]\11\11\11\11 }\0"
.code
	.stabs	"_ZN8AlertTab21parseJSONPostMediaSpeEPN6MAUtil7YAJLDom5ValueE:F(0,6)",36,0,487,__ZN8AlertTab21parseJSONPostMediaSpeEPN6MAUtil7YAJLDom5ValueE
	.stabs	"this:p(0,25)",160,0,487,-44
	.stabs	"root:p(24,35)",160,0,487,-48
	.global	__ZN8AlertTab21parseJSONPostMediaSpeEPN6MAUtil7YAJLDom5ValueE

.func __ZN8AlertTab21parseJSONPostMediaSpeEPN6MAUtil7YAJLDom5ValueE, 2, void
	.line 487
	push rt,d7
	sub  sp,#0x12c
	ld   fr,sp
	add  fr,#0x154
	ld   [fr,-44],i0
	ld   [fr,-48],i1
	.dlab LBB89
	.dlab LBB90
	.line 488
	ld   i0,#LC61
	call &_lprintfln
	.line 489
	ld   r0,[fr,-48]
	ld   r14,#0x0
	jc   eq,r0,r14,#L205
	ld   i0,[fr,-48]
	call &__ZNK6MAUtil7YAJLDom5Value7getTypeEv
	ld   r0,r14
	ld   r14,#0x0
	jc   eq,r0,r14,#L205
	ld   i0,[fr,-48]
	call &__ZNK6MAUtil7YAJLDom5Value7getTypeEv
	ld   r0,r14
	ld   r14,#0x3
	jc   eq,r0,r14,#L205
	jp   #L204
L205:
	.line 491
	ld   i0,#LC40
	call &_lprintfln
	jp   #L206
L204:
	.line 493
	ld   r14,fr
	add  r14,#0xffffffcc
	ld   i0,r14
	ld   i1,#LC62
	call &__ZN6MAUtil11BasicStringIcEC1EPKc
	ld   r0,fr
	add  r0,#0xffffffcc
	ld   r14,[fr,-48]
	ld   r14,[r14]
	add  r14,#0x18
	ld   r14,[r14]
	ld   i0,[fr,-48]
	ld   i1,r0
	call r14
	ld   r0,r14
	ld   r14,[r0]
	add  r14,#0x10
	ld   r14,[r14]
	ld   i0,r0
	call r14
	ld   [sp],r14
	ld   i0,#LC63
	call &_lprintfln
	ld   r14,fr
	add  r14,#0xffffffcc
	ld   i0,r14
	call &__ZN6MAUtil11BasicStringIcED1Ev
	.line 494
	ld   r14,[fr,-44]
	add  r14,#0x9c8
	ld   i0,r14
	call &__ZNK6MAUtil10DictionaryIKiNS_4PairIS1_xEEE4sizeEv
	ld   [fr,-56],r14
	ld   r0,fr
	add  r0,#0xffffffc8
	ld   r14,[fr,-44]
	add  r14,#0x9c8
	ld   i0,r14
	ld   i1,r0
	call &__ZN6MAUtil3MapIixEixERKi
	ld   d0,r14
	ld   r14,fr
	add  r14,#0xffffffcc
	ld   i0,r14
	ld   i1,#LC62
	call &__ZN6MAUtil11BasicStringIcEC1EPKc
	ld   r0,fr
	add  r0,#0xffffffcc
	ld   r14,[fr,-48]
	ld   r14,[r14]
	add  r14,#0x18
	ld   r14,[r14]
	ld   i0,[fr,-48]
	ld   i1,r0
	call r14
	ld   r0,r14
	ld   r14,[r0]
	add  r14,#0x10
	ld   r14,[r14]
	ld   i0,r0
	call r14
	ld   [d0],r14
	sra  r14,#0x1f
	ld   [d0,4],r14
	ld   r14,fr
	add  r14,#0xffffffcc
	ld   i0,r14
	call &__ZN6MAUtil11BasicStringIcED1Ev
L206:
	.line 496
	ld   r0,[fr,-44]
	ld   r14,[fr,-44]
	ld   r14,[r14,2560]
	add  r14,#0x1
	ld   [r0,2560],r14
	.dlab LBB91
	.line 499
	ld   d0,[fr,-44]
	ld   r14,[fr,-44]
	add  r14,#0x958
	ld   i0,r14
	call &__ZNK6MAUtil10DictionaryIKiNS_4PairIS1_xEEE4sizeEv
	ld   r0,r14
	ld   r14,[d0,2560]
	jc   geu,r14,r0,#L207
	.dlab LBB92
	.line 500
	ld   r14,fr
	add  r14,#0xffffffcc
	ld   i0,r14
	ld   i1,#LC34
	call &__ZN6MAUtil11BasicStringIcEC1EPKc
	.line 501
	ld   r14,fr
	add  r14,#0xffffffc4
	ld   i0,r14
	ld   i1,#LC64
	call &__ZN6MAUtil11BasicStringIcEC1EPKc
	ld   r0,fr
	add  r0,#0xffffffc4
	ld   r14,fr
	add  r14,#0xffffffcc
	ld   i0,r14
	ld   i1,r0
	call &__ZN6MAUtil11BasicStringIcEpLERKS1_
	ld   r14,fr
	add  r14,#0xffffffc4
	ld   i0,r14
	call &__ZN6MAUtil11BasicStringIcED1Ev
	.line 502
	ld   r14,fr
	add  r14,#0xffffffcc
	ld   r0,[fr,-44]
	add  r0,#0x98
	ld   i0,r14
	ld   i1,r0
	call &__ZN6MAUtil11BasicStringIcEpLERKS1_
	.line 503
	ld   r14,fr
	add  r14,#0xffffffc4
	ld   i0,r14
	ld   i1,#LC65
	call &__ZN6MAUtil11BasicStringIcEC1EPKc
	.line 504
	ld   d0,fr
	add  d0,#0xffffffc0
	ld   r14,[fr,-44]
	add  r14,#0x990
	ld   r0,[fr,-44]
	add  r0,#0xa00
	ld   i0,r14
	ld   i1,r0
	call &__ZN6MAUtil3MapIiiEixERKi
	ld   i0,d0
	ld   i1,[r14]
	call &__ZN7Convert8toStringEi
	ld   r0,fr
	add  r0,#0xffffffc0
	ld   r14,fr
	add  r14,#0xffffffc4
	ld   i0,r14
	ld   i1,r0
	call &__ZN6MAUtil11BasicStringIcEpLERKS1_
	ld   r14,fr
	add  r14,#0xffffffc0
	ld   i0,r14
	call &__ZN6MAUtil11BasicStringIcED1Ev
	.line 506
	ld   r14,fr
	add  r14,#0xffffffc0
	ld   i0,r14
	ld   i1,#LC66
	call &__ZN6MAUtil11BasicStringIcEC1EPKc
	ld   r0,fr
	add  r0,#0xffffffc0
	ld   r14,fr
	add  r14,#0xffffffc4
	ld   i0,r14
	ld   i1,r0
	call &__ZN6MAUtil11BasicStringIcEpLERKS1_
	ld   r14,fr
	add  r14,#0xffffffc0
	ld   i0,r14
	call &__ZN6MAUtil11BasicStringIcED1Ev
	.line 507
	ld   d0,fr
	add  d0,#0xffffffc0
	ld   r14,[fr,-44]
	add  r14,#0x958
	ld   r0,[fr,-44]
	add  r0,#0xa00
	ld   i0,r14
	ld   i1,r0
	call &__ZN6MAUtil3MapIixEixERKi
	ld   i0,d0
	ld   i1,[r14]
	ld   i2,[r14,4]
	call &__ZN7Convert8toStringEx
	ld   r0,fr
	add  r0,#0xffffffc0
	ld   r14,fr
	add  r14,#0xffffffc4
	ld   i0,r14
	ld   i1,r0
	call &__ZN6MAUtil11BasicStringIcEpLERKS1_
	ld   r14,fr
	add  r14,#0xffffffc0
	ld   i0,r14
	call &__ZN6MAUtil11BasicStringIcED1Ev
	.line 509
	ld   r14,fr
	add  r14,#0xffffffc0
	ld   i0,r14
	ld   i1,#LC30
	call &__ZN6MAUtil11BasicStringIcEC1EPKc
	ld   r0,fr
	add  r0,#0xffffffc0
	ld   r14,fr
	add  r14,#0xffffffc4
	ld   i0,r14
	ld   i1,r0
	call &__ZN6MAUtil11BasicStringIcEpLERKS1_
	ld   r14,fr
	add  r14,#0xffffffc0
	ld   i0,r14
	call &__ZN6MAUtil11BasicStringIcED1Ev
	.line 510
	ld   r14,fr
	add  r14,#0xffffffc0
	ld   r0,fr
	add  r0,#0xffffffcc
	ld   i0,r14
	ld   i1,r0
	call &__ZN6MAUtil11BasicStringIcEC1ERKS1_
	ld   d0,fr
	add  d0,#0xffffffc0
	ld   r14,fr
	add  r14,#0xffffffbc
	ld   r0,fr
	add  r0,#0xffffffc4
	ld   i0,r14
	ld   i1,r0
	call &__ZN6MAUtil11BasicStringIcEC1ERKS1_
	ld   r14,fr
	add  r14,#0xffffffbc
	ld   r0,[fr,-44]
	add  r0,#0x54
	ld   [sp],r14
	ld   i0,r0
	ld   i1,d0
	ld   i2,#0xb
	ld   i3,#0x1
	call &__ZN11Connections10connectUrlEN6MAUtil11BasicStringIcEENS_9eFonctionEiS2_
	ld   r14,fr
	add  r14,#0xffffffbc
	ld   i0,r14
	call &__ZN6MAUtil11BasicStringIcED1Ev
	ld   r14,fr
	add  r14,#0xffffffc0
	ld   i0,r14
	call &__ZN6MAUtil11BasicStringIcED1Ev
	ld   r14,fr
	add  r14,#0xffffffc4
	ld   i0,r14
	call &__ZN6MAUtil11BasicStringIcED1Ev
	ld   r14,fr
	add  r14,#0xffffffcc
	ld   i0,r14
	call &__ZN6MAUtil11BasicStringIcED1Ev
	.dlab LBE92
	jp   #L203
L207:
	.dlab LBB93
	.line 512
	ld   r14,fr
	add  r14,#0xffffffcc
	ld   i0,r14
	ld   i1,#LC34
	call &__ZN6MAUtil11BasicStringIcEC1EPKc
	.line 513
	ld   r14,fr
	add  r14,#0xffffffbc
	ld   i0,r14
	ld   i1,#LC35
	call &__ZN6MAUtil11BasicStringIcEC1EPKc
	ld   r0,fr
	add  r0,#0xffffffbc
	ld   r14,fr
	add  r14,#0xffffffcc
	ld   i0,r14
	ld   i1,r0
	call &__ZN6MAUtil11BasicStringIcEpLERKS1_
	ld   r14,fr
	add  r14,#0xffffffbc
	ld   i0,r14
	call &__ZN6MAUtil11BasicStringIcED1Ev
	.line 514
	ld   r14,fr
	add  r14,#0xffffffcc
	ld   r0,[fr,-44]
	add  r0,#0x98
	ld   i0,r14
	ld   i1,r0
	call &__ZN6MAUtil11BasicStringIcEpLERKS1_
	.line 546
	ld   d1,fr
	add  d1,#0xffffffbc
	ld   d2,fr
	add  d2,#0xffffffc0
	ld   d3,fr
	add  d3,#0xffffffc4
	ld   d4,fr
	add  d4,#0xffffffb8
	ld   d5,fr
	add  d5,#0xffffffb4
	ld   d6,fr
	add  d6,#0xffffffb0
	ld   d7,fr
	add  d7,#0xffffffac
	ld   r14,fr
	add  r14,#0xffffffa8
	ld   [fr,-252],r14
	ld   r14,fr
	add  r14,#0xffffffa4
	ld   [fr,-256],r14
	ld   r14,fr
	add  r14,#0xffffffa0
	ld   [fr,-260],r14
	ld   r14,fr
	add  r14,#0xffffff9c
	ld   [fr,-264],r14
	ld   r14,fr
	add  r14,#0xffffff98
	ld   [fr,-268],r14
	ld   r14,fr
	add  r14,#0xffffff94
	ld   [fr,-272],r14
	ld   r14,fr
	add  r14,#0xffffff90
	ld   [fr,-276],r14
	ld   r14,fr
	add  r14,#0xffffff8c
	ld   [fr,-280],r14
	ld   r14,fr
	add  r14,#0xffffff88
	ld   [fr,-284],r14
	ld   r14,fr
	add  r14,#0xffffff84
	ld   [fr,-288],r14
	ld   r14,fr
	add  r14,#0xffffff80
	ld   [fr,-292],r14
	ld   r14,fr
	add  r14,#0xffffff7c
	ld   [fr,-296],r14
	ld   r14,fr
	add  r14,#0xffffff78
	ld   [fr,-300],r14
	ld   r14,fr
	add  r14,#0xffffff74
	ld   [fr,-304],r14
	ld   r14,fr
	add  r14,#0xffffff70
	ld   [fr,-308],r14
	ld   r14,fr
	add  r14,#0xffffff6c
	ld   [fr,-312],r14
	ld   d0,fr
	add  d0,#0xffffff68
	ld   r14,[fr,-44]
	add  r14,#0x2a8
	ld   r0,[fr,-44]
	add  r0,#0xa4
	ld   i0,r14
	ld   i1,r0
	call &__ZN6MAUtil3MapIiNS_11BasicStringIcEEEixERKi
	ld   i0,d0
	ld   i1,#LC67
	ld   i2,r14
	call &__ZN6MAUtilplIcEENS_11BasicStringIT_EEPKS2_RKS3_
	ld   d0,fr
	add  d0,#0xffffff68
	ld   r14,fr
	add  r14,#0xffffff64
	ld   i0,r14
	ld   i1,#LC55
	call &__ZN6MAUtil11BasicStringIcEC1EPKc
	ld   r14,fr
	add  r14,#0xffffff64
	ld   i0,[fr,-312]
	ld   i1,d0
	ld   i2,r14
	call &__ZNK6MAUtil11BasicStringIcEplERKS1_
	ld   r14,fr
	add  r14,#0xffffff6c
	ld   [fr,-316],r14
	ld   d0,fr
	add  d0,#0xffffff60
	ld   r14,[fr,-44]
	add  r14,#0x358
	ld   r0,[fr,-44]
	add  r0,#0xa8
	ld   i0,r14
	ld   i1,r0
	call &__ZN6MAUtil3MapIiPN8NativeUI5LabelEEixERKi
	ld   r0,[r14]
	ld   r14,[r0]
	add  r14,#0xa4
	ld   r14,[r14]
	ld   i0,d0
	ld   i1,r0
	call r14
	ld   r14,fr
	add  r14,#0xffffff60
	ld   i0,[fr,-308]
	ld   i1,[fr,-316]
	ld   i2,r14
	call &__ZNK6MAUtil11BasicStringIcEplERKS1_
	ld   d0,fr
	add  d0,#0xffffff70
	ld   r14,fr
	add  r14,#0xffffff5c
	ld   i0,r14
	ld   i1,#LC55
	call &__ZN6MAUtil11BasicStringIcEC1EPKc
	ld   r14,fr
	add  r14,#0xffffff5c
	ld   i0,[fr,-304]
	ld   i1,d0
	ld   i2,r14
	call &__ZNK6MAUtil11BasicStringIcEplERKS1_
	ld   r14,fr
	add  r14,#0xffffff74
	ld   [fr,-320],r14
	ld   d0,fr
	add  d0,#0xffffff58
	ld   r14,[fr,-44]
	add  r14,#0x4b0
	ld   r0,[fr,-44]
	add  r0,#0xac
	ld   i0,r14
	ld   i1,r0
	call &__ZN6MAUtil3MapIiPN8NativeUI5LabelEEixERKi
	ld   r0,[r14]
	ld   r14,[r0]
	add  r14,#0xa4
	ld   r14,[r14]
	ld   i0,d0
	ld   i1,r0
	call r14
	ld   r14,fr
	add  r14,#0xffffff58
	ld   i0,[fr,-300]
	ld   i1,[fr,-320]
	ld   i2,r14
	call &__ZNK6MAUtil11BasicStringIcEplERKS1_
	ld   d0,fr
	add  d0,#0xffffff78
	ld   r14,fr
	add  r14,#0xffffff54
	ld   i0,r14
	ld   i1,#LC68
	call &__ZN6MAUtil11BasicStringIcEC1EPKc
	ld   r14,fr
	add  r14,#0xffffff54
	ld   i0,[fr,-296]
	ld   i1,d0
	ld   i2,r14
	call &__ZNK6MAUtil11BasicStringIcEplERKS1_
	ld   d0,fr
	add  d0,#0xffffff7c
	ld   r1,fr
	add  r1,#0xffffff50
	ld   r14,[fr,-44]
	ld   r14,[r14,1340]
	ld   r14,[r14]
	add  r14,#0xa4
	ld   r0,[fr,-44]
	ld   r14,[r14]
	ld   i0,r1
	ld   i1,[r0,1340]
	call r14
	ld   r14,fr
	add  r14,#0xffffff50
	ld   i0,[fr,-292]
	ld   i1,d0
	ld   i2,r14
	call &__ZNK6MAUtil11BasicStringIcEplERKS1_
	ld   d0,fr
	add  d0,#0xffffff80
	ld   r14,fr
	add  r14,#0xffffff4c
	ld   i0,r14
	ld   i1,#LC69
	call &__ZN6MAUtil11BasicStringIcEC1EPKc
	ld   r14,fr
	add  r14,#0xffffff4c
	ld   i0,[fr,-288]
	ld   i1,d0
	ld   i2,r14
	call &__ZNK6MAUtil11BasicStringIcEplERKS1_
	ld   d0,fr
	add  d0,#0xffffff84
	ld   r1,fr
	add  r1,#0xffffff48
	ld   r14,[fr,-44]
	ld   r14,[r14,1328]
	ld   r14,[r14]
	add  r14,#0xa4
	ld   r0,[fr,-44]
	ld   r14,[r14]
	ld   i0,r1
	ld   i1,[r0,1328]
	call r14
	ld   r14,fr
	add  r14,#0xffffff48
	ld   i0,[fr,-284]
	ld   i1,d0
	ld   i2,r14
	call &__ZNK6MAUtil11BasicStringIcEplERKS1_
	ld   d0,fr
	add  d0,#0xffffff88
	ld   r14,fr
	add  r14,#0xffffff44
	ld   i0,r14
	ld   i1,#LC70
	call &__ZN6MAUtil11BasicStringIcEC1EPKc
	ld   r14,fr
	add  r14,#0xffffff44
	ld   i0,[fr,-280]
	ld   i1,d0
	ld   i2,r14
	call &__ZNK6MAUtil11BasicStringIcEplERKS1_
	ld   r14,fr
	add  r14,#0xffffff8c
	ld   [fr,-324],r14
	ld   d0,fr
	add  d0,#0xffffff40
	ld   r14,[fr,-44]
	add  r14,#0x238
	ld   r0,[fr,-44]
	add  r0,#0xa4
	ld   i0,r14
	ld   i1,r0
	call &__ZN6MAUtil3MapIixEixERKi
	ld   i0,d0
	ld   i1,[r14]
	ld   i2,[r14,4]
	call &__ZN7Convert8toStringEx
	ld   r14,fr
	add  r14,#0xffffff40
	ld   i0,[fr,-276]
	ld   i1,[fr,-324]
	ld   i2,r14
	call &__ZNK6MAUtil11BasicStringIcEplERKS1_
	ld   d0,fr
	add  d0,#0xffffff90
	ld   r14,fr
	add  r14,#0xffffff3c
	ld   i0,r14
	ld   i1,#LC71
	call &__ZN6MAUtil11BasicStringIcEC1EPKc
	ld   r14,fr
	add  r14,#0xffffff3c
	ld   i0,[fr,-272]
	ld   i1,d0
	ld   i2,r14
	call &__ZNK6MAUtil11BasicStringIcEplERKS1_
	ld   r14,fr
	add  r14,#0xffffff94
	ld   [fr,-328],r14
	ld   d0,fr
	add  d0,#0xffffff38
	ld   r14,[fr,-44]
	add  r14,#0x3d0
	ld   r0,[fr,-44]
	add  r0,#0xac
	ld   i0,r14
	ld   i1,r0
	call &__ZN6MAUtil3MapIixEixERKi
	ld   i0,d0
	ld   i1,[r14]
	ld   i2,[r14,4]
	call &__ZN7Convert8toStringEx
	ld   r14,fr
	add  r14,#0xffffff38
	ld   i0,[fr,-268]
	ld   i1,[fr,-328]
	ld   i2,r14
	call &__ZNK6MAUtil11BasicStringIcEplERKS1_
	ld   d0,fr
	add  d0,#0xffffff98
	ld   r14,fr
	add  r14,#0xffffff34
	ld   i0,r14
	ld   i1,#LC72
	call &__ZN6MAUtil11BasicStringIcEC1EPKc
	ld   r14,fr
	add  r14,#0xffffff34
	ld   i0,[fr,-264]
	ld   i1,d0
	ld   i2,r14
	call &__ZNK6MAUtil11BasicStringIcEplERKS1_
	ld   r14,fr
	add  r14,#0xffffff9c
	ld   [fr,-332],r14
	ld   d0,fr
	add  d0,#0xffffff30
	ld   r14,[fr,-44]
	add  r14,#0x398
	ld   r0,[fr,-44]
	add  r0,#0xac
	ld   i0,r14
	ld   i1,r0
	call &__ZN6MAUtil3MapIixEixERKi
	ld   i0,d0
	ld   i1,[r14]
	ld   i2,[r14,4]
	call &__ZN7Convert8toStringEx
	ld   r14,fr
	add  r14,#0xffffff30
	ld   i0,[fr,-260]
	ld   i1,[fr,-332]
	ld   i2,r14
	call &__ZNK6MAUtil11BasicStringIcEplERKS1_
	ld   d0,fr
	add  d0,#0xffffffa0
	ld   r14,fr
	add  r14,#0xffffff2c
	ld   i0,r14
	ld   i1,#LC73
	call &__ZN6MAUtil11BasicStringIcEC1EPKc
	ld   r14,fr
	add  r14,#0xffffff2c
	ld   i0,[fr,-256]
	ld   i1,d0
	ld   i2,r14
	call &__ZNK6MAUtil11BasicStringIcEplERKS1_
	ld   r14,fr
	add  r14,#0xffffffa4
	ld   [fr,-336],r14
	ld   d0,fr
	add  d0,#0xffffff28
	ld   r14,[fr,-44]
	add  r14,#0x2e8
	ld   r0,[fr,-44]
	add  r0,#0xa8
	ld   i0,r14
	ld   i1,r0
	call &__ZN6MAUtil3MapIixEixERKi
	ld   i0,d0
	ld   i1,[r14]
	ld   i2,[r14,4]
	call &__ZN7Convert8toStringEx
	ld   r14,fr
	add  r14,#0xffffff28
	ld   i0,[fr,-252]
	ld   i1,[fr,-336]
	ld   i2,r14
	call &__ZNK6MAUtil11BasicStringIcEplERKS1_
	ld   d0,fr
	add  d0,#0xffffffa8
	ld   r14,fr
	add  r14,#0xffffff24
	ld   i0,r14
	ld   i1,#LC74
	call &__ZN6MAUtil11BasicStringIcEC1EPKc
	ld   r14,fr
	add  r14,#0xffffff24
	ld   i0,d7
	ld   i1,d0
	ld   i2,r14
	call &__ZNK6MAUtil11BasicStringIcEplERKS1_
	ld   d7,fr
	add  d7,#0xffffffac
	ld   d0,fr
	add  d0,#0xffffff20
	ld   r14,[fr,-44]
	add  r14,#0x440
	ld   r0,[fr,-44]
	add  r0,#0xac
	ld   i0,r14
	ld   i1,r0
	call &__ZN6MAUtil3MapIixEixERKi
	ld   i0,d0
	ld   i1,[r14]
	ld   i2,[r14,4]
	call &__ZN7Convert8toStringEx
	ld   r14,fr
	add  r14,#0xffffff20
	ld   i0,d6
	ld   i1,d7
	ld   i2,r14
	call &__ZNK6MAUtil11BasicStringIcEplERKS1_
	ld   d0,fr
	add  d0,#0xffffffb0
	ld   r14,fr
	add  r14,#0xffffff1c
	ld   i0,r14
	ld   i1,#LC75
	call &__ZN6MAUtil11BasicStringIcEC1EPKc
	ld   r14,fr
	add  r14,#0xffffff1c
	ld   i0,d5
	ld   i1,d0
	ld   i2,r14
	call &__ZNK6MAUtil11BasicStringIcEplERKS1_
	ld   d5,fr
	add  d5,#0xffffffb4
	ld   d0,fr
	add  d0,#0xffffff18
	ld   r14,[fr,-44]
	add  r14,#0x408
	ld   r0,[fr,-44]
	add  r0,#0xac
	ld   i0,r14
	ld   i1,r0
	call &__ZN6MAUtil3MapIixEixERKi
	ld   i0,d0
	ld   i1,[r14]
	ld   i2,[r14,4]
	call &__ZN7Convert8toStringEx
	ld   r14,fr
	add  r14,#0xffffff18
	ld   i0,d4
	ld   i1,d5
	ld   i2,r14
	call &__ZNK6MAUtil11BasicStringIcEplERKS1_
	ld   d0,fr
	add  d0,#0xffffffb8
	ld   r14,fr
	add  r14,#0xffffff14
	ld   i0,r14
	ld   i1,#LC76
	call &__ZN6MAUtil11BasicStringIcEC1EPKc
	ld   r14,fr
	add  r14,#0xffffff14
	ld   i0,d3
	ld   i1,d0
	ld   i2,r14
	call &__ZNK6MAUtil11BasicStringIcEplERKS1_
	ld   d3,fr
	add  d3,#0xffffffc4
	ld   d0,fr
	add  d0,#0xffffff10
	ld   r14,[fr,-44]
	add  r14,#0x550
	ld   r0,[fr,-44]
	add  r0,#0xb4
	ld   i0,r14
	ld   i1,r0
	call &__ZN6MAUtil3MapIixEixERKi
	ld   i0,d0
	ld   i1,[r14]
	ld   i2,[r14,4]
	call &__ZN7Convert8toStringEx
	ld   r14,fr
	add  r14,#0xffffff10
	ld   i0,d2
	ld   i1,d3
	ld   i2,r14
	call &__ZNK6MAUtil11BasicStringIcEplERKS1_
	ld   d0,fr
	add  d0,#0xffffffc0
	ld   r14,fr
	add  r14,#0xffffff0c
	ld   i0,r14
	ld   i1,#LC77
	call &__ZN6MAUtil11BasicStringIcEC1EPKc
	ld   r14,fr
	add  r14,#0xffffff0c
	ld   i0,d1
	ld   i1,d0
	ld   i2,r14
	call &__ZNK6MAUtil11BasicStringIcEplERKS1_
	ld   r14,fr
	add  r14,#0xffffff0c
	ld   i0,r14
	call &__ZN6MAUtil11BasicStringIcED1Ev
	ld   r14,fr
	add  r14,#0xffffffc0
	ld   i0,r14
	call &__ZN6MAUtil11BasicStringIcED1Ev
	ld   r14,fr
	add  r14,#0xffffff10
	ld   i0,r14
	call &__ZN6MAUtil11BasicStringIcED1Ev
	ld   r14,fr
	add  r14,#0xffffffc4
	ld   i0,r14
	call &__ZN6MAUtil11BasicStringIcED1Ev
	ld   r14,fr
	add  r14,#0xffffff14
	ld   i0,r14
	call &__ZN6MAUtil11BasicStringIcED1Ev
	ld   r14,fr
	add  r14,#0xffffffb8
	ld   i0,r14
	call &__ZN6MAUtil11BasicStringIcED1Ev
	ld   r14,fr
	add  r14,#0xffffff18
	ld   i0,r14
	call &__ZN6MAUtil11BasicStringIcED1Ev
	ld   r14,fr
	add  r14,#0xffffffb4
	ld   i0,r14
	call &__ZN6MAUtil11BasicStringIcED1Ev
	ld   r14,fr
	add  r14,#0xffffff1c
	ld   i0,r14
	call &__ZN6MAUtil11BasicStringIcED1Ev
	ld   r14,fr
	add  r14,#0xffffffb0
	ld   i0,r14
	call &__ZN6MAUtil11BasicStringIcED1Ev
	ld   r14,fr
	add  r14,#0xffffff20
	ld   i0,r14
	call &__ZN6MAUtil11BasicStringIcED1Ev
	ld   r14,fr
	add  r14,#0xffffffac
	ld   i0,r14
	call &__ZN6MAUtil11BasicStringIcED1Ev
	ld   r14,fr
	add  r14,#0xffffff24
	ld   i0,r14
	call &__ZN6MAUtil11BasicStringIcED1Ev
	ld   r14,fr
	add  r14,#0xffffffa8
	ld   i0,r14
	call &__ZN6MAUtil11BasicStringIcED1Ev
	ld   r14,fr
	add  r14,#0xffffff28
	ld   i0,r14
	call &__ZN6MAUtil11BasicStringIcED1Ev
	ld   r14,fr
	add  r14,#0xffffffa4
	ld   i0,r14
	call &__ZN6MAUtil11BasicStringIcED1Ev
	ld   r14,fr
	add  r14,#0xffffff2c
	ld   i0,r14
	call &__ZN6MAUtil11BasicStringIcED1Ev
	ld   r14,fr
	add  r14,#0xffffffa0
	ld   i0,r14
	call &__ZN6MAUtil11BasicStringIcED1Ev
	ld   r14,fr
	add  r14,#0xffffff30
	ld   i0,r14
	call &__ZN6MAUtil11BasicStringIcED1Ev
	ld   r14,fr
	add  r14,#0xffffff9c
	ld   i0,r14
	call &__ZN6MAUtil11BasicStringIcED1Ev
	ld   r14,fr
	add  r14,#0xffffff34
	ld   i0,r14
	call &__ZN6MAUtil11BasicStringIcED1Ev
	ld   r14,fr
	add  r14,#0xffffff98
	ld   i0,r14
	call &__ZN6MAUtil11BasicStringIcED1Ev
	ld   r14,fr
	add  r14,#0xffffff38
	ld   i0,r14
	call &__ZN6MAUtil11BasicStringIcED1Ev
	ld   r14,fr
	add  r14,#0xffffff94
	ld   i0,r14
	call &__ZN6MAUtil11BasicStringIcED1Ev
	ld   r14,fr
	add  r14,#0xffffff3c
	ld   i0,r14
	call &__ZN6MAUtil11BasicStringIcED1Ev
	ld   r14,fr
	add  r14,#0xffffff90
	ld   i0,r14
	call &__ZN6MAUtil11BasicStringIcED1Ev
	ld   r14,fr
	add  r14,#0xffffff40
	ld   i0,r14
	call &__ZN6MAUtil11BasicStringIcED1Ev
	ld   r14,fr
	add  r14,#0xffffff8c
	ld   i0,r14
	call &__ZN6MAUtil11BasicStringIcED1Ev
	ld   r14,fr
	add  r14,#0xffffff44
	ld   i0,r14
	call &__ZN6MAUtil11BasicStringIcED1Ev
	ld   r14,fr
	add  r14,#0xffffff88
	ld   i0,r14
	call &__ZN6MAUtil11BasicStringIcED1Ev
	ld   r14,fr
	add  r14,#0xffffff48
	ld   i0,r14
	call &__ZN6MAUtil11BasicStringIcED1Ev
	ld   r14,fr
	add  r14,#0xffffff84
	ld   i0,r14
	call &__ZN6MAUtil11BasicStringIcED1Ev
	ld   r14,fr
	add  r14,#0xffffff4c
	ld   i0,r14
	call &__ZN6MAUtil11BasicStringIcED1Ev
	ld   r14,fr
	add  r14,#0xffffff80
	ld   i0,r14
	call &__ZN6MAUtil11BasicStringIcED1Ev
	ld   r14,fr
	add  r14,#0xffffff50
	ld   i0,r14
	call &__ZN6MAUtil11BasicStringIcED1Ev
	ld   r14,fr
	add  r14,#0xffffff7c
	ld   i0,r14
	call &__ZN6MAUtil11BasicStringIcED1Ev
	ld   r14,fr
	add  r14,#0xffffff54
	ld   i0,r14
	call &__ZN6MAUtil11BasicStringIcED1Ev
	ld   r14,fr
	add  r14,#0xffffff78
	ld   i0,r14
	call &__ZN6MAUtil11BasicStringIcED1Ev
	ld   r14,fr
	add  r14,#0xffffff58
	ld   i0,r14
	call &__ZN6MAUtil11BasicStringIcED1Ev
	ld   r14,fr
	add  r14,#0xffffff74
	ld   i0,r14
	call &__ZN6MAUtil11BasicStringIcED1Ev
	ld   r14,fr
	add  r14,#0xffffff5c
	ld   i0,r14
	call &__ZN6MAUtil11BasicStringIcED1Ev
	ld   r14,fr
	add  r14,#0xffffff70
	ld   i0,r14
	call &__ZN6MAUtil11BasicStringIcED1Ev
	ld   r14,fr
	add  r14,#0xffffff60
	ld   i0,r14
	call &__ZN6MAUtil11BasicStringIcED1Ev
	ld   r14,fr
	add  r14,#0xffffff6c
	ld   i0,r14
	call &__ZN6MAUtil11BasicStringIcED1Ev
	ld   r14,fr
	add  r14,#0xffffff64
	ld   i0,r14
	call &__ZN6MAUtil11BasicStringIcED1Ev
	ld   r14,fr
	add  r14,#0xffffff68
	ld   i0,r14
	call &__ZN6MAUtil11BasicStringIcED1Ev
	.dlab LBB94
	.line 548
	ld   r14,#0x0
	ld   [fr,-248],r14
L209:
	ld   r14,[fr,-44]
	add  r14,#0x9c8
	ld   i0,r14
	call &__ZNK6MAUtil10DictionaryIKiNS_4PairIS1_xEEE4sizeEv
	ld   r0,r14
	ld   r14,[fr,-248]
	jc   geu,r14,r0,#L210
	.line 549
	ld   r0,[fr,-248]
	ld   r14,#0x0
	jc   eq,r0,r14,#L212
	.line 550
	ld   r14,fr
	add  r14,#0xffffff0c
	ld   i0,r14
	ld   i1,#LC78
	call &__ZN6MAUtil11BasicStringIcEC1EPKc
	ld   r0,fr
	add  r0,#0xffffff0c
	ld   r14,fr
	add  r14,#0xffffffbc
	ld   i0,r14
	ld   i1,r0
	call &__ZN6MAUtil11BasicStringIcEpLERKS1_
	ld   r14,fr
	add  r14,#0xffffff0c
	ld   i0,r14
	call &__ZN6MAUtil11BasicStringIcED1Ev
L212:
	.line 552
	ld   d0,fr
	add  d0,#0xffffff0c
	ld   r14,[fr,-44]
	add  r14,#0x9c8
	ld   r0,fr
	add  r0,#0xffffff08
	ld   i0,r14
	ld   i1,r0
	call &__ZN6MAUtil3MapIixEixERKi
	ld   i0,d0
	ld   i1,[r14]
	ld   i2,[r14,4]
	call &__ZN7Convert8toStringEx
	ld   r0,fr
	add  r0,#0xffffff0c
	ld   r14,fr
	add  r14,#0xffffffbc
	ld   i0,r14
	ld   i1,r0
	call &__ZN6MAUtil11BasicStringIcEpLERKS1_
	ld   r14,fr
	add  r14,#0xffffff0c
	ld   i0,r14
	call &__ZN6MAUtil11BasicStringIcED1Ev
	.line 548
	ld   r14,[fr,-248]
	add  r14,#0x1
	ld   [fr,-248],r14
	jp   #L209
L210:
	.dlab LBE94
	.line 554
	ld   r14,fr
	add  r14,#0xffffff0c
	ld   i0,r14
	ld   i1,#LC79
	call &__ZN6MAUtil11BasicStringIcEC1EPKc
	ld   r0,fr
	add  r0,#0xffffff0c
	ld   r14,fr
	add  r14,#0xffffffbc
	ld   i0,r14
	ld   i1,r0
	call &__ZN6MAUtil11BasicStringIcEpLERKS1_
	ld   r14,fr
	add  r14,#0xffffff0c
	ld   i0,r14
	call &__ZN6MAUtil11BasicStringIcED1Ev
	.line 556
	ld   r14,fr
	add  r14,#0xffffffbc
	ld   i0,r14
	call &__ZNK6MAUtil11BasicStringIcE5c_strEv
	ld   i0,r14
	call &_printf
	.line 557
	ld   r14,fr
	add  r14,#0xffffff0c
	ld   r0,fr
	add  r0,#0xffffffcc
	ld   i0,r14
	ld   i1,r0
	call &__ZN6MAUtil11BasicStringIcEC1ERKS1_
	ld   d0,fr
	add  d0,#0xffffff0c
	ld   r14,fr
	add  r14,#0xffffff10
	ld   r0,fr
	add  r0,#0xffffffbc
	ld   i0,r14
	ld   i1,r0
	call &__ZN6MAUtil11BasicStringIcEC1ERKS1_
	ld   r14,fr
	add  r14,#0xffffff10
	ld   r0,[fr,-44]
	add  r0,#0x54
	ld   [sp],r14
	ld   i0,r0
	ld   i1,d0
	ld   i2,#0xc
	ld   i3,#0x1
	call &__ZN11Connections10connectUrlEN6MAUtil11BasicStringIcEENS_9eFonctionEiS2_
	ld   r14,fr
	add  r14,#0xffffff10
	ld   i0,r14
	call &__ZN6MAUtil11BasicStringIcED1Ev
	ld   r14,fr
	add  r14,#0xffffff0c
	ld   i0,r14
	call &__ZN6MAUtil11BasicStringIcED1Ev
	ld   r14,fr
	add  r14,#0xffffffbc
	ld   i0,r14
	call &__ZN6MAUtil11BasicStringIcED1Ev
	ld   r14,fr
	add  r14,#0xffffffcc
	ld   i0,r14
	call &__ZN6MAUtil11BasicStringIcED1Ev
L203:
	.dlab LBE93
	.dlab LBE91
	.dlab LBE90
	.dlab LBE89
	.line 559
	add  sp,#0x12c
	pop  rt,d7
	ret
	.stabs	"urlTmp:(13,1)",128,0,500,-52
	.stabs	"message:(13,1)",128,0,503,-60
	.stabn	192,0,0,LBB92-__ZN8AlertTab21parseJSONPostMediaSpeEPN6MAUtil7YAJLDom5ValueE
	.stabn	224,0,0,LBE92-__ZN8AlertTab21parseJSONPostMediaSpeEPN6MAUtil7YAJLDom5ValueE
	.stabs	"urlTmp:(13,1)",128,0,512,-52
	.stabs	"message:(13,1)",128,0,516,-68
	.stabn	192,0,0,LBB93-__ZN8AlertTab21parseJSONPostMediaSpeEPN6MAUtil7YAJLDom5ValueE
	.stabs	"idx:(0,3)",128,0,548,-248
	.stabn	192,0,0,LBB94-__ZN8AlertTab21parseJSONPostMediaSpeEPN6MAUtil7YAJLDom5ValueE
	.stabn	224,0,0,LBE94-__ZN8AlertTab21parseJSONPostMediaSpeEPN6MAUtil7YAJLDom5ValueE
	.stabn	224,0,0,LBE93-__ZN8AlertTab21parseJSONPostMediaSpeEPN6MAUtil7YAJLDom5ValueE
Lscope47:
.data
LC80:
	.ascii "parseJSONMediaValue\0"
LC81:
	.ascii "0\0"
.code
	.stabs	"_ZN8AlertTab19parseJSONMediaValueEPN6MAUtil7YAJLDom5ValueE:F(0,6)",36,0,561,__ZN8AlertTab19parseJSONMediaValueEPN6MAUtil7YAJLDom5ValueE
	.stabs	"this:p(0,25)",160,0,561,-28
	.stabs	"root:p(24,35)",160,0,561,-32
	.global	__ZN8AlertTab19parseJSONMediaValueEPN6MAUtil7YAJLDom5ValueE

.func __ZN8AlertTab19parseJSONMediaValueEPN6MAUtil7YAJLDom5ValueE, 2, void
	.line 561
	push rt,d3
	sub  sp,#0x24
	ld   fr,sp
	add  fr,#0x3c
	ld   [fr,-28],i0
	ld   [fr,-32],i1
	.dlab LBB95
	.dlab LBB96
	.line 562
	ld   i0,#LC80
	call &_lprintfln
	.dlab LBB97
	.line 563
	ld   r0,[fr,-32]
	ld   r14,#0x0
	jc   eq,r0,r14,#L215
	ld   i0,[fr,-32]
	call &__ZNK6MAUtil7YAJLDom5Value7getTypeEv
	ld   r0,r14
	ld   r14,#0x0
	jc   eq,r0,r14,#L215
	ld   i0,[fr,-32]
	call &__ZNK6MAUtil7YAJLDom5Value7getTypeEv
	ld   r0,r14
	ld   r14,#0x3
	jc   ne,r0,r14,#L215
	jp   #L214
L215:
	.line 565
	ld   i0,#LC40
	call &_lprintfln
	jp   #L216
L214:
	.dlab LBB98
	.line 567
	ld   i0,#LC41
	call &_lprintfln
	.dlab LBB99
	.line 569
	ld   r14,[fr,-28]
	ld   r0,[r14,2060]
	ld   r14,#0x0
	jc   ne,r0,r14,#L217
	.line 570
	ld   d3,[fr,-28]
	ld   r14,[fr,-28]
	ld   r14,[r14,156]
	add  r14,#0x2b
	ld   i0,r14
	call &__ZN7Convert2trEi
	ld   r0,r14
	ld   r14,fr
	add  r14,#0xffffffdc
	ld   i0,r14
	ld   i1,r0
	call &__ZN6MAUtil11BasicStringIcEC1EPKc
	ld   d1,fr
	add  d1,#0xffffffdc
	ld   r14,fr
	add  r14,#0xffffffd8
	ld   i0,r14
	ld   i1,#LC81
	call &__ZN6MAUtil11BasicStringIcEC1EPKc
	ld   d2,fr
	add  d2,#0xffffffd8
	ld   i0,#0x44
	call &__Znwm
	ld   d0,r14
	ld   i0,d0
	ld   i1,d1
	ld   i2,d2
	call &__ZN4PageC1EN6MAUtil11BasicStringIcEES2_
	ld   [d3,2060],d0
	ld   r14,fr
	add  r14,#0xffffffd8
	ld   i0,r14
	call &__ZN6MAUtil11BasicStringIcED1Ev
	ld   r14,fr
	add  r14,#0xffffffdc
	ld   i0,r14
	call &__ZN6MAUtil11BasicStringIcED1Ev
	.line 572
	ld   d1,[fr,-28]
	ld   i0,#0x3c
	call &__Znwm
	ld   d0,r14
	ld   i0,d0
	ld   i1,#0x0
	ld   i2,#0x0
	call &__ZN8NativeUI8ListViewC1ENS_12ListViewTypeENS_13ListViewStyleE
	ld   [d1,2064],d0
	.line 573
	ld   r14,[fr,-28]
	ld   r14,[r14,2064]
	ld   r14,[r14]
	add  r14,#0xa0
	ld   r0,[fr,-28]
	ld   r1,[fr,-28]
	add  r1,#0x4c
	ld   r14,[r14]
	ld   i0,[r0,2064]
	ld   i1,r1
	call r14
	.line 574
	ld   r14,[fr,-28]
	ld   r14,[r14,2060]
	ld   r14,[r14]
	add  r14,#0x34
	ld   r0,[fr,-28]
	ld   r1,[fr,-28]
	ld   r14,[r14]
	ld   i0,[r0,2060]
	ld   i1,[r1,2064]
	call r14
	jp   #L218
L217:
	.dlab LBB100
	.line 576
	ld   r14,[fr,-28]
	add  r14,#0x84c
	ld   i0,r14
	call &__ZNK6MAUtil10DictionaryIKiNS_4PairIS1_PN8NativeUI12ListViewItemEEEE4sizeEv
	ld   [fr,-44],r14
	.dlab LBB101
	.line 577
	ld   r0,#0x0
	ld   [fr,-48],r0
L219:
	ld   r0,[fr,-48]
	ld   r14,[fr,-44]
	jc   ge,r0,r14,#L220
	.line 578
	ld   r14,[fr,-28]
	add  r14,#0x84c
	ld   r0,fr
	add  r0,#0xffffffd0
	ld   i0,r14
	ld   i1,r0
	call &__ZN6MAUtil3MapIiPN8NativeUI12ListViewItemEEixERKi
	ld   r1,[r14]
	ld   r14,[fr,-28]
	ld   r14,[r14,2064]
	ld   r14,[r14]
	add  r14,#0x3c
	ld   r0,[fr,-28]
	ld   r14,[r14]
	ld   i0,[r0,2064]
	ld   i1,r1
	call r14
	.line 579
	ld   r14,[fr,-28]
	add  r14,#0x84c
	ld   r0,fr
	add  r0,#0xffffffd0
	ld   i0,r14
	ld   i1,r0
	call &__ZN6MAUtil3MapIiPN8NativeUI12ListViewItemEEixERKi
	ld   d0,[r14]
	ld   r14,[fr,-28]
	add  r14,#0x884
	ld   r0,fr
	add  r0,#0xffffffd0
	ld   i0,r14
	ld   i1,r0
	call &__ZN6MAUtil3MapIiPN8NativeUI5LabelEEixERKi
	ld   r0,[r14]
	ld   r14,[d0]
	add  r14,#0x3c
	ld   r14,[r14]
	ld   i0,d0
	ld   i1,r0
	call r14
	.line 580
	ld   r14,[fr,-28]
	add  r14,#0x884
	ld   r0,fr
	add  r0,#0xffffffd0
	ld   i0,r14
	ld   i1,r0
	call &__ZN6MAUtil3MapIiPN8NativeUI5LabelEEixERKi
	ld   r14,[r14]
	ld   [fr,-56],r14
	ld   r14,#0x0
	ld   r0,[fr,-56]
	jc   eq,r0,r14,#L223
	ld   r0,[fr,-56]
	ld   r14,[r0]
	add  r14,#0x4
	ld   r14,[r14]
	ld   i0,[fr,-56]
	call r14
L223:
	.line 581
	ld   r14,[fr,-28]
	add  r14,#0x84c
	ld   r0,fr
	add  r0,#0xffffffd0
	ld   i0,r14
	ld   i1,r0
	call &__ZN6MAUtil3MapIiPN8NativeUI12ListViewItemEEixERKi
	ld   r14,[r14]
	ld   [fr,-60],r14
	ld   r14,#0x0
	ld   r0,[fr,-60]
	jc   eq,r0,r14,#L221
	ld   r0,[fr,-60]
	ld   r14,[r0]
	add  r14,#0x4
	ld   r14,[r14]
	ld   i0,[fr,-60]
	call r14
L221:
	.line 577
	ld   r14,[fr,-48]
	add  r14,#0x1
	ld   [fr,-48],r14
	jp   #L219
L220:
	.dlab LBE101
	.line 583
	ld   r14,[fr,-28]
	add  r14,#0x884
	ld   i0,r14
	call &__ZN6MAUtil10DictionaryIKiNS_4PairIS1_PN8NativeUI5LabelEEEE5clearEv
	.line 584
	ld   r14,[fr,-28]
	add  r14,#0x84c
	ld   i0,r14
	call &__ZN6MAUtil10DictionaryIKiNS_4PairIS1_PN8NativeUI12ListViewItemEEEE5clearEv
L218:
	.dlab LBE100
	.dlab LBE99
	.dlab LBB102
	.line 587
	ld   r14,#0x0
	ld   [fr,-48],r14
L226:
	ld   r14,[fr,-32]
	ld   r14,[r14]
	add  r14,#0x28
	ld   r14,[r14]
	ld   i0,[fr,-32]
	call r14
	ld   r0,r14
	add  r0,#0xffffffff
	ld   r14,[fr,-48]
	jc   lt,r0,r14,#L216
	.dlab LBB103
	.dlab LBB104
	.line 588
	ld   r14,[fr,-32]
	ld   r14,[r14]
	add  r14,#0x1c
	ld   r14,[r14]
	ld   i0,[fr,-32]
	ld   i1,[fr,-48]
	call r14
	ld   [fr,-44],r14
	.line 589
	ld   r14,[fr,-28]
	add  r14,#0x814
	ld   r0,fr
	add  r0,#0xffffffd0
	ld   i0,r14
	ld   i1,r0
	call &__ZN6MAUtil3MapIixEixERKi
	ld   d0,r14
	ld   r14,fr
	add  r14,#0xffffffd8
	ld   i0,r14
	ld   i1,#LC62
	call &__ZN6MAUtil11BasicStringIcEC1EPKc
	ld   r0,fr
	add  r0,#0xffffffd8
	ld   r14,[fr,-44]
	ld   r14,[r14]
	add  r14,#0x18
	ld   r14,[r14]
	ld   i0,[fr,-44]
	ld   i1,r0
	call r14
	ld   r0,r14
	ld   r14,[r0]
	add  r14,#0x10
	ld   r14,[r14]
	ld   i0,r0
	call r14
	ld   [d0],r14
	sra  r14,#0x1f
	ld   [d0,4],r14
	ld   r14,fr
	add  r14,#0xffffffd8
	ld   i0,r14
	call &__ZN6MAUtil11BasicStringIcED1Ev
	.line 590
	ld   r14,[fr,-28]
	add  r14,#0x884
	ld   r0,fr
	add  r0,#0xffffffd0
	ld   i0,r14
	ld   i1,r0
	call &__ZN6MAUtil3MapIiPN8NativeUI5LabelEEixERKi
	ld   d1,r14
	ld   i0,#0x30
	call &__Znwm
	ld   d0,r14
	ld   i0,d0
	call &__ZN8NativeUI5LabelC1Ev
	ld   [d1],d0
	.line 591
	ld   r14,[fr,-28]
	add  r14,#0x884
	ld   r0,fr
	add  r0,#0xffffffd0
	ld   i0,r14
	ld   i1,r0
	call &__ZN6MAUtil3MapIiPN8NativeUI5LabelEEixERKi
	ld   d0,[r14]
	ld   d1,fr
	add  d1,#0xffffffdc
	ld   r14,fr
	add  r14,#0xffffffcc
	ld   i0,r14
	ld   i1,#LC43
	call &__ZN6MAUtil11BasicStringIcEC1EPKc
	ld   r0,fr
	add  r0,#0xffffffcc
	ld   r14,[fr,-44]
	ld   r14,[r14]
	add  r14,#0x18
	ld   r14,[r14]
	ld   i0,[fr,-44]
	ld   i1,r0
	call r14
	ld   r0,r14
	ld   r14,[r0]
	add  r14,#0x8
	ld   r14,[r14]
	ld   i0,d1
	ld   i1,r0
	call r14
	ld   r14,fr
	add  r14,#0xffffffdc
	ld   i0,r14
	call &__ZNK6MAUtil11BasicStringIcE5c_strEv
	ld   r0,r14
	ld   r14,fr
	add  r14,#0xffffffd8
	ld   i0,r14
	ld   i1,r0
	call &__ZN6MAUtil11BasicStringIcEC1EPKc
	ld   r0,fr
	add  r0,#0xffffffd8
	ld   r14,[d0]
	add  r14,#0xa0
	ld   r14,[r14]
	ld   i0,d0
	ld   i1,r0
	call r14
	ld   r14,fr
	add  r14,#0xffffffd8
	ld   i0,r14
	call &__ZN6MAUtil11BasicStringIcED1Ev
	ld   r14,fr
	add  r14,#0xffffffdc
	ld   i0,r14
	call &__ZN6MAUtil11BasicStringIcED1Ev
	ld   r14,fr
	add  r14,#0xffffffcc
	ld   i0,r14
	call &__ZN6MAUtil11BasicStringIcED1Ev
	.line 593
	ld   r14,[fr,-28]
	add  r14,#0x84c
	ld   r0,fr
	add  r0,#0xffffffd0
	ld   i0,r14
	ld   i1,r0
	call &__ZN6MAUtil3MapIiPN8NativeUI12ListViewItemEEixERKi
	ld   d1,r14
	ld   i0,#0x30
	call &__Znwm
	ld   d0,r14
	ld   i0,d0
	call &__ZN8NativeUI12ListViewItemC1Ev
	ld   [d1],d0
	.line 594
	ld   r14,[fr,-28]
	add  r14,#0x84c
	ld   r0,fr
	add  r0,#0xffffffd0
	ld   i0,r14
	ld   i1,r0
	call &__ZN6MAUtil3MapIiPN8NativeUI12ListViewItemEEixERKi
	ld   d0,[r14]
	ld   r14,[fr,-28]
	add  r14,#0x884
	ld   r0,fr
	add  r0,#0xffffffd0
	ld   i0,r14
	ld   i1,r0
	call &__ZN6MAUtil3MapIiPN8NativeUI5LabelEEixERKi
	ld   r0,[r14]
	ld   r14,[d0]
	add  r14,#0x34
	ld   r14,[r14]
	ld   i0,d0
	ld   i1,r0
	call r14
	.line 595
	ld   r14,[fr,-28]
	add  r14,#0x84c
	ld   r0,fr
	add  r0,#0xffffffd0
	ld   i0,r14
	ld   i1,r0
	call &__ZN6MAUtil3MapIiPN8NativeUI12ListViewItemEEixERKi
	ld   r1,[r14]
	ld   r14,[fr,-28]
	ld   r14,[r14,2064]
	ld   r14,[r14]
	add  r14,#0x34
	ld   r0,[fr,-28]
	ld   r14,[r14]
	ld   i0,[r0,2064]
	ld   i1,r1
	call r14
	.dlab LBE104
	.dlab LBE103
	.line 587
	ld   r14,[fr,-48]
	add  r14,#0x1
	ld   [fr,-48],r14
	jp   #L226
L216:
	.dlab LBE102
	.dlab LBE98
	.dlab LBE97
	.line 599
	ld   r14,[fr,-28]
	ld   i0,[fr,-28]
	ld   i1,[r14,2060]
	call &__ZN8NativeUI6Screen13setMainWidgetEPNS_6WidgetE
	.line 600
	ld   r0,[fr,-28]
	ld   r14,[fr,-28]
	ld   r14,[r14,2060]
	ld   [r0,160],r14
	.dlab LBE96
	.dlab LBE95
	.line 601
	add  sp,#0x24
	pop  rt,d3
	ret
	.stabs	"index:(0,3)",128,0,576,-44
	.stabn	192,0,0,LBB100-__ZN8AlertTab19parseJSONMediaValueEPN6MAUtil7YAJLDom5ValueE
	.stabs	"idx:(0,3)",128,0,577,-48
	.stabn	192,0,0,LBB101-__ZN8AlertTab19parseJSONMediaValueEPN6MAUtil7YAJLDom5ValueE
	.stabn	224,0,0,LBE101-__ZN8AlertTab19parseJSONMediaValueEPN6MAUtil7YAJLDom5ValueE
	.stabn	224,0,0,LBE100-__ZN8AlertTab19parseJSONMediaValueEPN6MAUtil7YAJLDom5ValueE
	.stabs	"idx:(0,3)",128,0,587,-48
	.stabn	192,0,0,LBB102-__ZN8AlertTab19parseJSONMediaValueEPN6MAUtil7YAJLDom5ValueE
	.stabs	"valueTmp:(24,35)",128,0,588,-44
	.stabn	192,0,0,LBB104-__ZN8AlertTab19parseJSONMediaValueEPN6MAUtil7YAJLDom5ValueE
	.stabn	224,0,0,LBE104-__ZN8AlertTab19parseJSONMediaValueEPN6MAUtil7YAJLDom5ValueE
	.stabn	224,0,0,LBE102-__ZN8AlertTab19parseJSONMediaValueEPN6MAUtil7YAJLDom5ValueE
Lscope48:
.data
LC82:
	.ascii "parseJSONMediaType\0"
.code
	.stabs	"_ZN8AlertTab18parseJSONMediaTypeEPN6MAUtil7YAJLDom5ValueE:F(0,6)",36,0,603,__ZN8AlertTab18parseJSONMediaTypeEPN6MAUtil7YAJLDom5ValueE
	.stabs	"this:p(0,25)",160,0,603,-28
	.stabs	"root:p(24,35)",160,0,603,-32
	.global	__ZN8AlertTab18parseJSONMediaTypeEPN6MAUtil7YAJLDom5ValueE

.func __ZN8AlertTab18parseJSONMediaTypeEPN6MAUtil7YAJLDom5ValueE, 2, void
	.line 603
	push rt,d3
	sub  sp,#0x24
	ld   fr,sp
	add  fr,#0x3c
	ld   [fr,-28],i0
	ld   [fr,-32],i1
	.dlab LBB105
	.dlab LBB106
	.line 604
	ld   i0,#LC82
	call &_lprintfln
	.dlab LBB107
	.line 605
	ld   r0,[fr,-32]
	ld   r14,#0x0
	jc   eq,r0,r14,#L231
	ld   i0,[fr,-32]
	call &__ZNK6MAUtil7YAJLDom5Value7getTypeEv
	ld   r0,r14
	ld   r14,#0x0
	jc   eq,r0,r14,#L231
	ld   i0,[fr,-32]
	call &__ZNK6MAUtil7YAJLDom5Value7getTypeEv
	ld   r0,r14
	ld   r14,#0x3
	jc   ne,r0,r14,#L231
	jp   #L230
L231:
	.line 607
	ld   i0,#LC40
	call &_lprintfln
	jp   #L232
L230:
	.dlab LBB108
	.line 609
	ld   i0,#LC41
	call &_lprintfln
	.dlab LBB109
	.line 610
	ld   r14,[fr,-28]
	ld   r0,[r14,1884]
	ld   r14,#0x0
	jc   ne,r0,r14,#L233
	.line 611
	ld   d3,[fr,-28]
	ld   r14,[fr,-28]
	ld   r14,[r14,156]
	add  r14,#0x29
	ld   i0,r14
	call &__ZN7Convert2trEi
	ld   r0,r14
	ld   r14,fr
	add  r14,#0xffffffdc
	ld   i0,r14
	ld   i1,r0
	call &__ZN6MAUtil11BasicStringIcEC1EPKc
	ld   d1,fr
	add  d1,#0xffffffdc
	ld   r14,fr
	add  r14,#0xffffffd8
	ld   i0,r14
	ld   i1,#LC81
	call &__ZN6MAUtil11BasicStringIcEC1EPKc
	ld   d2,fr
	add  d2,#0xffffffd8
	ld   i0,#0x44
	call &__Znwm
	ld   d0,r14
	ld   i0,d0
	ld   i1,d1
	ld   i2,d2
	call &__ZN4PageC1EN6MAUtil11BasicStringIcEES2_
	ld   [d3,1884],d0
	ld   r14,fr
	add  r14,#0xffffffd8
	ld   i0,r14
	call &__ZN6MAUtil11BasicStringIcED1Ev
	ld   r14,fr
	add  r14,#0xffffffdc
	ld   i0,r14
	call &__ZN6MAUtil11BasicStringIcED1Ev
	.line 613
	ld   d1,[fr,-28]
	ld   i0,#0x3c
	call &__Znwm
	ld   d0,r14
	ld   i0,d0
	ld   i1,#0x0
	ld   i2,#0x0
	call &__ZN8NativeUI8ListViewC1ENS_12ListViewTypeENS_13ListViewStyleE
	ld   [d1,1888],d0
	.line 614
	ld   r14,[fr,-28]
	ld   r14,[r14,1888]
	ld   r14,[r14]
	add  r14,#0xa0
	ld   r0,[fr,-28]
	ld   r1,[fr,-28]
	add  r1,#0x4c
	ld   r14,[r14]
	ld   i0,[r0,1888]
	ld   i1,r1
	call r14
	.line 615
	ld   r14,[fr,-28]
	ld   r14,[r14,1884]
	ld   r14,[r14]
	add  r14,#0x34
	ld   r0,[fr,-28]
	ld   r1,[fr,-28]
	ld   r14,[r14]
	ld   i0,[r0,1884]
	ld   i1,[r1,1888]
	call r14
	jp   #L234
L233:
	.dlab LBB110
	.line 617
	ld   r14,[fr,-28]
	add  r14,#0x79c
	ld   i0,r14
	call &__ZNK6MAUtil10DictionaryIKiNS_4PairIS1_PN8NativeUI12ListViewItemEEEE4sizeEv
	ld   [fr,-44],r14
	.dlab LBB111
	.line 618
	ld   r0,#0x0
	ld   [fr,-48],r0
L235:
	ld   r0,[fr,-48]
	ld   r14,[fr,-44]
	jc   ge,r0,r14,#L236
	.line 619
	ld   r14,[fr,-28]
	add  r14,#0x79c
	ld   r0,fr
	add  r0,#0xffffffd0
	ld   i0,r14
	ld   i1,r0
	call &__ZN6MAUtil3MapIiPN8NativeUI12ListViewItemEEixERKi
	ld   r1,[r14]
	ld   r14,[fr,-28]
	ld   r14,[r14,1888]
	ld   r14,[r14]
	add  r14,#0x3c
	ld   r0,[fr,-28]
	ld   r14,[r14]
	ld   i0,[r0,1888]
	ld   i1,r1
	call r14
	.line 620
	ld   r14,[fr,-28]
	add  r14,#0x79c
	ld   r0,fr
	add  r0,#0xffffffd0
	ld   i0,r14
	ld   i1,r0
	call &__ZN6MAUtil3MapIiPN8NativeUI12ListViewItemEEixERKi
	ld   d0,[r14]
	ld   r14,[fr,-28]
	add  r14,#0x7d4
	ld   r0,fr
	add  r0,#0xffffffd0
	ld   i0,r14
	ld   i1,r0
	call &__ZN6MAUtil3MapIiPN8NativeUI5LabelEEixERKi
	ld   r0,[r14]
	ld   r14,[d0]
	add  r14,#0x3c
	ld   r14,[r14]
	ld   i0,d0
	ld   i1,r0
	call r14
	.line 621
	ld   r14,[fr,-28]
	add  r14,#0x7d4
	ld   r0,fr
	add  r0,#0xffffffd0
	ld   i0,r14
	ld   i1,r0
	call &__ZN6MAUtil3MapIiPN8NativeUI5LabelEEixERKi
	ld   r14,[r14]
	ld   [fr,-56],r14
	ld   r14,#0x0
	ld   r0,[fr,-56]
	jc   eq,r0,r14,#L239
	ld   r0,[fr,-56]
	ld   r14,[r0]
	add  r14,#0x4
	ld   r14,[r14]
	ld   i0,[fr,-56]
	call r14
L239:
	.line 622
	ld   r14,[fr,-28]
	add  r14,#0x79c
	ld   r0,fr
	add  r0,#0xffffffd0
	ld   i0,r14
	ld   i1,r0
	call &__ZN6MAUtil3MapIiPN8NativeUI12ListViewItemEEixERKi
	ld   r14,[r14]
	ld   [fr,-60],r14
	ld   r14,#0x0
	ld   r0,[fr,-60]
	jc   eq,r0,r14,#L237
	ld   r0,[fr,-60]
	ld   r14,[r0]
	add  r14,#0x4
	ld   r14,[r14]
	ld   i0,[fr,-60]
	call r14
L237:
	.line 618
	ld   r14,[fr,-48]
	add  r14,#0x1
	ld   [fr,-48],r14
	jp   #L235
L236:
	.dlab LBE111
	.line 624
	ld   r14,[fr,-28]
	add  r14,#0x7d4
	ld   i0,r14
	call &__ZN6MAUtil10DictionaryIKiNS_4PairIS1_PN8NativeUI5LabelEEEE5clearEv
	.line 625
	ld   r14,[fr,-28]
	add  r14,#0x79c
	ld   i0,r14
	call &__ZN6MAUtil10DictionaryIKiNS_4PairIS1_PN8NativeUI12ListViewItemEEEE5clearEv
L234:
	.dlab LBE110
	.dlab LBE109
	.dlab LBB112
	.line 627
	ld   r14,#0x0
	ld   [fr,-48],r14
L242:
	ld   r14,[fr,-32]
	ld   r14,[r14]
	add  r14,#0x28
	ld   r14,[r14]
	ld   i0,[fr,-32]
	call r14
	ld   r0,r14
	add  r0,#0xffffffff
	ld   r14,[fr,-48]
	jc   lt,r0,r14,#L232
	.dlab LBB113
	.dlab LBB114
	.line 628
	ld   r14,[fr,-32]
	ld   r14,[r14]
	add  r14,#0x1c
	ld   r14,[r14]
	ld   i0,[fr,-32]
	ld   i1,[fr,-48]
	call r14
	ld   [fr,-44],r14
	.line 629
	ld   r14,[fr,-28]
	add  r14,#0x764
	ld   r0,fr
	add  r0,#0xffffffd0
	ld   i0,r14
	ld   i1,r0
	call &__ZN6MAUtil3MapIixEixERKi
	ld   d0,r14
	ld   r14,fr
	add  r14,#0xffffffd8
	ld   i0,r14
	ld   i1,#LC62
	call &__ZN6MAUtil11BasicStringIcEC1EPKc
	ld   r0,fr
	add  r0,#0xffffffd8
	ld   r14,[fr,-44]
	ld   r14,[r14]
	add  r14,#0x18
	ld   r14,[r14]
	ld   i0,[fr,-44]
	ld   i1,r0
	call r14
	ld   r0,r14
	ld   r14,[r0]
	add  r14,#0x10
	ld   r14,[r14]
	ld   i0,r0
	call r14
	ld   [d0],r14
	sra  r14,#0x1f
	ld   [d0,4],r14
	ld   r14,fr
	add  r14,#0xffffffd8
	ld   i0,r14
	call &__ZN6MAUtil11BasicStringIcED1Ev
	.line 630
	ld   r14,[fr,-28]
	add  r14,#0x7d4
	ld   r0,fr
	add  r0,#0xffffffd0
	ld   i0,r14
	ld   i1,r0
	call &__ZN6MAUtil3MapIiPN8NativeUI5LabelEEixERKi
	ld   d1,r14
	ld   i0,#0x30
	call &__Znwm
	ld   d0,r14
	ld   i0,d0
	call &__ZN8NativeUI5LabelC1Ev
	ld   [d1],d0
	.line 631
	ld   r14,[fr,-28]
	add  r14,#0x7d4
	ld   r0,fr
	add  r0,#0xffffffd0
	ld   i0,r14
	ld   i1,r0
	call &__ZN6MAUtil3MapIiPN8NativeUI5LabelEEixERKi
	ld   d0,[r14]
	ld   d1,fr
	add  d1,#0xffffffdc
	ld   r14,fr
	add  r14,#0xffffffcc
	ld   i0,r14
	ld   i1,#LC45
	call &__ZN6MAUtil11BasicStringIcEC1EPKc
	ld   r0,fr
	add  r0,#0xffffffcc
	ld   r14,[fr,-44]
	ld   r14,[r14]
	add  r14,#0x18
	ld   r14,[r14]
	ld   i0,[fr,-44]
	ld   i1,r0
	call r14
	ld   r0,r14
	ld   r14,[r0]
	add  r14,#0x8
	ld   r14,[r14]
	ld   i0,d1
	ld   i1,r0
	call r14
	ld   r14,fr
	add  r14,#0xffffffdc
	ld   i0,r14
	call &__ZNK6MAUtil11BasicStringIcE5c_strEv
	ld   r0,r14
	ld   r14,fr
	add  r14,#0xffffffd8
	ld   i0,r14
	ld   i1,r0
	call &__ZN6MAUtil11BasicStringIcEC1EPKc
	ld   r0,fr
	add  r0,#0xffffffd8
	ld   r14,[d0]
	add  r14,#0xa0
	ld   r14,[r14]
	ld   i0,d0
	ld   i1,r0
	call r14
	ld   r14,fr
	add  r14,#0xffffffd8
	ld   i0,r14
	call &__ZN6MAUtil11BasicStringIcED1Ev
	ld   r14,fr
	add  r14,#0xffffffdc
	ld   i0,r14
	call &__ZN6MAUtil11BasicStringIcED1Ev
	ld   r14,fr
	add  r14,#0xffffffcc
	ld   i0,r14
	call &__ZN6MAUtil11BasicStringIcED1Ev
	.line 633
	ld   r14,[fr,-28]
	add  r14,#0x79c
	ld   r0,fr
	add  r0,#0xffffffd0
	ld   i0,r14
	ld   i1,r0
	call &__ZN6MAUtil3MapIiPN8NativeUI12ListViewItemEEixERKi
	ld   d1,r14
	ld   i0,#0x30
	call &__Znwm
	ld   d0,r14
	ld   i0,d0
	call &__ZN8NativeUI12ListViewItemC1Ev
	ld   [d1],d0
	.line 634
	ld   r14,[fr,-28]
	add  r14,#0x79c
	ld   r0,fr
	add  r0,#0xffffffd0
	ld   i0,r14
	ld   i1,r0
	call &__ZN6MAUtil3MapIiPN8NativeUI12ListViewItemEEixERKi
	ld   d0,[r14]
	ld   r14,[fr,-28]
	add  r14,#0x7d4
	ld   r0,fr
	add  r0,#0xffffffd0
	ld   i0,r14
	ld   i1,r0
	call &__ZN6MAUtil3MapIiPN8NativeUI5LabelEEixERKi
	ld   r0,[r14]
	ld   r14,[d0]
	add  r14,#0x34
	ld   r14,[r14]
	ld   i0,d0
	ld   i1,r0
	call r14
	.line 635
	ld   r14,[fr,-28]
	add  r14,#0x79c
	ld   r0,fr
	add  r0,#0xffffffd0
	ld   i0,r14
	ld   i1,r0
	call &__ZN6MAUtil3MapIiPN8NativeUI12ListViewItemEEixERKi
	ld   r1,[r14]
	ld   r14,[fr,-28]
	ld   r14,[r14,1888]
	ld   r14,[r14]
	add  r14,#0x34
	ld   r0,[fr,-28]
	ld   r14,[r14]
	ld   i0,[r0,1888]
	ld   i1,r1
	call r14
	.dlab LBE114
	.dlab LBE113
	.line 627
	ld   r14,[fr,-48]
	add  r14,#0x1
	ld   [fr,-48],r14
	jp   #L242
L232:
	.dlab LBE112
	.dlab LBE108
	.dlab LBE107
	.line 640
	ld   r14,[fr,-28]
	ld   i0,[fr,-28]
	ld   i1,[r14,1884]
	call &__ZN8NativeUI6Screen13setMainWidgetEPNS_6WidgetE
	.line 641
	ld   r0,[fr,-28]
	ld   r14,[fr,-28]
	ld   r14,[r14,1884]
	ld   [r0,160],r14
	.dlab LBE106
	.dlab LBE105
	.line 642
	add  sp,#0x24
	pop  rt,d3
	ret
	.stabs	"index:(0,3)",128,0,617,-44
	.stabn	192,0,0,LBB110-__ZN8AlertTab18parseJSONMediaTypeEPN6MAUtil7YAJLDom5ValueE
	.stabs	"idx:(0,3)",128,0,618,-48
	.stabn	192,0,0,LBB111-__ZN8AlertTab18parseJSONMediaTypeEPN6MAUtil7YAJLDom5ValueE
	.stabn	224,0,0,LBE111-__ZN8AlertTab18parseJSONMediaTypeEPN6MAUtil7YAJLDom5ValueE
	.stabn	224,0,0,LBE110-__ZN8AlertTab18parseJSONMediaTypeEPN6MAUtil7YAJLDom5ValueE
	.stabs	"idx:(0,3)",128,0,627,-48
	.stabn	192,0,0,LBB112-__ZN8AlertTab18parseJSONMediaTypeEPN6MAUtil7YAJLDom5ValueE
	.stabs	"valueTmp:(24,35)",128,0,628,-44
	.stabn	192,0,0,LBB114-__ZN8AlertTab18parseJSONMediaTypeEPN6MAUtil7YAJLDom5ValueE
	.stabn	224,0,0,LBE114-__ZN8AlertTab18parseJSONMediaTypeEPN6MAUtil7YAJLDom5ValueE
	.stabn	224,0,0,LBE112-__ZN8AlertTab18parseJSONMediaTypeEPN6MAUtil7YAJLDom5ValueE
Lscope49:
.data
LC83:
	.ascii "parseJSONSubUnitInfo\0"
LC84:
	.ascii " \0"
LC85:
	.ascii "first_name\0"
LC86:
	.ascii "last_name\0"
.code
	.stabs	"_ZN8AlertTab28parseJSONUserForOrganisationEPN6MAUtil7YAJLDom5ValueE:F(0,6)",36,0,644,__ZN8AlertTab28parseJSONUserForOrganisationEPN6MAUtil7YAJLDom5ValueE
	.stabs	"this:p(0,25)",160,0,644,-28
	.stabs	"root:p(24,35)",160,0,644,-32
	.global	__ZN8AlertTab28parseJSONUserForOrganisationEPN6MAUtil7YAJLDom5ValueE

.func __ZN8AlertTab28parseJSONUserForOrganisationEPN6MAUtil7YAJLDom5ValueE, 2, void
	.line 644
	push rt,d3
	sub  sp,#0x38
	ld   fr,sp
	add  fr,#0x50
	ld   [fr,-28],i0
	ld   [fr,-32],i1
	.dlab LBB115
	.dlab LBB116
	.line 645
	ld   i0,#LC83
	call &_lprintfln
	.dlab LBB117
	.line 647
	ld   r0,[fr,-32]
	ld   r14,#0x0
	jc   eq,r0,r14,#L247
	ld   i0,[fr,-32]
	call &__ZNK6MAUtil7YAJLDom5Value7getTypeEv
	ld   r0,r14
	ld   r14,#0x0
	jc   eq,r0,r14,#L247
	ld   i0,[fr,-32]
	call &__ZNK6MAUtil7YAJLDom5Value7getTypeEv
	ld   r0,r14
	ld   r14,#0x3
	jc   ne,r0,r14,#L247
	jp   #L246
L247:
	.line 649
	ld   i0,#LC40
	call &_lprintfln
	jp   #L248
L246:
	.dlab LBB118
	.line 651
	ld   i0,#LC41
	call &_lprintfln
	.dlab LBB119
	.line 652
	ld   r14,[fr,-28]
	ld   r0,[r14,1708]
	ld   r14,#0x0
	jc   ne,r0,r14,#L249
	.line 653
	ld   d3,[fr,-28]
	ld   r14,[fr,-28]
	ld   r14,[r14,156]
	add  r14,#0x27
	ld   i0,r14
	call &__ZN7Convert2trEi
	ld   r0,r14
	ld   r14,fr
	add  r14,#0xffffffdc
	ld   i0,r14
	ld   i1,r0
	call &__ZN6MAUtil11BasicStringIcEC1EPKc
	ld   d1,fr
	add  d1,#0xffffffdc
	ld   r14,fr
	add  r14,#0xffffffd8
	ld   i0,r14
	ld   i1,#LC81
	call &__ZN6MAUtil11BasicStringIcEC1EPKc
	ld   d2,fr
	add  d2,#0xffffffd8
	ld   i0,#0x44
	call &__Znwm
	ld   d0,r14
	ld   i0,d0
	ld   i1,d1
	ld   i2,d2
	call &__ZN4PageC1EN6MAUtil11BasicStringIcEES2_
	ld   [d3,1708],d0
	ld   r14,fr
	add  r14,#0xffffffd8
	ld   i0,r14
	call &__ZN6MAUtil11BasicStringIcED1Ev
	ld   r14,fr
	add  r14,#0xffffffdc
	ld   i0,r14
	call &__ZN6MAUtil11BasicStringIcED1Ev
	.line 655
	ld   d1,[fr,-28]
	ld   i0,#0x3c
	call &__Znwm
	ld   d0,r14
	ld   i0,d0
	ld   i1,#0x0
	ld   i2,#0x0
	call &__ZN8NativeUI8ListViewC1ENS_12ListViewTypeENS_13ListViewStyleE
	ld   [d1,1712],d0
	.line 656
	ld   r14,[fr,-28]
	ld   r14,[r14,1712]
	ld   r14,[r14]
	add  r14,#0xa0
	ld   r0,[fr,-28]
	ld   r1,[fr,-28]
	add  r1,#0x4c
	ld   r14,[r14]
	ld   i0,[r0,1712]
	ld   i1,r1
	call r14
	.line 657
	ld   r14,[fr,-28]
	ld   r14,[r14,1708]
	ld   r14,[r14]
	add  r14,#0x34
	ld   r0,[fr,-28]
	ld   r1,[fr,-28]
	ld   r14,[r14]
	ld   i0,[r0,1708]
	ld   i1,[r1,1712]
	call r14
	jp   #L250
L249:
	.dlab LBB120
	.line 659
	ld   r14,[fr,-28]
	add  r14,#0x6ec
	ld   i0,r14
	call &__ZNK6MAUtil10DictionaryIKiNS_4PairIS1_PN8NativeUI12ListViewItemEEEE4sizeEv
	ld   [fr,-44],r14
	.dlab LBB121
	.line 660
	ld   r0,#0x0
	ld   [fr,-48],r0
L251:
	ld   r0,[fr,-48]
	ld   r14,[fr,-44]
	jc   ge,r0,r14,#L252
	.line 661
	ld   r14,[fr,-28]
	add  r14,#0x6ec
	ld   r0,fr
	add  r0,#0xffffffd0
	ld   i0,r14
	ld   i1,r0
	call &__ZN6MAUtil3MapIiPN8NativeUI12ListViewItemEEixERKi
	ld   r1,[r14]
	ld   r14,[fr,-28]
	ld   r14,[r14,1712]
	ld   r14,[r14]
	add  r14,#0x3c
	ld   r0,[fr,-28]
	ld   r14,[r14]
	ld   i0,[r0,1712]
	ld   i1,r1
	call r14
	.line 662
	ld   r14,[fr,-28]
	add  r14,#0x6ec
	ld   r0,fr
	add  r0,#0xffffffd0
	ld   i0,r14
	ld   i1,r0
	call &__ZN6MAUtil3MapIiPN8NativeUI12ListViewItemEEixERKi
	ld   d0,[r14]
	ld   r14,[fr,-28]
	add  r14,#0x724
	ld   r0,fr
	add  r0,#0xffffffd0
	ld   i0,r14
	ld   i1,r0
	call &__ZN6MAUtil3MapIiPN8NativeUI5LabelEEixERKi
	ld   r0,[r14]
	ld   r14,[d0]
	add  r14,#0x3c
	ld   r14,[r14]
	ld   i0,d0
	ld   i1,r0
	call r14
	.line 663
	ld   r14,[fr,-28]
	add  r14,#0x724
	ld   r0,fr
	add  r0,#0xffffffd0
	ld   i0,r14
	ld   i1,r0
	call &__ZN6MAUtil3MapIiPN8NativeUI5LabelEEixERKi
	ld   r14,[r14]
	ld   [fr,-76],r14
	ld   r14,#0x0
	ld   r0,[fr,-76]
	jc   eq,r0,r14,#L255
	ld   r0,[fr,-76]
	ld   r14,[r0]
	add  r14,#0x4
	ld   r14,[r14]
	ld   i0,[fr,-76]
	call r14
L255:
	.line 664
	ld   r14,[fr,-28]
	add  r14,#0x6ec
	ld   r0,fr
	add  r0,#0xffffffd0
	ld   i0,r14
	ld   i1,r0
	call &__ZN6MAUtil3MapIiPN8NativeUI12ListViewItemEEixERKi
	ld   r14,[r14]
	ld   [fr,-80],r14
	ld   r14,#0x0
	ld   r0,[fr,-80]
	jc   eq,r0,r14,#L253
	ld   r0,[fr,-80]
	ld   r14,[r0]
	add  r14,#0x4
	ld   r14,[r14]
	ld   i0,[fr,-80]
	call r14
L253:
	.line 660
	ld   r14,[fr,-48]
	add  r14,#0x1
	ld   [fr,-48],r14
	jp   #L251
L252:
	.dlab LBE121
	.line 666
	ld   r14,[fr,-28]
	add  r14,#0x724
	ld   i0,r14
	call &__ZN6MAUtil10DictionaryIKiNS_4PairIS1_PN8NativeUI5LabelEEEE5clearEv
	.line 667
	ld   r14,[fr,-28]
	add  r14,#0x6ec
	ld   i0,r14
	call &__ZN6MAUtil10DictionaryIKiNS_4PairIS1_PN8NativeUI12ListViewItemEEEE5clearEv
L250:
	.dlab LBE120
	.dlab LBE119
	.dlab LBB122
	.line 670
	ld   r14,#0x0
	ld   [fr,-48],r14
L258:
	ld   r14,[fr,-32]
	ld   r14,[r14]
	add  r14,#0x28
	ld   r14,[r14]
	ld   i0,[fr,-32]
	call r14
	ld   r0,r14
	add  r0,#0xffffffff
	ld   r14,[fr,-48]
	jc   lt,r0,r14,#L248
	.dlab LBB123
	.dlab LBB124
	.line 671
	ld   r14,[fr,-32]
	ld   r14,[r14]
	add  r14,#0x1c
	ld   r14,[r14]
	ld   i0,[fr,-32]
	ld   i1,[fr,-48]
	call r14
	ld   [fr,-44],r14
	.line 672
	ld   r14,[fr,-28]
	add  r14,#0x6b4
	ld   r0,fr
	add  r0,#0xffffffd0
	ld   i0,r14
	ld   i1,r0
	call &__ZN6MAUtil3MapIixEixERKi
	ld   d0,r14
	ld   r14,fr
	add  r14,#0xffffffd8
	ld   i0,r14
	ld   i1,#LC62
	call &__ZN6MAUtil11BasicStringIcEC1EPKc
	ld   r0,fr
	add  r0,#0xffffffd8
	ld   r14,[fr,-44]
	ld   r14,[r14]
	add  r14,#0x18
	ld   r14,[r14]
	ld   i0,[fr,-44]
	ld   i1,r0
	call r14
	ld   r0,r14
	ld   r14,[r0]
	add  r14,#0x10
	ld   r14,[r14]
	ld   i0,r0
	call r14
	ld   [d0],r14
	sra  r14,#0x1f
	ld   [d0,4],r14
	ld   r14,fr
	add  r14,#0xffffffd8
	ld   i0,r14
	call &__ZN6MAUtil11BasicStringIcED1Ev
	.line 673
	ld   r14,[fr,-28]
	add  r14,#0x724
	ld   r0,fr
	add  r0,#0xffffffd0
	ld   i0,r14
	ld   i1,r0
	call &__ZN6MAUtil3MapIiPN8NativeUI5LabelEEixERKi
	ld   d1,r14
	ld   i0,#0x30
	call &__Znwm
	ld   d0,r14
	ld   i0,d0
	call &__ZN8NativeUI5LabelC1Ev
	ld   [d1],d0
	.line 674
	ld   r14,fr
	add  r14,#0xffffffd8
	ld   i0,r14
	ld   i1,#LC84
	call &__ZN6MAUtil11BasicStringIcEC1EPKc
	.line 675
	ld   r14,[fr,-28]
	add  r14,#0x724
	ld   r0,fr
	add  r0,#0xffffffd0
	ld   i0,r14
	ld   i1,r0
	call &__ZN6MAUtil3MapIiPN8NativeUI5LabelEEixERKi
	ld   d0,[r14]
	ld   d1,fr
	add  d1,#0xffffffcc
	ld   d2,fr
	add  d2,#0xffffffc8
	ld   d3,fr
	add  d3,#0xffffffc4
	ld   r14,fr
	add  r14,#0xffffffc0
	ld   i0,r14
	ld   i1,#LC85
	call &__ZN6MAUtil11BasicStringIcEC1EPKc
	ld   r0,fr
	add  r0,#0xffffffc0
	ld   r14,[fr,-44]
	ld   r14,[r14]
	add  r14,#0x18
	ld   r14,[r14]
	ld   i0,[fr,-44]
	ld   i1,r0
	call r14
	ld   r0,r14
	ld   r14,[r0]
	add  r14,#0x8
	ld   r14,[r14]
	ld   i0,d3
	ld   i1,r0
	call r14
	ld   r14,fr
	add  r14,#0xffffffc4
	ld   r0,fr
	add  r0,#0xffffffd8
	ld   i0,d2
	ld   i1,r14
	ld   i2,r0
	call &__ZNK6MAUtil11BasicStringIcEplERKS1_
	ld   d2,fr
	add  d2,#0xffffffc8
	ld   d3,fr
	add  d3,#0xffffffbc
	ld   r14,fr
	add  r14,#0xffffffb8
	ld   i0,r14
	ld   i1,#LC86
	call &__ZN6MAUtil11BasicStringIcEC1EPKc
	ld   r0,fr
	add  r0,#0xffffffb8
	ld   r14,[fr,-44]
	ld   r14,[r14]
	add  r14,#0x18
	ld   r14,[r14]
	ld   i0,[fr,-44]
	ld   i1,r0
	call r14
	ld   r0,r14
	ld   r14,[r0]
	add  r14,#0x8
	ld   r14,[r14]
	ld   i0,d3
	ld   i1,r0
	call r14
	ld   r14,fr
	add  r14,#0xffffffbc
	ld   i0,d1
	ld   i1,d2
	ld   i2,r14
	call &__ZNK6MAUtil11BasicStringIcEplERKS1_
	ld   r14,fr
	add  r14,#0xffffffcc
	ld   i0,r14
	call &__ZNK6MAUtil11BasicStringIcE5c_strEv
	ld   r0,r14
	ld   r14,fr
	add  r14,#0xffffffdc
	ld   i0,r14
	ld   i1,r0
	call &__ZN6MAUtil11BasicStringIcEC1EPKc
	ld   r0,fr
	add  r0,#0xffffffdc
	ld   r14,[d0]
	add  r14,#0xa0
	ld   r14,[r14]
	ld   i0,d0
	ld   i1,r0
	call r14
	ld   r14,fr
	add  r14,#0xffffffdc
	ld   i0,r14
	call &__ZN6MAUtil11BasicStringIcED1Ev
	ld   r14,fr
	add  r14,#0xffffffcc
	ld   i0,r14
	call &__ZN6MAUtil11BasicStringIcED1Ev
	ld   r14,fr
	add  r14,#0xffffffbc
	ld   i0,r14
	call &__ZN6MAUtil11BasicStringIcED1Ev
	ld   r14,fr
	add  r14,#0xffffffb8
	ld   i0,r14
	call &__ZN6MAUtil11BasicStringIcED1Ev
	ld   r14,fr
	add  r14,#0xffffffc8
	ld   i0,r14
	call &__ZN6MAUtil11BasicStringIcED1Ev
	ld   r14,fr
	add  r14,#0xffffffc4
	ld   i0,r14
	call &__ZN6MAUtil11BasicStringIcED1Ev
	ld   r14,fr
	add  r14,#0xffffffc0
	ld   i0,r14
	call &__ZN6MAUtil11BasicStringIcED1Ev
	.line 678
	ld   r14,[fr,-28]
	add  r14,#0x6ec
	ld   r0,fr
	add  r0,#0xffffffd0
	ld   i0,r14
	ld   i1,r0
	call &__ZN6MAUtil3MapIiPN8NativeUI12ListViewItemEEixERKi
	ld   d1,r14
	ld   i0,#0x30
	call &__Znwm
	ld   d0,r14
	ld   i0,d0
	call &__ZN8NativeUI12ListViewItemC1Ev
	ld   [d1],d0
	.line 679
	ld   r14,[fr,-28]
	add  r14,#0x6ec
	ld   r0,fr
	add  r0,#0xffffffd0
	ld   i0,r14
	ld   i1,r0
	call &__ZN6MAUtil3MapIiPN8NativeUI12ListViewItemEEixERKi
	ld   d0,[r14]
	ld   r14,[fr,-28]
	add  r14,#0x724
	ld   r0,fr
	add  r0,#0xffffffd0
	ld   i0,r14
	ld   i1,r0
	call &__ZN6MAUtil3MapIiPN8NativeUI5LabelEEixERKi
	ld   r0,[r14]
	ld   r14,[d0]
	add  r14,#0x34
	ld   r14,[r14]
	ld   i0,d0
	ld   i1,r0
	call r14
	.line 680
	ld   r14,[fr,-28]
	add  r14,#0x6ec
	ld   r0,fr
	add  r0,#0xffffffd0
	ld   i0,r14
	ld   i1,r0
	call &__ZN6MAUtil3MapIiPN8NativeUI12ListViewItemEEixERKi
	ld   r1,[r14]
	ld   r14,[fr,-28]
	ld   r14,[r14,1712]
	ld   r14,[r14]
	add  r14,#0x34
	ld   r0,[fr,-28]
	ld   r14,[r14]
	ld   i0,[r0,1712]
	ld   i1,r1
	call r14
	ld   r14,fr
	add  r14,#0xffffffd8
	ld   i0,r14
	call &__ZN6MAUtil11BasicStringIcED1Ev
	.dlab LBE124
	.dlab LBE123
	.line 670
	ld   r14,[fr,-48]
	add  r14,#0x1
	ld   [fr,-48],r14
	jp   #L258
L248:
	.dlab LBE122
	.dlab LBE118
	.dlab LBE117
	.line 684
	ld   r14,[fr,-28]
	ld   i0,[fr,-28]
	ld   i1,[r14,1708]
	call &__ZN8NativeUI6Screen13setMainWidgetEPNS_6WidgetE
	.line 685
	ld   r0,[fr,-28]
	ld   r14,[fr,-28]
	ld   r14,[r14,1708]
	ld   [r0,160],r14
	.dlab LBE116
	.dlab LBE115
	.line 686
	add  sp,#0x38
	pop  rt,d3
	ret
	.stabs	"index:(0,3)",128,0,659,-44
	.stabn	192,0,0,LBB120-__ZN8AlertTab28parseJSONUserForOrganisationEPN6MAUtil7YAJLDom5ValueE
	.stabs	"idx:(0,3)",128,0,660,-48
	.stabn	192,0,0,LBB121-__ZN8AlertTab28parseJSONUserForOrganisationEPN6MAUtil7YAJLDom5ValueE
	.stabn	224,0,0,LBE121-__ZN8AlertTab28parseJSONUserForOrganisationEPN6MAUtil7YAJLDom5ValueE
	.stabn	224,0,0,LBE120-__ZN8AlertTab28parseJSONUserForOrganisationEPN6MAUtil7YAJLDom5ValueE
	.stabs	"idx:(0,3)",128,0,670,-48
	.stabn	192,0,0,LBB122-__ZN8AlertTab28parseJSONUserForOrganisationEPN6MAUtil7YAJLDom5ValueE
	.stabs	"valueTmp:(24,35)",128,0,671,-44
	.stabs	"space:(13,1)",128,0,674,-40
	.stabn	192,0,0,LBB124-__ZN8AlertTab28parseJSONUserForOrganisationEPN6MAUtil7YAJLDom5ValueE
	.stabn	224,0,0,LBE124-__ZN8AlertTab28parseJSONUserForOrganisationEPN6MAUtil7YAJLDom5ValueE
	.stabn	224,0,0,LBE122-__ZN8AlertTab28parseJSONUserForOrganisationEPN6MAUtil7YAJLDom5ValueE
Lscope50:
	.stabs	"_ZN8AlertTab20parseJSONSubUnitInfoEPN6MAUtil7YAJLDom5ValueE:F(0,6)",36,0,688,__ZN8AlertTab20parseJSONSubUnitInfoEPN6MAUtil7YAJLDom5ValueE
	.stabs	"this:p(0,25)",160,0,688,-20
	.stabs	"root:p(24,35)",160,0,688,-24
	.global	__ZN8AlertTab20parseJSONSubUnitInfoEPN6MAUtil7YAJLDom5ValueE

.func __ZN8AlertTab20parseJSONSubUnitInfoEPN6MAUtil7YAJLDom5ValueE, 2, void
	.line 688
	push rt,d1
	sub  sp,#0x28
	ld   fr,sp
	add  fr,#0x38
	ld   [fr,-20],i0
	ld   [fr,-24],i1
	.dlab LBB125
	.dlab LBB126
	.line 689
	ld   i0,#LC83
	call &_lprintfln
	.dlab LBB127
	.line 691
	ld   r0,[fr,-24]
	ld   r14,#0x0
	jc   eq,r0,r14,#L263
	ld   i0,[fr,-24]
	call &__ZNK6MAUtil7YAJLDom5Value7getTypeEv
	ld   r0,r14
	ld   r14,#0x0
	jc   eq,r0,r14,#L263
	ld   i0,[fr,-24]
	call &__ZNK6MAUtil7YAJLDom5Value7getTypeEv
	ld   r0,r14
	ld   r14,#0x3
	jc   ne,r0,r14,#L263
	jp   #L262
L263:
	.line 693
	ld   i0,#LC40
	call &_lprintfln
	jp   #L261
L262:
	.dlab LBB128
	.line 695
	ld   i0,#LC41
	call &_lprintfln
	.line 697
	ld   r14,[fr,-20]
	add  r14,#0x6ec
	ld   i0,r14
	call &__ZNK6MAUtil10DictionaryIKiNS_4PairIS1_PN8NativeUI12ListViewItemEEEE4sizeEv
	ld   [fr,-28],r14
	.dlab LBB129
	.line 699
	ld   r14,#0x0
	ld   [fr,-32],r14
L265:
	ld   r14,[fr,-24]
	ld   r14,[r14]
	add  r14,#0x28
	ld   r14,[r14]
	ld   i0,[fr,-24]
	call r14
	ld   r0,r14
	add  r0,#0xffffffff
	ld   r14,[fr,-32]
	jc   lt,r0,r14,#L266
	.dlab LBB130
	.dlab LBB131
	.line 700
	ld   r14,[fr,-24]
	ld   r14,[r14]
	add  r14,#0x1c
	ld   r14,[r14]
	ld   i0,[fr,-24]
	ld   i1,[fr,-32]
	call r14
	ld   [fr,-36],r14
	.line 701
	ld   r0,[fr,-20]
	add  r0,#0x674
	ld   r14,[fr,-32]
	add  r14,#0x1
	ld   [fr,-40],r14
	ld   r14,fr
	add  r14,#0xffffffd8
	ld   i0,r0
	ld   i1,r14
	call &__ZN6MAUtil3MapIiPN8NativeUI5LabelEEixERKi
	ld   d1,r14
	ld   i0,#0x30
	call &__Znwm
	ld   d0,r14
	ld   i0,d0
	call &__ZN8NativeUI5LabelC1Ev
	ld   [d1],d0
	.line 702
	ld   r0,[fr,-20]
	add  r0,#0x674
	ld   r14,[fr,-32]
	add  r14,#0x1
	ld   [fr,-44],r14
	ld   r14,fr
	add  r14,#0xffffffd4
	ld   i0,r0
	ld   i1,r14
	call &__ZN6MAUtil3MapIiPN8NativeUI5LabelEEixERKi
	ld   d0,[r14]
	ld   d1,fr
	add  d1,#0xffffffd0
	ld   r14,fr
	add  r14,#0xffffffcc
	ld   i0,r14
	ld   i1,#LC45
	call &__ZN6MAUtil11BasicStringIcEC1EPKc
	ld   r0,fr
	add  r0,#0xffffffcc
	ld   r14,[fr,-36]
	ld   r14,[r14]
	add  r14,#0x18
	ld   r14,[r14]
	ld   i0,[fr,-36]
	ld   i1,r0
	call r14
	ld   r0,r14
	ld   r14,[r0]
	add  r14,#0x8
	ld   r14,[r14]
	ld   i0,d1
	ld   i1,r0
	call r14
	ld   r0,fr
	add  r0,#0xffffffd0
	ld   r14,[d0]
	add  r14,#0xa0
	ld   r14,[r14]
	ld   i0,d0
	ld   i1,r0
	call r14
	ld   r14,fr
	add  r14,#0xffffffd0
	ld   i0,r14
	call &__ZN6MAUtil11BasicStringIcED1Ev
	ld   r14,fr
	add  r14,#0xffffffcc
	ld   i0,r14
	call &__ZN6MAUtil11BasicStringIcED1Ev
	.line 704
	ld   r0,[fr,-20]
	add  r0,#0x604
	ld   r14,[fr,-32]
	add  r14,#0x1
	ld   [fr,-56],r14
	ld   r14,fr
	add  r14,#0xffffffc8
	ld   i0,r0
	ld   i1,r14
	call &__ZN6MAUtil3MapIixEixERKi
	ld   d0,r14
	ld   r14,fr
	add  r14,#0xffffffcc
	ld   i0,r14
	ld   i1,#LC62
	call &__ZN6MAUtil11BasicStringIcEC1EPKc
	ld   r0,fr
	add  r0,#0xffffffcc
	ld   r14,[fr,-36]
	ld   r14,[r14]
	add  r14,#0x18
	ld   r14,[r14]
	ld   i0,[fr,-36]
	ld   i1,r0
	call r14
	ld   r0,r14
	ld   r14,[r0]
	add  r14,#0x10
	ld   r14,[r14]
	ld   i0,r0
	call r14
	ld   [d0],r14
	sra  r14,#0x1f
	ld   [d0,4],r14
	ld   r14,fr
	add  r14,#0xffffffcc
	ld   i0,r14
	call &__ZN6MAUtil11BasicStringIcED1Ev
	.dlab LBE131
	.dlab LBE130
	.line 699
	ld   r14,[fr,-32]
	add  r14,#0x1
	ld   [fr,-32],r14
	jp   #L265
L266:
	.dlab LBE129
	.line 706
	ld   i0,[fr,-20]
	call &__ZN8AlertTab14createUnitPageEv
L261:
	.dlab LBE128
	.dlab LBE127
	.dlab LBE126
	.dlab LBE125
	.line 709
	add  sp,#0x28
	pop  rt,d1
	ret
	.stabs	"index:(0,3)",128,0,697,-28
	.stabn	192,0,0,LBB128-__ZN8AlertTab20parseJSONSubUnitInfoEPN6MAUtil7YAJLDom5ValueE
	.stabs	"idx:(0,3)",128,0,699,-32
	.stabn	192,0,0,LBB129-__ZN8AlertTab20parseJSONSubUnitInfoEPN6MAUtil7YAJLDom5ValueE
	.stabs	"valueTmp:(24,35)",128,0,700,-36
	.stabn	192,0,0,LBB131-__ZN8AlertTab20parseJSONSubUnitInfoEPN6MAUtil7YAJLDom5ValueE
	.stabn	224,0,0,LBE131-__ZN8AlertTab20parseJSONSubUnitInfoEPN6MAUtil7YAJLDom5ValueE
	.stabn	224,0,0,LBE129-__ZN8AlertTab20parseJSONSubUnitInfoEPN6MAUtil7YAJLDom5ValueE
	.stabn	224,0,0,LBE128-__ZN8AlertTab20parseJSONSubUnitInfoEPN6MAUtil7YAJLDom5ValueE
Lscope51:
.data
LC87:
	.ascii "parseJSONUnitInfo\0"
LC88:
	.ascii "information_sub_units\0"
LC89:
	.ascii "/plugins/\0"
LC90:
	.ascii "/sources/\0"
LC91:
	.ascii "/searches/\0"
.code
	.stabs	"_ZN8AlertTab17parseJSONUnitInfoEPN6MAUtil7YAJLDom5ValueE:F(0,6)",36,0,711,__ZN8AlertTab17parseJSONUnitInfoEPN6MAUtil7YAJLDom5ValueE
	.stabs	"this:p(0,25)",160,0,711,-36
	.stabs	"root:p(24,35)",160,0,711,-40
	.global	__ZN8AlertTab17parseJSONUnitInfoEPN6MAUtil7YAJLDom5ValueE

.func __ZN8AlertTab17parseJSONUnitInfoEPN6MAUtil7YAJLDom5ValueE, 2, void
	.line 711
	push rt,d5
	sub  sp,#0x58
	ld   fr,sp
	add  fr,#0x78
	ld   [fr,-36],i0
	ld   [fr,-40],i1
	.dlab LBB132
	.dlab LBB133
	.line 712
	ld   i0,#LC87
	call &_lprintfln
	.dlab LBB134
	.line 714
	ld   r0,[fr,-40]
	ld   r14,#0x0
	jc   eq,r0,r14,#L270
	ld   i0,[fr,-40]
	call &__ZNK6MAUtil7YAJLDom5Value7getTypeEv
	ld   r0,r14
	ld   r14,#0x0
	jc   eq,r0,r14,#L270
	ld   i0,[fr,-40]
	call &__ZNK6MAUtil7YAJLDom5Value7getTypeEv
	ld   r0,r14
	ld   r14,#0x3
	jc   eq,r0,r14,#L270
	jp   #L269
L270:
	.line 716
	ld   i0,#LC40
	call &_lprintfln
	jp   #L268
L269:
	.dlab LBB135
	.line 718
	ld   i0,#LC41
	call &_lprintfln
	.line 720
	ld   r14,[fr,-36]
	add  r14,#0x63c
	ld   i0,r14
	call &__ZNK6MAUtil10DictionaryIKiNS_4PairIS1_PN8NativeUI12ListViewItemEEEE4sizeEv
	ld   [fr,-44],r14
	.dlab LBB136
	.line 721
	ld   r0,#0x0
	ld   [fr,-48],r0
L272:
	ld   r0,[fr,-48]
	ld   r14,[fr,-44]
	jc   ge,r0,r14,#L273
	.line 722
	ld   r14,[fr,-36]
	add  r14,#0x63c
	ld   r0,fr
	add  r0,#0xffffffd0
	ld   i0,r14
	ld   i1,r0
	call &__ZN6MAUtil3MapIiPN8NativeUI12ListViewItemEEixERKi
	ld   r1,[r14]
	ld   r14,[fr,-36]
	ld   r14,[r14,1536]
	ld   r14,[r14]
	add  r14,#0x3c
	ld   r0,[fr,-36]
	ld   r14,[r14]
	ld   i0,[r0,1536]
	ld   i1,r1
	call r14
	.line 723
	ld   r14,[fr,-36]
	add  r14,#0x63c
	ld   r0,fr
	add  r0,#0xffffffd0
	ld   i0,r14
	ld   i1,r0
	call &__ZN6MAUtil3MapIiPN8NativeUI12ListViewItemEEixERKi
	ld   d0,[r14]
	ld   r14,[fr,-36]
	add  r14,#0x674
	ld   r0,fr
	add  r0,#0xffffffd0
	ld   i0,r14
	ld   i1,r0
	call &__ZN6MAUtil3MapIiPN8NativeUI5LabelEEixERKi
	ld   r0,[r14]
	ld   r14,[d0]
	add  r14,#0x3c
	ld   r14,[r14]
	ld   i0,d0
	ld   i1,r0
	call r14
	.line 724
	ld   r14,[fr,-36]
	add  r14,#0x674
	ld   r0,fr
	add  r0,#0xffffffd0
	ld   i0,r14
	ld   i1,r0
	call &__ZN6MAUtil3MapIiPN8NativeUI5LabelEEixERKi
	ld   r14,[r14]
	ld   [fr,-112],r14
	ld   r14,#0x0
	ld   r0,[fr,-112]
	jc   eq,r0,r14,#L276
	ld   r0,[fr,-112]
	ld   r14,[r0]
	add  r14,#0x4
	ld   r14,[r14]
	ld   i0,[fr,-112]
	call r14
L276:
	.line 725
	ld   r14,[fr,-36]
	add  r14,#0x63c
	ld   r0,fr
	add  r0,#0xffffffd0
	ld   i0,r14
	ld   i1,r0
	call &__ZN6MAUtil3MapIiPN8NativeUI12ListViewItemEEixERKi
	ld   r14,[r14]
	ld   [fr,-116],r14
	ld   r14,#0x0
	ld   r0,[fr,-116]
	jc   eq,r0,r14,#L274
	ld   r0,[fr,-116]
	ld   r14,[r0]
	add  r14,#0x4
	ld   r14,[r14]
	ld   i0,[fr,-116]
	call r14
L274:
	.line 721
	ld   r14,[fr,-48]
	add  r14,#0x1
	ld   [fr,-48],r14
	jp   #L272
L273:
	.dlab LBE136
	.line 727
	ld   r14,[fr,-36]
	add  r14,#0x674
	ld   i0,r14
	call &__ZN6MAUtil10DictionaryIKiNS_4PairIS1_PN8NativeUI5LabelEEEE5clearEv
	.line 728
	ld   r14,[fr,-36]
	add  r14,#0x63c
	ld   i0,r14
	call &__ZN6MAUtil10DictionaryIKiNS_4PairIS1_PN8NativeUI12ListViewItemEEEE5clearEv
	.line 730
	ld   r0,[fr,-36]
	add  r0,#0x674
	ld   r14,#0x0
	ld   [fr,-52],r14
	ld   r14,fr
	add  r14,#0xffffffcc
	ld   i0,r0
	ld   i1,r14
	call &__ZN6MAUtil3MapIiPN8NativeUI5LabelEEixERKi
	ld   d1,r14
	ld   i0,#0x30
	call &__Znwm
	ld   d0,r14
	ld   i0,d0
	call &__ZN8NativeUI5LabelC1Ev
	ld   [d1],d0
	.line 731
	ld   r0,[fr,-36]
	add  r0,#0x674
	ld   r14,#0x0
	ld   [fr,-56],r14
	ld   r14,fr
	add  r14,#0xffffffc8
	ld   i0,r0
	ld   i1,r14
	call &__ZN6MAUtil3MapIiPN8NativeUI5LabelEEixERKi
	ld   d0,[r14]
	ld   d1,fr
	add  d1,#0xffffffc4
	ld   r14,fr
	add  r14,#0xffffffc0
	ld   i0,r14
	ld   i1,#LC45
	call &__ZN6MAUtil11BasicStringIcEC1EPKc
	ld   r0,fr
	add  r0,#0xffffffc0
	ld   r14,[fr,-40]
	ld   r14,[r14]
	add  r14,#0x18
	ld   r14,[r14]
	ld   i0,[fr,-40]
	ld   i1,r0
	call r14
	ld   r0,r14
	ld   r14,[r0]
	add  r14,#0x8
	ld   r14,[r14]
	ld   i0,d1
	ld   i1,r0
	call r14
	ld   r0,fr
	add  r0,#0xffffffc4
	ld   r14,[d0]
	add  r14,#0xa0
	ld   r14,[r14]
	ld   i0,d0
	ld   i1,r0
	call r14
	ld   r14,fr
	add  r14,#0xffffffc4
	ld   i0,r14
	call &__ZN6MAUtil11BasicStringIcED1Ev
	ld   r14,fr
	add  r14,#0xffffffc0
	ld   i0,r14
	call &__ZN6MAUtil11BasicStringIcED1Ev
	.line 732
	ld   r14,[fr,-36]
	ld   r14,[r14,156]
	add  r14,#0x37
	ld   i0,r14
	call &__ZN7Convert2trEi
	ld   r0,r14
	ld   r14,fr
	add  r14,#0xffffffc0
	ld   i0,r14
	ld   i1,r0
	call &__ZN6MAUtil11BasicStringIcEC1EPKc
	.line 733
	ld   d0,fr
	add  d0,#0xffffffc4
	ld   r0,[fr,-36]
	add  r0,#0x674
	ld   r14,#0x0
	ld   [fr,-68],r14
	ld   r14,fr
	add  r14,#0xffffffbc
	ld   i0,r0
	ld   i1,r14
	call &__ZN6MAUtil3MapIiPN8NativeUI5LabelEEixERKi
	ld   r0,[r14]
	ld   r14,[r0]
	add  r14,#0xa4
	ld   r14,[r14]
	ld   i0,d0
	ld   i1,r0
	call r14
	ld   r0,fr
	add  r0,#0xffffffc4
	ld   r14,fr
	add  r14,#0xffffffc0
	ld   i0,r14
	ld   i1,r0
	call &__ZN6MAUtil11BasicStringIcEpLERKS1_
	ld   r14,fr
	add  r14,#0xffffffc4
	ld   i0,r14
	call &__ZN6MAUtil11BasicStringIcED1Ev
	.line 734
	ld   r14,[fr,-36]
	ld   r14,[r14,1344]
	ld   r14,[r14]
	add  r14,#0xa0
	ld   r0,[fr,-36]
	ld   r1,fr
	add  r1,#0xffffffc0
	ld   r14,[r14]
	ld   i0,[r0,1344]
	ld   i1,r1
	call r14
	.line 735
	ld   d0,[fr,-36]
	ld   r14,fr
	add  r14,#0xffffffc4
	ld   i0,r14
	ld   i1,#LC88
	call &__ZN6MAUtil11BasicStringIcEC1EPKc
	ld   r0,fr
	add  r0,#0xffffffc4
	ld   r14,[fr,-40]
	ld   r14,[r14]
	add  r14,#0x18
	ld   r14,[r14]
	ld   i0,[fr,-40]
	ld   i1,r0
	call r14
	ld   r0,r14
	ld   r14,[r0]
	add  r14,#0x10
	ld   r14,[r14]
	ld   i0,r0
	call r14
	ld   [d0,1532],r14
	ld   r14,fr
	add  r14,#0xffffffc4
	ld   i0,r14
	call &__ZN6MAUtil11BasicStringIcED1Ev
	.line 738
	ld   r14,fr
	add  r14,#0xffffffc4
	ld   i0,r14
	ld   i1,#LC34
	call &__ZN6MAUtil11BasicStringIcEC1EPKc
	.line 739
	ld   d1,fr
	add  d1,#0xffffffb8
	ld   d2,fr
	add  d2,#0xffffffb4
	ld   d3,fr
	add  d3,#0xffffffb0
	ld   d4,fr
	add  d4,#0xffffffac
	ld   d5,fr
	add  d5,#0xffffffa8
	ld   d0,fr
	add  d0,#0xffffffa4
	ld   r14,[fr,-36]
	add  r14,#0x2e8
	ld   r0,[fr,-36]
	add  r0,#0xa8
	ld   i0,r14
	ld   i1,r0
	call &__ZN6MAUtil3MapIixEixERKi
	ld   i0,d0
	ld   i1,[r14]
	ld   i2,[r14,4]
	call &__ZN7Convert8toStringEx
	ld   r14,fr
	add  r14,#0xffffffa4
	ld   i0,d5
	ld   i1,#LC89
	ld   i2,r14
	call &__ZN6MAUtilplIcEENS_11BasicStringIT_EEPKS2_RKS3_
	ld   d0,fr
	add  d0,#0xffffffa8
	ld   r14,fr
	add  r14,#0xffffffa0
	ld   i0,r14
	ld   i1,#LC90
	call &__ZN6MAUtil11BasicStringIcEC1EPKc
	ld   r14,fr
	add  r14,#0xffffffa0
	ld   i0,d4
	ld   i1,d0
	ld   i2,r14
	call &__ZNK6MAUtil11BasicStringIcEplERKS1_
	ld   d4,fr
	add  d4,#0xffffffac
	ld   d0,fr
	add  d0,#0xffffff9c
	ld   r14,[fr,-36]
	add  r14,#0x398
	ld   r0,[fr,-36]
	add  r0,#0xac
	ld   i0,r14
	ld   i1,r0
	call &__ZN6MAUtil3MapIixEixERKi
	ld   i0,d0
	ld   i1,[r14]
	ld   i2,[r14,4]
	call &__ZN7Convert8toStringEx
	ld   r14,fr
	add  r14,#0xffffff9c
	ld   i0,d3
	ld   i1,d4
	ld   i2,r14
	call &__ZNK6MAUtil11BasicStringIcEplERKS1_
	ld   d0,fr
	add  d0,#0xffffffb0
	ld   r14,fr
	add  r14,#0xffffff98
	ld   i0,r14
	ld   i1,#LC91
	call &__ZN6MAUtil11BasicStringIcEC1EPKc
	ld   r14,fr
	add  r14,#0xffffff98
	ld   i0,d2
	ld   i1,d0
	ld   i2,r14
	call &__ZNK6MAUtil11BasicStringIcEplERKS1_
	ld   d2,fr
	add  d2,#0xffffffb4
	ld   d0,fr
	add  d0,#0xffffff94
	ld   r14,[fr,-36]
	add  r14,#0x3d0
	ld   r0,[fr,-36]
	add  r0,#0xac
	ld   i0,r14
	ld   i1,r0
	call &__ZN6MAUtil3MapIixEixERKi
	ld   i0,d0
	ld   i1,[r14]
	ld   i2,[r14,4]
	call &__ZN7Convert8toStringEx
	ld   r14,fr
	add  r14,#0xffffff94
	ld   i0,d1
	ld   i1,d2
	ld   i2,r14
	call &__ZNK6MAUtil11BasicStringIcEplERKS1_
	ld   r0,fr
	add  r0,#0xffffffb8
	ld   r14,fr
	add  r14,#0xffffffc4
	ld   i0,r14
	ld   i1,r0
	call &__ZN6MAUtil11BasicStringIcEpLERKS1_
	ld   r14,fr
	add  r14,#0xffffffb8
	ld   i0,r14
	call &__ZN6MAUtil11BasicStringIcED1Ev
	ld   r14,fr
	add  r14,#0xffffff94
	ld   i0,r14
	call &__ZN6MAUtil11BasicStringIcED1Ev
	ld   r14,fr
	add  r14,#0xffffffb4
	ld   i0,r14
	call &__ZN6MAUtil11BasicStringIcED1Ev
	ld   r14,fr
	add  r14,#0xffffff98
	ld   i0,r14
	call &__ZN6MAUtil11BasicStringIcED1Ev
	ld   r14,fr
	add  r14,#0xffffffb0
	ld   i0,r14
	call &__ZN6MAUtil11BasicStringIcED1Ev
	ld   r14,fr
	add  r14,#0xffffff9c
	ld   i0,r14
	call &__ZN6MAUtil11BasicStringIcED1Ev
	ld   r14,fr
	add  r14,#0xffffffac
	ld   i0,r14
	call &__ZN6MAUtil11BasicStringIcED1Ev
	ld   r14,fr
	add  r14,#0xffffffa0
	ld   i0,r14
	call &__ZN6MAUtil11BasicStringIcED1Ev
	ld   r14,fr
	add  r14,#0xffffffa8
	ld   i0,r14
	call &__ZN6MAUtil11BasicStringIcED1Ev
	ld   r14,fr
	add  r14,#0xffffffa4
	ld   i0,r14
	call &__ZN6MAUtil11BasicStringIcED1Ev
	.line 744
	ld   r14,fr
	add  r14,#0xffffffc4
	ld   r0,[fr,-36]
	add  r0,#0x98
	ld   i0,r14
	ld   i1,r0
	call &__ZN6MAUtil11BasicStringIcEpLERKS1_
	.line 745
	ld   r14,fr
	add  r14,#0xffffff94
	ld   r0,fr
	add  r0,#0xffffffc4
	ld   i0,r14
	ld   i1,r0
	call &__ZN6MAUtil11BasicStringIcEC1ERKS1_
	ld   d0,fr
	add  d0,#0xffffff94
	ld   r14,fr
	add  r14,#0xffffff98
	ld   i0,r14
	ld   i1,#LC15
	call &__ZN6MAUtil11BasicStringIcEC1EPKc
	ld   r14,fr
	add  r14,#0xffffff98
	ld   r0,[fr,-36]
	add  r0,#0x54
	ld   [sp],r14
	ld   i0,r0
	ld   i1,d0
	ld   i2,#0xd
	ld   i3,#0x0
	call &__ZN11Connections10connectUrlEN6MAUtil11BasicStringIcEENS_9eFonctionEiS2_
	ld   r14,fr
	add  r14,#0xffffff98
	ld   i0,r14
	call &__ZN6MAUtil11BasicStringIcED1Ev
	ld   r14,fr
	add  r14,#0xffffff94
	ld   i0,r14
	call &__ZN6MAUtil11BasicStringIcED1Ev
	ld   r14,fr
	add  r14,#0xffffffc4
	ld   i0,r14
	call &__ZN6MAUtil11BasicStringIcED1Ev
	ld   r14,fr
	add  r14,#0xffffffc0
	ld   i0,r14
	call &__ZN6MAUtil11BasicStringIcED1Ev
L268:
	.dlab LBE135
	.dlab LBE134
	.dlab LBE133
	.dlab LBE132
	.line 747
	add  sp,#0x58
	pop  rt,d5
	ret
	.stabs	"index:(0,3)",128,0,720,-44
	.stabs	"UnitTmp:(13,1)",128,0,732,-64
	.stabs	"urlTmp:(13,1)",128,0,738,-60
	.stabn	192,0,0,LBB135-__ZN8AlertTab17parseJSONUnitInfoEPN6MAUtil7YAJLDom5ValueE
	.stabs	"idx:(0,3)",128,0,721,-48
	.stabn	192,0,0,LBB136-__ZN8AlertTab17parseJSONUnitInfoEPN6MAUtil7YAJLDom5ValueE
	.stabn	224,0,0,LBE136-__ZN8AlertTab17parseJSONUnitInfoEPN6MAUtil7YAJLDom5ValueE
	.stabn	224,0,0,LBE135-__ZN8AlertTab17parseJSONUnitInfoEPN6MAUtil7YAJLDom5ValueE
Lscope52:
.data
LC92:
	.ascii "parseJSONOperator\0"
.code
	.stabs	"_ZN8AlertTab17parseJSONOperatorEPN6MAUtil7YAJLDom5ValueE:F(0,6)",36,0,749,__ZN8AlertTab17parseJSONOperatorEPN6MAUtil7YAJLDom5ValueE
	.stabs	"this:p(0,25)",160,0,749,-28
	.stabs	"root:p(24,35)",160,0,749,-32
	.global	__ZN8AlertTab17parseJSONOperatorEPN6MAUtil7YAJLDom5ValueE

.func __ZN8AlertTab17parseJSONOperatorEPN6MAUtil7YAJLDom5ValueE, 2, void
	.line 749
	push rt,d3
	sub  sp,#0x24
	ld   fr,sp
	add  fr,#0x3c
	ld   [fr,-28],i0
	ld   [fr,-32],i1
	.dlab LBB137
	.dlab LBB138
	.line 750
	ld   i0,#LC92
	call &_lprintfln
	.dlab LBB139
	.line 752
	ld   r0,[fr,-32]
	ld   r14,#0x0
	jc   eq,r0,r14,#L281
	ld   i0,[fr,-32]
	call &__ZNK6MAUtil7YAJLDom5Value7getTypeEv
	ld   r0,r14
	ld   r14,#0x0
	jc   eq,r0,r14,#L281
	ld   i0,[fr,-32]
	call &__ZNK6MAUtil7YAJLDom5Value7getTypeEv
	ld   r0,r14
	ld   r14,#0x3
	jc   ne,r0,r14,#L281
	jp   #L280
L281:
	.line 754
	ld   i0,#LC40
	call &_lprintfln
	jp   #L282
L280:
	.dlab LBB140
	.line 756
	ld   i0,#LC41
	call &_lprintfln
	.dlab LBB141
	.line 757
	ld   r14,[fr,-28]
	ld   r0,[r14,1352]
	ld   r14,#0x0
	jc   ne,r0,r14,#L283
	.line 758
	ld   d3,[fr,-28]
	ld   r14,[fr,-28]
	ld   r14,[r14,156]
	add  r14,#0x23
	ld   i0,r14
	call &__ZN7Convert2trEi
	ld   r0,r14
	ld   r14,fr
	add  r14,#0xffffffdc
	ld   i0,r14
	ld   i1,r0
	call &__ZN6MAUtil11BasicStringIcEC1EPKc
	ld   d1,fr
	add  d1,#0xffffffdc
	ld   r14,fr
	add  r14,#0xffffffd8
	ld   i0,r14
	ld   i1,#LC81
	call &__ZN6MAUtil11BasicStringIcEC1EPKc
	ld   d2,fr
	add  d2,#0xffffffd8
	ld   i0,#0x44
	call &__Znwm
	ld   d0,r14
	ld   i0,d0
	ld   i1,d1
	ld   i2,d2
	call &__ZN4PageC1EN6MAUtil11BasicStringIcEES2_
	ld   [d3,1352],d0
	ld   r14,fr
	add  r14,#0xffffffd8
	ld   i0,r14
	call &__ZN6MAUtil11BasicStringIcED1Ev
	ld   r14,fr
	add  r14,#0xffffffdc
	ld   i0,r14
	call &__ZN6MAUtil11BasicStringIcED1Ev
	.line 760
	ld   d1,[fr,-28]
	ld   i0,#0x3c
	call &__Znwm
	ld   d0,r14
	ld   i0,d0
	ld   i1,#0x0
	ld   i2,#0x0
	call &__ZN8NativeUI8ListViewC1ENS_12ListViewTypeENS_13ListViewStyleE
	ld   [d1,1356],d0
	.line 761
	ld   r14,[fr,-28]
	ld   r14,[r14,1356]
	ld   r14,[r14]
	add  r14,#0xa0
	ld   r0,[fr,-28]
	ld   r1,[fr,-28]
	add  r1,#0x4c
	ld   r14,[r14]
	ld   i0,[r0,1356]
	ld   i1,r1
	call r14
	.line 762
	ld   r14,[fr,-28]
	ld   r14,[r14,1352]
	ld   r14,[r14]
	add  r14,#0x34
	ld   r0,[fr,-28]
	ld   r1,[fr,-28]
	ld   r14,[r14]
	ld   i0,[r0,1352]
	ld   i1,[r1,1356]
	call r14
	jp   #L282
L283:
	.dlab LBB142
	.line 764
	ld   r14,[fr,-28]
	add  r14,#0x588
	ld   i0,r14
	call &__ZNK6MAUtil10DictionaryIKiNS_4PairIS1_PN8NativeUI12ListViewItemEEEE4sizeEv
	ld   [fr,-44],r14
	.dlab LBB143
	.line 765
	ld   r0,#0x0
	ld   [fr,-48],r0
L285:
	ld   r0,[fr,-48]
	ld   r14,[fr,-44]
	jc   ge,r0,r14,#L286
	.line 766
	ld   r14,[fr,-28]
	add  r14,#0x588
	ld   r0,fr
	add  r0,#0xffffffd0
	ld   i0,r14
	ld   i1,r0
	call &__ZN6MAUtil3MapIiPN8NativeUI12ListViewItemEEixERKi
	ld   r1,[r14]
	ld   r14,[fr,-28]
	ld   r14,[r14,1356]
	ld   r14,[r14]
	add  r14,#0x3c
	ld   r0,[fr,-28]
	ld   r14,[r14]
	ld   i0,[r0,1356]
	ld   i1,r1
	call r14
	.line 767
	ld   r14,[fr,-28]
	add  r14,#0x588
	ld   r0,fr
	add  r0,#0xffffffd0
	ld   i0,r14
	ld   i1,r0
	call &__ZN6MAUtil3MapIiPN8NativeUI12ListViewItemEEixERKi
	ld   d0,[r14]
	ld   r14,[fr,-28]
	add  r14,#0x5c0
	ld   r0,fr
	add  r0,#0xffffffd0
	ld   i0,r14
	ld   i1,r0
	call &__ZN6MAUtil3MapIiPN8NativeUI5LabelEEixERKi
	ld   r0,[r14]
	ld   r14,[d0]
	add  r14,#0x3c
	ld   r14,[r14]
	ld   i0,d0
	ld   i1,r0
	call r14
	.line 768
	ld   r14,[fr,-28]
	add  r14,#0x5c0
	ld   r0,fr
	add  r0,#0xffffffd0
	ld   i0,r14
	ld   i1,r0
	call &__ZN6MAUtil3MapIiPN8NativeUI5LabelEEixERKi
	ld   r14,[r14]
	ld   [fr,-56],r14
	ld   r14,#0x0
	ld   r0,[fr,-56]
	jc   eq,r0,r14,#L289
	ld   r0,[fr,-56]
	ld   r14,[r0]
	add  r14,#0x4
	ld   r14,[r14]
	ld   i0,[fr,-56]
	call r14
L289:
	.line 769
	ld   r14,[fr,-28]
	add  r14,#0x588
	ld   r0,fr
	add  r0,#0xffffffd0
	ld   i0,r14
	ld   i1,r0
	call &__ZN6MAUtil3MapIiPN8NativeUI12ListViewItemEEixERKi
	ld   r14,[r14]
	ld   [fr,-60],r14
	ld   r14,#0x0
	ld   r0,[fr,-60]
	jc   eq,r0,r14,#L287
	ld   r0,[fr,-60]
	ld   r14,[r0]
	add  r14,#0x4
	ld   r14,[r14]
	ld   i0,[fr,-60]
	call r14
L287:
	.line 765
	ld   r14,[fr,-48]
	add  r14,#0x1
	ld   [fr,-48],r14
	jp   #L285
L286:
	.dlab LBE143
	.line 771
	ld   r14,[fr,-28]
	add  r14,#0x5c0
	ld   i0,r14
	call &__ZN6MAUtil10DictionaryIKiNS_4PairIS1_PN8NativeUI5LabelEEEE5clearEv
	.line 772
	ld   r14,[fr,-28]
	add  r14,#0x588
	ld   i0,r14
	call &__ZN6MAUtil10DictionaryIKiNS_4PairIS1_PN8NativeUI12ListViewItemEEEE5clearEv
L282:
	.dlab LBE142
	.dlab LBE141
	.dlab LBE140
	.dlab LBE139
	.dlab LBB144
	.line 775
	ld   r14,#0x0
	ld   [fr,-48],r14
L292:
	ld   r14,[fr,-32]
	ld   r14,[r14]
	add  r14,#0x28
	ld   r14,[r14]
	ld   i0,[fr,-32]
	call r14
	ld   r0,r14
	add  r0,#0xffffffff
	ld   r14,[fr,-48]
	jc   lt,r0,r14,#L293
	.dlab LBB145
	.dlab LBB146
	.line 776
	ld   r14,[fr,-32]
	ld   r14,[r14]
	add  r14,#0x1c
	ld   r14,[r14]
	ld   i0,[fr,-32]
	ld   i1,[fr,-48]
	call r14
	ld   [fr,-44],r14
	.line 777
	ld   r14,[fr,-28]
	add  r14,#0x550
	ld   r0,fr
	add  r0,#0xffffffd0
	ld   i0,r14
	ld   i1,r0
	call &__ZN6MAUtil3MapIixEixERKi
	ld   d0,r14
	ld   r14,fr
	add  r14,#0xffffffd8
	ld   i0,r14
	ld   i1,#LC62
	call &__ZN6MAUtil11BasicStringIcEC1EPKc
	ld   r0,fr
	add  r0,#0xffffffd8
	ld   r14,[fr,-44]
	ld   r14,[r14]
	add  r14,#0x18
	ld   r14,[r14]
	ld   i0,[fr,-44]
	ld   i1,r0
	call r14
	ld   r0,r14
	ld   r14,[r0]
	add  r14,#0x10
	ld   r14,[r14]
	ld   i0,r0
	call r14
	ld   [d0],r14
	sra  r14,#0x1f
	ld   [d0,4],r14
	ld   r14,fr
	add  r14,#0xffffffd8
	ld   i0,r14
	call &__ZN6MAUtil11BasicStringIcED1Ev
	.line 778
	ld   r14,[fr,-28]
	add  r14,#0x5c0
	ld   r0,fr
	add  r0,#0xffffffd0
	ld   i0,r14
	ld   i1,r0
	call &__ZN6MAUtil3MapIiPN8NativeUI5LabelEEixERKi
	ld   d1,r14
	ld   i0,#0x30
	call &__Znwm
	ld   d0,r14
	ld   i0,d0
	call &__ZN8NativeUI5LabelC1Ev
	ld   [d1],d0
	.line 779
	ld   r14,[fr,-28]
	add  r14,#0x5c0
	ld   r0,fr
	add  r0,#0xffffffd0
	ld   i0,r14
	ld   i1,r0
	call &__ZN6MAUtil3MapIiPN8NativeUI5LabelEEixERKi
	ld   d0,[r14]
	ld   d1,fr
	add  d1,#0xffffffdc
	ld   r14,fr
	add  r14,#0xffffffcc
	ld   i0,r14
	ld   i1,#LC45
	call &__ZN6MAUtil11BasicStringIcEC1EPKc
	ld   r0,fr
	add  r0,#0xffffffcc
	ld   r14,[fr,-44]
	ld   r14,[r14]
	add  r14,#0x18
	ld   r14,[r14]
	ld   i0,[fr,-44]
	ld   i1,r0
	call r14
	ld   r0,r14
	ld   r14,[r0]
	add  r14,#0x8
	ld   r14,[r14]
	ld   i0,d1
	ld   i1,r0
	call r14
	ld   r14,fr
	add  r14,#0xffffffdc
	ld   i0,r14
	call &__ZNK6MAUtil11BasicStringIcE5c_strEv
	ld   r0,r14
	ld   r14,fr
	add  r14,#0xffffffd8
	ld   i0,r14
	ld   i1,r0
	call &__ZN6MAUtil11BasicStringIcEC1EPKc
	ld   r0,fr
	add  r0,#0xffffffd8
	ld   r14,[d0]
	add  r14,#0xa0
	ld   r14,[r14]
	ld   i0,d0
	ld   i1,r0
	call r14
	ld   r14,fr
	add  r14,#0xffffffd8
	ld   i0,r14
	call &__ZN6MAUtil11BasicStringIcED1Ev
	ld   r14,fr
	add  r14,#0xffffffdc
	ld   i0,r14
	call &__ZN6MAUtil11BasicStringIcED1Ev
	ld   r14,fr
	add  r14,#0xffffffcc
	ld   i0,r14
	call &__ZN6MAUtil11BasicStringIcED1Ev
	.line 781
	ld   r14,[fr,-28]
	add  r14,#0x588
	ld   r0,fr
	add  r0,#0xffffffd0
	ld   i0,r14
	ld   i1,r0
	call &__ZN6MAUtil3MapIiPN8NativeUI12ListViewItemEEixERKi
	ld   d1,r14
	ld   i0,#0x30
	call &__Znwm
	ld   d0,r14
	ld   i0,d0
	call &__ZN8NativeUI12ListViewItemC1Ev
	ld   [d1],d0
	.line 782
	ld   r14,[fr,-28]
	add  r14,#0x588
	ld   r0,fr
	add  r0,#0xffffffd0
	ld   i0,r14
	ld   i1,r0
	call &__ZN6MAUtil3MapIiPN8NativeUI12ListViewItemEEixERKi
	ld   d0,[r14]
	ld   r14,[fr,-28]
	add  r14,#0x5c0
	ld   r0,fr
	add  r0,#0xffffffd0
	ld   i0,r14
	ld   i1,r0
	call &__ZN6MAUtil3MapIiPN8NativeUI5LabelEEixERKi
	ld   r0,[r14]
	ld   r14,[d0]
	add  r14,#0x34
	ld   r14,[r14]
	ld   i0,d0
	ld   i1,r0
	call r14
	.line 783
	ld   r14,[fr,-28]
	add  r14,#0x588
	ld   r0,fr
	add  r0,#0xffffffd0
	ld   i0,r14
	ld   i1,r0
	call &__ZN6MAUtil3MapIiPN8NativeUI12ListViewItemEEixERKi
	ld   r1,[r14]
	ld   r14,[fr,-28]
	ld   r14,[r14,1356]
	ld   r14,[r14]
	add  r14,#0x34
	ld   r0,[fr,-28]
	ld   r14,[r14]
	ld   i0,[r0,1356]
	ld   i1,r1
	call r14
	.dlab LBE146
	.dlab LBE145
	.line 775
	ld   r14,[fr,-48]
	add  r14,#0x1
	ld   [fr,-48],r14
	jp   #L292
L293:
	.dlab LBE144
	.line 786
	ld   r14,[fr,-28]
	ld   i0,[fr,-28]
	ld   i1,[r14,1352]
	call &__ZN8NativeUI6Screen13setMainWidgetEPNS_6WidgetE
	.line 787
	ld   r0,[fr,-28]
	ld   r14,[fr,-28]
	ld   r14,[r14,1352]
	ld   [r0,160],r14
	.dlab LBE138
	.dlab LBE137
	.line 789
	add  sp,#0x24
	pop  rt,d3
	ret
	.stabs	"index:(0,3)",128,0,764,-44
	.stabn	192,0,0,LBB142-__ZN8AlertTab17parseJSONOperatorEPN6MAUtil7YAJLDom5ValueE
	.stabs	"idx:(0,3)",128,0,765,-48
	.stabn	192,0,0,LBB143-__ZN8AlertTab17parseJSONOperatorEPN6MAUtil7YAJLDom5ValueE
	.stabn	224,0,0,LBE143-__ZN8AlertTab17parseJSONOperatorEPN6MAUtil7YAJLDom5ValueE
	.stabn	224,0,0,LBE142-__ZN8AlertTab17parseJSONOperatorEPN6MAUtil7YAJLDom5ValueE
	.stabs	"idx:(0,3)",128,0,775,-48
	.stabn	192,0,0,LBB144-__ZN8AlertTab17parseJSONOperatorEPN6MAUtil7YAJLDom5ValueE
	.stabs	"valueTmp:(24,35)",128,0,776,-44
	.stabn	192,0,0,LBB146-__ZN8AlertTab17parseJSONOperatorEPN6MAUtil7YAJLDom5ValueE
	.stabn	224,0,0,LBE146-__ZN8AlertTab17parseJSONOperatorEPN6MAUtil7YAJLDom5ValueE
	.stabn	224,0,0,LBE144-__ZN8AlertTab17parseJSONOperatorEPN6MAUtil7YAJLDom5ValueE
Lscope53:
.data
LC93:
	.ascii "parseJSONAsset\0"
.code
	.stabs	"_ZN8AlertTab14parseJSONAssetEPN6MAUtil7YAJLDom5ValueE:F(0,6)",36,0,791,__ZN8AlertTab14parseJSONAssetEPN6MAUtil7YAJLDom5ValueE
	.stabs	"this:p(0,25)",160,0,791,-28
	.stabs	"root:p(24,35)",160,0,791,-32
	.global	__ZN8AlertTab14parseJSONAssetEPN6MAUtil7YAJLDom5ValueE

.func __ZN8AlertTab14parseJSONAssetEPN6MAUtil7YAJLDom5ValueE, 2, void
	.line 791
	push rt,d3
	sub  sp,#0x20
	ld   fr,sp
	add  fr,#0x38
	ld   [fr,-28],i0
	ld   [fr,-32],i1
	.dlab LBB147
	.dlab LBB148
	.line 792
	ld   i0,#LC93
	call &_lprintfln
	.dlab LBB149
	.line 794
	ld   r0,[fr,-32]
	ld   r14,#0x0
	jc   eq,r0,r14,#L297
	ld   i0,[fr,-32]
	call &__ZNK6MAUtil7YAJLDom5Value7getTypeEv
	ld   r0,r14
	ld   r14,#0x0
	jc   eq,r0,r14,#L297
	ld   i0,[fr,-32]
	call &__ZNK6MAUtil7YAJLDom5Value7getTypeEv
	ld   r0,r14
	ld   r14,#0x3
	jc   ne,r0,r14,#L297
	jp   #L296
L297:
	.line 796
	ld   i0,#LC40
	call &_lprintfln
	jp   #L298
L296:
	.dlab LBB150
	.line 798
	ld   i0,#LC41
	call &_lprintfln
	.dlab LBB151
	.line 799
	ld   r14,[fr,-28]
	ld   r0,[r14,560]
	ld   r14,#0x0
	jc   ne,r0,r14,#L299
	.line 800
	ld   d3,[fr,-28]
	ld   r14,[fr,-28]
	ld   r14,[r14,156]
	add  r14,#0x1b
	ld   i0,r14
	call &__ZN7Convert2trEi
	ld   r0,r14
	ld   r14,fr
	add  r14,#0xffffffdc
	ld   i0,r14
	ld   i1,r0
	call &__ZN6MAUtil11BasicStringIcEC1EPKc
	ld   d1,fr
	add  d1,#0xffffffdc
	ld   r14,fr
	add  r14,#0xffffffd8
	ld   i0,r14
	ld   i1,#LC81
	call &__ZN6MAUtil11BasicStringIcEC1EPKc
	ld   d2,fr
	add  d2,#0xffffffd8
	ld   i0,#0x44
	call &__Znwm
	ld   d0,r14
	ld   i0,d0
	ld   i1,d1
	ld   i2,d2
	call &__ZN4PageC1EN6MAUtil11BasicStringIcEES2_
	ld   [d3,560],d0
	ld   r14,fr
	add  r14,#0xffffffd8
	ld   i0,r14
	call &__ZN6MAUtil11BasicStringIcED1Ev
	ld   r14,fr
	add  r14,#0xffffffdc
	ld   i0,r14
	call &__ZN6MAUtil11BasicStringIcED1Ev
	.line 802
	ld   d1,[fr,-28]
	ld   i0,#0x3c
	call &__Znwm
	ld   d0,r14
	ld   i0,d0
	ld   i1,#0x0
	ld   i2,#0x0
	call &__ZN8NativeUI8ListViewC1ENS_12ListViewTypeENS_13ListViewStyleE
	ld   [d1,564],d0
	.line 803
	ld   r14,[fr,-28]
	ld   r14,[r14,564]
	ld   r14,[r14]
	add  r14,#0xa0
	ld   r0,[fr,-28]
	ld   r1,[fr,-28]
	add  r1,#0x4c
	ld   r14,[r14]
	ld   i0,[r0,564]
	ld   i1,r1
	call r14
	.line 804
	ld   r14,[fr,-28]
	ld   r14,[r14,560]
	ld   r14,[r14]
	add  r14,#0x34
	ld   r0,[fr,-28]
	ld   r1,[fr,-28]
	ld   r14,[r14]
	ld   i0,[r0,560]
	ld   i1,[r1,564]
	call r14
	jp   #L298
L299:
	.dlab LBB152
	.line 806
	ld   r14,[fr,-28]
	add  r14,#0x270
	ld   i0,r14
	call &__ZNK6MAUtil10DictionaryIKiNS_4PairIS1_PN8NativeUI12ListViewItemEEEE4sizeEv
	ld   [fr,-44],r14
	.dlab LBB153
	.line 807
	ld   r0,#0x0
	ld   [fr,-48],r0
L301:
	ld   r0,[fr,-48]
	ld   r14,[fr,-44]
	jc   ge,r0,r14,#L302
	.line 808
	ld   r14,[fr,-28]
	add  r14,#0x270
	ld   r0,fr
	add  r0,#0xffffffd0
	ld   i0,r14
	ld   i1,r0
	call &__ZN6MAUtil3MapIiPN8NativeUI12ListViewItemEEixERKi
	ld   r1,[r14]
	ld   r14,[fr,-28]
	ld   r14,[r14,564]
	ld   r14,[r14]
	add  r14,#0x3c
	ld   r0,[fr,-28]
	ld   r14,[r14]
	ld   i0,[r0,564]
	ld   i1,r1
	call r14
	.line 811
	ld   r14,[fr,-28]
	add  r14,#0x270
	ld   r0,fr
	add  r0,#0xffffffd0
	ld   i0,r14
	ld   i1,r0
	call &__ZN6MAUtil3MapIiPN8NativeUI12ListViewItemEEixERKi
	ld   r14,[r14]
	ld   [fr,-56],r14
	ld   r14,#0x0
	ld   r0,[fr,-56]
	jc   eq,r0,r14,#L303
	ld   r0,[fr,-56]
	ld   r14,[r0]
	add  r14,#0x4
	ld   r14,[r14]
	ld   i0,[fr,-56]
	call r14
L303:
	.line 807
	ld   r14,[fr,-48]
	add  r14,#0x1
	ld   [fr,-48],r14
	jp   #L301
L302:
	.dlab LBE153
	.line 813
	ld   r14,[fr,-28]
	add  r14,#0x2a8
	ld   i0,r14
	call &__ZN6MAUtil10DictionaryIKiNS_4PairIS1_NS_11BasicStringIcEEEEE5clearEv
	.line 814
	ld   r14,[fr,-28]
	add  r14,#0x270
	ld   i0,r14
	call &__ZN6MAUtil10DictionaryIKiNS_4PairIS1_PN8NativeUI12ListViewItemEEEE5clearEv
L298:
	.dlab LBE152
	.dlab LBE151
	.dlab LBE150
	.dlab LBE149
	.dlab LBB154
	.line 817
	ld   r14,#0x0
	ld   [fr,-48],r14
L306:
	ld   r14,[fr,-32]
	ld   r14,[r14]
	add  r14,#0x28
	ld   r14,[r14]
	ld   i0,[fr,-32]
	call r14
	ld   r0,r14
	add  r0,#0xffffffff
	ld   r14,[fr,-48]
	jc   lt,r0,r14,#L307
	.dlab LBB155
	.dlab LBB156
	.line 819
	ld   r14,[fr,-32]
	ld   r14,[r14]
	add  r14,#0x1c
	ld   r14,[r14]
	ld   i0,[fr,-32]
	ld   i1,[fr,-48]
	call r14
	ld   [fr,-44],r14
	.line 821
	ld   r14,[fr,-28]
	add  r14,#0x238
	ld   r0,fr
	add  r0,#0xffffffd0
	ld   i0,r14
	ld   i1,r0
	call &__ZN6MAUtil3MapIixEixERKi
	ld   d0,r14
	ld   r14,fr
	add  r14,#0xffffffd8
	ld   i0,r14
	ld   i1,#LC62
	call &__ZN6MAUtil11BasicStringIcEC1EPKc
	ld   r0,fr
	add  r0,#0xffffffd8
	ld   r14,[fr,-44]
	ld   r14,[r14]
	add  r14,#0x18
	ld   r14,[r14]
	ld   i0,[fr,-44]
	ld   i1,r0
	call r14
	ld   r0,r14
	ld   r14,[r0]
	add  r14,#0x10
	ld   r14,[r14]
	ld   i0,r0
	call r14
	ld   [d0],r14
	sra  r14,#0x1f
	ld   [d0,4],r14
	ld   r14,fr
	add  r14,#0xffffffd8
	ld   i0,r14
	call &__ZN6MAUtil11BasicStringIcED1Ev
	.line 822
	ld   r14,[fr,-28]
	add  r14,#0x2a8
	ld   r0,fr
	add  r0,#0xffffffd0
	ld   i0,r14
	ld   i1,r0
	call &__ZN6MAUtil3MapIiNS_11BasicStringIcEEEixERKi
	ld   d0,r14
	ld   d1,fr
	add  d1,#0xffffffdc
	ld   r14,fr
	add  r14,#0xffffffcc
	ld   i0,r14
	ld   i1,#LC45
	call &__ZN6MAUtil11BasicStringIcEC1EPKc
	ld   r0,fr
	add  r0,#0xffffffcc
	ld   r14,[fr,-44]
	ld   r14,[r14]
	add  r14,#0x18
	ld   r14,[r14]
	ld   i0,[fr,-44]
	ld   i1,r0
	call r14
	ld   r0,r14
	ld   r14,[r0]
	add  r14,#0x8
	ld   r14,[r14]
	ld   i0,d1
	ld   i1,r0
	call r14
	ld   r14,fr
	add  r14,#0xffffffdc
	ld   i0,r14
	call &__ZNK6MAUtil11BasicStringIcE5c_strEv
	ld   r0,r14
	ld   r14,fr
	add  r14,#0xffffffd8
	ld   i0,r14
	ld   i1,r0
	call &__ZN6MAUtil11BasicStringIcEC1EPKc
	ld   r14,fr
	add  r14,#0xffffffd8
	ld   i0,d0
	ld   i1,r14
	call &__ZN6MAUtil11BasicStringIcEaSERKS1_
	ld   r14,fr
	add  r14,#0xffffffd8
	ld   i0,r14
	call &__ZN6MAUtil11BasicStringIcED1Ev
	ld   r14,fr
	add  r14,#0xffffffdc
	ld   i0,r14
	call &__ZN6MAUtil11BasicStringIcED1Ev
	ld   r14,fr
	add  r14,#0xffffffcc
	ld   i0,r14
	call &__ZN6MAUtil11BasicStringIcED1Ev
	.line 823
	ld   r14,[fr,-28]
	add  r14,#0x270
	ld   r0,fr
	add  r0,#0xffffffd0
	ld   i0,r14
	ld   i1,r0
	call &__ZN6MAUtil3MapIiPN8NativeUI12ListViewItemEEixERKi
	ld   d1,r14
	ld   i0,#0x30
	call &__Znwm
	ld   d0,r14
	ld   i0,d0
	call &__ZN8NativeUI12ListViewItemC1Ev
	ld   [d1],d0
	.line 824
	ld   r14,[fr,-28]
	add  r14,#0x270
	ld   r0,fr
	add  r0,#0xffffffd0
	ld   i0,r14
	ld   i1,r0
	call &__ZN6MAUtil3MapIiPN8NativeUI12ListViewItemEEixERKi
	ld   r0,[r14]
	ld   r14,[r0]
	add  r14,#0xa8
	ld   r14,[r14]
	ld   i0,r0
	ld   i1,#0xa
	call r14
	.line 825
	ld   r14,[fr,-28]
	add  r14,#0x270
	ld   r0,fr
	add  r0,#0xffffffd0
	ld   i0,r14
	ld   i1,r0
	call &__ZN6MAUtil3MapIiPN8NativeUI12ListViewItemEEixERKi
	ld   d0,[r14]
	ld   r14,[fr,-28]
	add  r14,#0x2a8
	ld   r0,fr
	add  r0,#0xffffffd0
	ld   i0,r14
	ld   i1,r0
	call &__ZN6MAUtil3MapIiNS_11BasicStringIcEEEixERKi
	ld   r0,r14
	ld   r14,[d0]
	add  r14,#0xa0
	ld   r14,[r14]
	ld   i0,d0
	ld   i1,r0
	call r14
	.line 827
	ld   r14,[fr,-28]
	add  r14,#0x270
	ld   r0,fr
	add  r0,#0xffffffd0
	ld   i0,r14
	ld   i1,r0
	call &__ZN6MAUtil3MapIiPN8NativeUI12ListViewItemEEixERKi
	ld   r1,[r14]
	ld   r14,[fr,-28]
	ld   r14,[r14,564]
	ld   r14,[r14]
	add  r14,#0x34
	ld   r0,[fr,-28]
	ld   r14,[r14]
	ld   i0,[r0,564]
	ld   i1,r1
	call r14
	.dlab LBE156
	.dlab LBE155
	.line 817
	ld   r14,[fr,-48]
	add  r14,#0x1
	ld   [fr,-48],r14
	jp   #L306
L307:
	.dlab LBE154
	.line 830
	ld   r14,[fr,-28]
	ld   r14,[r14,560]
	ld   r14,[r14]
	add  r14,#0x6c
	ld   r0,[fr,-28]
	ld   r14,[r14]
	ld   i0,[r0,560]
	call r14
	.line 831
	ld   r14,[fr,-28]
	ld   i0,[fr,-28]
	ld   i1,[r14,560]
	call &__ZN8NativeUI6Screen13setMainWidgetEPNS_6WidgetE
	.line 832
	ld   r0,[fr,-28]
	ld   r14,[fr,-28]
	ld   r14,[r14,560]
	ld   [r0,160],r14
	.dlab LBE148
	.dlab LBE147
	.line 833
	add  sp,#0x20
	pop  rt,d3
	ret
	.stabs	"index:(0,3)",128,0,806,-44
	.stabn	192,0,0,LBB152-__ZN8AlertTab14parseJSONAssetEPN6MAUtil7YAJLDom5ValueE
	.stabs	"idx:(0,3)",128,0,807,-48
	.stabn	192,0,0,LBB153-__ZN8AlertTab14parseJSONAssetEPN6MAUtil7YAJLDom5ValueE
	.stabn	224,0,0,LBE153-__ZN8AlertTab14parseJSONAssetEPN6MAUtil7YAJLDom5ValueE
	.stabn	224,0,0,LBE152-__ZN8AlertTab14parseJSONAssetEPN6MAUtil7YAJLDom5ValueE
	.stabs	"idx:(0,3)",128,0,817,-48
	.stabn	192,0,0,LBB154-__ZN8AlertTab14parseJSONAssetEPN6MAUtil7YAJLDom5ValueE
	.stabs	"valueTmp:(24,35)",128,0,819,-44
	.stabn	192,0,0,LBB156-__ZN8AlertTab14parseJSONAssetEPN6MAUtil7YAJLDom5ValueE
	.stabn	224,0,0,LBE156-__ZN8AlertTab14parseJSONAssetEPN6MAUtil7YAJLDom5ValueE
	.stabn	224,0,0,LBE154-__ZN8AlertTab14parseJSONAssetEPN6MAUtil7YAJLDom5ValueE
Lscope54:
.data
LC94:
	.ascii "parseJSONAlert\0"
LC95:
	.ascii "left\0"
.code
	.stabs	"_ZN8AlertTab14parseJSONAlertEPN6MAUtil7YAJLDom5ValueE:F(0,6)",36,0,835,__ZN8AlertTab14parseJSONAlertEPN6MAUtil7YAJLDom5ValueE
	.stabs	"this:p(0,25)",160,0,835,-20
	.stabs	"root:p(24,35)",160,0,835,-24
	.global	__ZN8AlertTab14parseJSONAlertEPN6MAUtil7YAJLDom5ValueE

.func __ZN8AlertTab14parseJSONAlertEPN6MAUtil7YAJLDom5ValueE, 2, void
	.line 835
	push rt,d1
	sub  sp,#0x20
	ld   fr,sp
	add  fr,#0x30
	ld   [fr,-20],i0
	ld   [fr,-24],i1
	.dlab LBB157
	.dlab LBB158
	.line 836
	ld   i0,#LC94
	call &_lprintfln
	.line 837
	ld   r14,[fr,-20]
	ld   r0,#0xffffffff
	ld   [r14,396],r0
	.dlab LBB159
	.line 839
	ld   r14,#0x0
	ld   [fr,-28],r14
L310:
	ld   r14,[fr,-20]
	add  r14,#0x140
	ld   i0,r14
	call &__ZNK6MAUtil10DictionaryIKiNS_4PairIS1_xEEE4sizeEv
	ld   r0,r14
	ld   r14,[fr,-28]
	jc   geu,r14,r0,#L311
	.line 841
	ld   r14,[fr,-20]
	add  r14,#0xd0
	ld   r0,fr
	add  r0,#0xffffffe4
	ld   i0,r14
	ld   i1,r0
	call &__ZN6MAUtil3MapIiPN8NativeUI12ListViewItemEEixERKi
	ld   r1,[r14]
	ld   r14,[fr,-20]
	ld   r14,[r14,204]
	ld   r14,[r14]
	add  r14,#0x3c
	ld   r0,[fr,-20]
	ld   r14,[r14]
	ld   i0,[r0,204]
	ld   i1,r1
	call r14
	.line 839
	ld   r14,[fr,-28]
	add  r14,#0x1
	ld   [fr,-28],r14
	jp   #L310
L311:
	.dlab LBE159
	.line 843
	ld   r14,[fr,-20]
	add  r14,#0x140
	ld   i0,r14
	call &__ZN6MAUtil10DictionaryIKiNS_4PairIS1_xEEE5clearEv
	.line 845
	ld   r0,[fr,-24]
	ld   r14,#0x0
	jc   eq,r0,r14,#L314
	ld   i0,[fr,-24]
	call &__ZNK6MAUtil7YAJLDom5Value7getTypeEv
	ld   r0,r14
	ld   r14,#0x0
	jc   eq,r0,r14,#L314
	ld   i0,[fr,-24]
	call &__ZNK6MAUtil7YAJLDom5Value7getTypeEv
	ld   r0,r14
	ld   r14,#0x3
	jc   ne,r0,r14,#L314
	jp   #L313
L314:
	.line 847
	ld   i0,#LC40
	call &_lprintfln
	jp   #L315
L313:
	.line 850
	ld   i0,#LC41
	call &_lprintfln
L315:
	.line 852
	ld   r14,[fr,-20]
	ld   r14,[r14,200]
	ld   r14,[r14]
	add  r14,#0x64
	ld   r0,[fr,-20]
	ld   r14,[r14]
	ld   i0,[r0,200]
	ld   i1,#0x0
	call r14
	.line 854
	ld   r14,[fr,-20]
	ld   i0,[fr,-20]
	ld   i1,[r14,196]
	call &__ZN8NativeUI6Screen13setMainWidgetEPNS_6WidgetE
	.line 855
	ld   r0,[fr,-20]
	ld   r14,[fr,-20]
	ld   r14,[r14,196]
	ld   [r0,160],r14
	.dlab LBB160
	.line 856
	ld   r0,#0x0
	ld   [fr,-28],r0
L316:
	ld   r14,[fr,-24]
	ld   r14,[r14]
	add  r14,#0x28
	ld   r14,[r14]
	ld   i0,[fr,-24]
	call r14
	ld   r0,r14
	add  r0,#0xffffffff
	ld   r14,[fr,-28]
	jc   lt,r0,r14,#L309
	.dlab LBB161
	.dlab LBB162
	.line 857
	ld   r14,[fr,-24]
	ld   r14,[r14]
	add  r14,#0x1c
	ld   r14,[r14]
	ld   i0,[fr,-24]
	ld   i1,[fr,-28]
	call r14
	ld   [fr,-32],r14
	.line 858
	ld   r14,fr
	add  r14,#0xffffffd8
	ld   i0,r14
	ld   i1,#LC54
	call &__ZN6MAUtil11BasicStringIcEC1EPKc
	ld   r0,fr
	add  r0,#0xffffffd8
	ld   r14,[fr,-32]
	ld   r14,[r14]
	add  r14,#0x18
	ld   r14,[r14]
	ld   i0,[fr,-32]
	ld   i1,r0
	call r14
	ld   [fr,-36],r14
	ld   r14,fr
	add  r14,#0xffffffd8
	ld   i0,r14
	call &__ZN6MAUtil11BasicStringIcED1Ev
	.line 860
	ld   r14,[fr,-20]
	add  r14,#0x140
	ld   r0,fr
	add  r0,#0xffffffe4
	ld   i0,r14
	ld   i1,r0
	call &__ZN6MAUtil3MapIixEixERKi
	ld   d0,r14
	ld   r14,fr
	add  r14,#0xffffffd8
	ld   i0,r14
	ld   i1,#LC62
	call &__ZN6MAUtil11BasicStringIcEC1EPKc
	ld   r0,fr
	add  r0,#0xffffffd8
	ld   r14,[fr,-36]
	ld   r14,[r14]
	add  r14,#0x18
	ld   r14,[r14]
	ld   i0,[fr,-36]
	ld   i1,r0
	call r14
	ld   r0,r14
	ld   r14,[r0]
	add  r14,#0x10
	ld   r14,[r14]
	ld   i0,r0
	call r14
	ld   [d0],r14
	sra  r14,#0x1f
	ld   [d0,4],r14
	ld   r14,fr
	add  r14,#0xffffffd8
	ld   i0,r14
	call &__ZN6MAUtil11BasicStringIcED1Ev
	.line 861
	ld   r14,[fr,-20]
	add  r14,#0x108
	ld   r0,fr
	add  r0,#0xffffffe4
	ld   i0,r14
	ld   i1,r0
	call &__ZN6MAUtil3MapIiPN8NativeUI5LabelEEixERKi
	ld   d1,r14
	ld   i0,#0x30
	call &__Znwm
	ld   d0,r14
	ld   i0,d0
	call &__ZN8NativeUI5LabelC1Ev
	ld   [d1],d0
	.line 862
	ld   r14,[fr,-20]
	add  r14,#0x108
	ld   r0,fr
	add  r0,#0xffffffe4
	ld   i0,r14
	ld   i1,r0
	call &__ZN6MAUtil3MapIiPN8NativeUI5LabelEEixERKi
	ld   r0,[r14]
	ld   r14,[r0]
	add  r14,#0x68
	ld   r14,[r14]
	ld   i0,r0
	call r14
	.line 863
	ld   r14,[fr,-20]
	add  r14,#0x108
	ld   r0,fr
	add  r0,#0xffffffe4
	ld   i0,r14
	ld   i1,r0
	call &__ZN6MAUtil3MapIiPN8NativeUI5LabelEEixERKi
	ld   d0,[r14]
	ld   r14,fr
	add  r14,#0xffffffd8
	ld   i0,r14
	ld   i1,#LC95
	call &__ZN6MAUtil11BasicStringIcEC1EPKc
	ld   r0,fr
	add  r0,#0xffffffd8
	ld   r14,[d0]
	add  r14,#0xac
	ld   r14,[r14]
	ld   i0,d0
	ld   i1,r0
	call r14
	ld   r14,fr
	add  r14,#0xffffffd8
	ld   i0,r14
	call &__ZN6MAUtil11BasicStringIcED1Ev
	.line 864
	ld   r14,[fr,-20]
	add  r14,#0x108
	ld   r0,fr
	add  r0,#0xffffffe4
	ld   i0,r14
	ld   i1,r0
	call &__ZN6MAUtil3MapIiPN8NativeUI5LabelEEixERKi
	ld   d0,[r14]
	ld   d1,fr
	add  d1,#0xffffffd4
	ld   r14,fr
	add  r14,#0xffffffd0
	ld   i0,r14
	ld   i1,#LC45
	call &__ZN6MAUtil11BasicStringIcEC1EPKc
	ld   r0,fr
	add  r0,#0xffffffd0
	ld   r14,[fr,-36]
	ld   r14,[r14]
	add  r14,#0x18
	ld   r14,[r14]
	ld   i0,[fr,-36]
	ld   i1,r0
	call r14
	ld   r0,r14
	ld   r14,[r0]
	add  r14,#0x8
	ld   r14,[r14]
	ld   i0,d1
	ld   i1,r0
	call r14
	ld   r14,fr
	add  r14,#0xffffffd4
	ld   i0,r14
	call &__ZNK6MAUtil11BasicStringIcE5c_strEv
	ld   r0,r14
	ld   r14,fr
	add  r14,#0xffffffd8
	ld   i0,r14
	ld   i1,r0
	call &__ZN6MAUtil11BasicStringIcEC1EPKc
	ld   r0,fr
	add  r0,#0xffffffd8
	ld   r14,[d0]
	add  r14,#0xa0
	ld   r14,[r14]
	ld   i0,d0
	ld   i1,r0
	call r14
	ld   r14,fr
	add  r14,#0xffffffd8
	ld   i0,r14
	call &__ZN6MAUtil11BasicStringIcED1Ev
	ld   r14,fr
	add  r14,#0xffffffd4
	ld   i0,r14
	call &__ZN6MAUtil11BasicStringIcED1Ev
	ld   r14,fr
	add  r14,#0xffffffd0
	ld   i0,r14
	call &__ZN6MAUtil11BasicStringIcED1Ev
	.line 867
	ld   r14,[fr,-20]
	add  r14,#0xd0
	ld   r0,fr
	add  r0,#0xffffffe4
	ld   i0,r14
	ld   i1,r0
	call &__ZN6MAUtil3MapIiPN8NativeUI12ListViewItemEEixERKi
	ld   d1,r14
	ld   i0,#0x30
	call &__Znwm
	ld   d0,r14
	ld   i0,d0
	call &__ZN8NativeUI12ListViewItemC1Ev
	ld   [d1],d0
	.line 868
	ld   r14,[fr,-20]
	add  r14,#0xd0
	ld   r0,fr
	add  r0,#0xffffffe4
	ld   i0,r14
	ld   i1,r0
	call &__ZN6MAUtil3MapIiPN8NativeUI12ListViewItemEEixERKi
	ld   d0,[r14]
	ld   r14,[fr,-20]
	add  r14,#0x108
	ld   r0,fr
	add  r0,#0xffffffe4
	ld   i0,r14
	ld   i1,r0
	call &__ZN6MAUtil3MapIiPN8NativeUI5LabelEEixERKi
	ld   r0,[r14]
	ld   r14,[d0]
	add  r14,#0x34
	ld   r14,[r14]
	ld   i0,d0
	ld   i1,r0
	call r14
	.line 870
	ld   r14,[fr,-20]
	add  r14,#0xd0
	ld   r0,fr
	add  r0,#0xffffffe4
	ld   i0,r14
	ld   i1,r0
	call &__ZN6MAUtil3MapIiPN8NativeUI12ListViewItemEEixERKi
	ld   r1,[r14]
	ld   r14,[fr,-20]
	ld   r14,[r14,204]
	ld   r14,[r14]
	add  r14,#0x34
	ld   r0,[fr,-20]
	ld   r14,[r14]
	ld   i0,[r0,204]
	ld   i1,r1
	call r14
	.dlab LBE162
	.dlab LBE161
	.line 856
	ld   r14,[fr,-28]
	add  r14,#0x1
	ld   [fr,-28],r14
	jp   #L316
L309:
	.dlab LBE160
	.dlab LBE158
	.dlab LBE157
	.line 874
	add  sp,#0x20
	pop  rt,d1
	ret
	.stabs	"idx0:(0,3)",128,0,839,-28
	.stabn	192,0,0,LBB159-__ZN8AlertTab14parseJSONAlertEPN6MAUtil7YAJLDom5ValueE
	.stabn	224,0,0,LBE159-__ZN8AlertTab14parseJSONAlertEPN6MAUtil7YAJLDom5ValueE
	.stabs	"idx:(0,3)",128,0,856,-28
	.stabn	192,0,0,LBB160-__ZN8AlertTab14parseJSONAlertEPN6MAUtil7YAJLDom5ValueE
	.stabs	"valueTmp:(24,35)",128,0,857,-32
	.stabs	"valueTmp1:(24,35)",128,0,858,-36
	.stabn	192,0,0,LBB162-__ZN8AlertTab14parseJSONAlertEPN6MAUtil7YAJLDom5ValueE
	.stabn	224,0,0,LBE162-__ZN8AlertTab14parseJSONAlertEPN6MAUtil7YAJLDom5ValueE
	.stabn	224,0,0,LBE160-__ZN8AlertTab14parseJSONAlertEPN6MAUtil7YAJLDom5ValueE
Lscope55:
.data
LC96:
	.ascii "parseJSONInformation\0"
LC97:
	.ascii "%d\12\0"
LC98:
	.ascii "display\0"
LC99:
	.ascii "search_id\0"
LC100:
	.ascii "source_id\0"
LC101:
	.ascii "unit_id\0"
LC102:
	.ascii "sub_search_number\0"
.code
	.stabs	"_ZN8AlertTab20parseJSONInformationEPN6MAUtil7YAJLDom5ValueE:F(0,6)",36,0,876,__ZN8AlertTab20parseJSONInformationEPN6MAUtil7YAJLDom5ValueE
	.stabs	"this:p(0,25)",160,0,876,-28
	.stabs	"root:p(24,35)",160,0,876,-32
	.global	__ZN8AlertTab20parseJSONInformationEPN6MAUtil7YAJLDom5ValueE

.func __ZN8AlertTab20parseJSONInformationEPN6MAUtil7YAJLDom5ValueE, 2, void
	.line 876
	push rt,d3
	sub  sp,#0x3c
	ld   fr,sp
	add  fr,#0x54
	ld   [fr,-28],i0
	ld   [fr,-32],i1
	.dlab LBB163
	.dlab LBB164
	.line 877
	ld   i0,#LC96
	call &_lprintfln
	.dlab LBB165
	.line 879
	ld   r0,[fr,-32]
	ld   r14,#0x0
	jc   eq,r0,r14,#L321
	ld   i0,[fr,-32]
	call &__ZNK6MAUtil7YAJLDom5Value7getTypeEv
	ld   r0,r14
	ld   r14,#0x0
	jc   eq,r0,r14,#L321
	ld   i0,[fr,-32]
	call &__ZNK6MAUtil7YAJLDom5Value7getTypeEv
	ld   r0,r14
	ld   r14,#0x3
	jc   ne,r0,r14,#L321
	jp   #L320
L321:
	.line 881
	ld   i0,#LC40
	call &_lprintfln
	jp   #L319
L320:
	.dlab LBB166
	.line 884
	ld   i0,#LC41
	call &_lprintfln
	.dlab LBB167
	.line 885
	ld   r14,[fr,-28]
	ld   r0,[r14,912]
	ld   r14,#0x0
	jc   ne,r0,r14,#L323
	.line 886
	ld   d3,[fr,-28]
	ld   r14,[fr,-28]
	ld   r14,[r14,156]
	add  r14,#0x1f
	ld   i0,r14
	call &__ZN7Convert2trEi
	ld   r0,r14
	ld   r14,fr
	add  r14,#0xffffffdc
	ld   i0,r14
	ld   i1,r0
	call &__ZN6MAUtil11BasicStringIcEC1EPKc
	ld   d1,fr
	add  d1,#0xffffffdc
	ld   r14,fr
	add  r14,#0xffffffd8
	ld   i0,r14
	ld   i1,#LC15
	call &__ZN6MAUtil11BasicStringIcEC1EPKc
	ld   d2,fr
	add  d2,#0xffffffd8
	ld   i0,#0x44
	call &__Znwm
	ld   d0,r14
	ld   i0,d0
	ld   i1,d1
	ld   i2,d2
	call &__ZN4PageC1EN6MAUtil11BasicStringIcEES2_
	ld   [d3,912],d0
	ld   r14,fr
	add  r14,#0xffffffd8
	ld   i0,r14
	call &__ZN6MAUtil11BasicStringIcED1Ev
	ld   r14,fr
	add  r14,#0xffffffdc
	ld   i0,r14
	call &__ZN6MAUtil11BasicStringIcED1Ev
	.line 888
	ld   d1,[fr,-28]
	ld   i0,#0x3c
	call &__Znwm
	ld   d0,r14
	ld   i0,d0
	ld   i1,#0x0
	ld   i2,#0x0
	call &__ZN8NativeUI8ListViewC1ENS_12ListViewTypeENS_13ListViewStyleE
	ld   [d1,916],d0
	.line 889
	ld   r14,[fr,-28]
	ld   r14,[r14,916]
	ld   r14,[r14]
	add  r14,#0xa0
	ld   r0,[fr,-28]
	ld   r1,[fr,-28]
	add  r1,#0x4c
	ld   r14,[r14]
	ld   i0,[r0,916]
	ld   i1,r1
	call r14
	.line 890
	ld   r14,[fr,-28]
	ld   r14,[r14,912]
	ld   r14,[r14]
	add  r14,#0x34
	ld   r0,[fr,-28]
	ld   r1,[fr,-28]
	ld   r14,[r14]
	ld   i0,[r0,912]
	ld   i1,[r1,916]
	call r14
	jp   #L324
L323:
	.dlab LBB168
	.line 892
	ld   r14,[fr,-28]
	add  r14,#0x478
	ld   i0,r14
	call &__ZNK6MAUtil10DictionaryIKiNS_4PairIS1_PN8NativeUI12ListViewItemEEEE4sizeEv
	ld   [fr,-44],r14
	.dlab LBB169
	.line 893
	ld   r0,#0x0
	ld   [fr,-48],r0
L325:
	ld   r0,[fr,-48]
	ld   r14,[fr,-44]
	jc   ge,r0,r14,#L326
	.line 894
	ld   r14,[fr,-28]
	add  r14,#0x478
	ld   r0,fr
	add  r0,#0xffffffd0
	ld   i0,r14
	ld   i1,r0
	call &__ZN6MAUtil3MapIiPN8NativeUI12ListViewItemEEixERKi
	ld   r1,[r14]
	ld   r14,[fr,-28]
	ld   r14,[r14,916]
	ld   r14,[r14]
	add  r14,#0x3c
	ld   r0,[fr,-28]
	ld   r14,[r14]
	ld   i0,[r0,916]
	ld   i1,r1
	call r14
	.line 895
	ld   r14,[fr,-28]
	add  r14,#0x478
	ld   r0,fr
	add  r0,#0xffffffd0
	ld   i0,r14
	ld   i1,r0
	call &__ZN6MAUtil3MapIiPN8NativeUI12ListViewItemEEixERKi
	ld   d0,[r14]
	ld   r14,[fr,-28]
	add  r14,#0x4b0
	ld   r0,fr
	add  r0,#0xffffffd0
	ld   i0,r14
	ld   i1,r0
	call &__ZN6MAUtil3MapIiPN8NativeUI5LabelEEixERKi
	ld   r0,[r14]
	ld   r14,[d0]
	add  r14,#0x3c
	ld   r14,[r14]
	ld   i0,d0
	ld   i1,r0
	call r14
	.line 896
	ld   r14,[fr,-28]
	add  r14,#0x4b0
	ld   r0,fr
	add  r0,#0xffffffd0
	ld   i0,r14
	ld   i1,r0
	call &__ZN6MAUtil3MapIiPN8NativeUI5LabelEEixERKi
	ld   r14,[r14]
	ld   [fr,-76],r14
	ld   r14,#0x0
	ld   r0,[fr,-76]
	jc   eq,r0,r14,#L329
	ld   r0,[fr,-76]
	ld   r14,[r0]
	add  r14,#0x4
	ld   r14,[r14]
	ld   i0,[fr,-76]
	call r14
L329:
	.line 897
	ld   r14,[fr,-28]
	add  r14,#0x478
	ld   r0,fr
	add  r0,#0xffffffd0
	ld   i0,r14
	ld   i1,r0
	call &__ZN6MAUtil3MapIiPN8NativeUI12ListViewItemEEixERKi
	ld   r14,[r14]
	ld   [fr,-80],r14
	ld   r14,#0x0
	ld   r0,[fr,-80]
	jc   eq,r0,r14,#L327
	ld   r0,[fr,-80]
	ld   r14,[r0]
	add  r14,#0x4
	ld   r14,[r14]
	ld   i0,[fr,-80]
	call r14
L327:
	.line 893
	ld   r14,[fr,-48]
	add  r14,#0x1
	ld   [fr,-48],r14
	jp   #L325
L326:
	.dlab LBE169
	.line 899
	ld   r14,[fr,-28]
	add  r14,#0x4b0
	ld   i0,r14
	call &__ZN6MAUtil10DictionaryIKiNS_4PairIS1_PN8NativeUI5LabelEEEE5clearEv
	.line 900
	ld   r14,[fr,-28]
	add  r14,#0x478
	ld   i0,r14
	call &__ZN6MAUtil10DictionaryIKiNS_4PairIS1_PN8NativeUI12ListViewItemEEEE5clearEv
L324:
	.dlab LBE168
	.dlab LBE167
	.line 903
	ld   d1,fr
	add  d1,#0xffffffd8
	ld   d2,fr
	add  d2,#0xffffffdc
	ld   r14,fr
	add  r14,#0xffffffcc
	ld   r0,[fr,-28]
	ld   i0,r14
	ld   i1,[r0,736]
	call &__ZN4Page7getMemoEv
	ld   d3,fr
	add  d3,#0xffffffcc
	ld   d0,fr
	add  d0,#0xffffffc8
	ld   r14,[fr,-28]
	add  r14,#0x358
	ld   r0,[fr,-28]
	add  r0,#0xa8
	ld   i0,r14
	ld   i1,r0
	call &__ZN6MAUtil3MapIiPN8NativeUI5LabelEEixERKi
	ld   r0,[r14]
	ld   r14,[r0]
	add  r14,#0xa4
	ld   r14,[r14]
	ld   i0,d0
	ld   i1,r0
	call r14
	ld   r14,fr
	add  r14,#0xffffffc8
	ld   i0,d2
	ld   i1,d3
	ld   i2,r14
	call &__ZNK6MAUtil11BasicStringIcEplERKS1_
	ld   d0,fr
	add  d0,#0xffffffdc
	ld   r14,fr
	add  r14,#0xffffffc4
	ld   i0,r14
	ld   i1,#LC12
	call &__ZN6MAUtil11BasicStringIcEC1EPKc
	ld   r14,fr
	add  r14,#0xffffffc4
	ld   i0,d1
	ld   i1,d0
	ld   i2,r14
	call &__ZNK6MAUtil11BasicStringIcEplERKS1_
	ld   r0,fr
	add  r0,#0xffffffd8
	ld   r14,[fr,-28]
	ld   i0,[r14,912]
	ld   i1,r0
	call &__ZN4Page7setMemoEN6MAUtil11BasicStringIcEE
	ld   r14,fr
	add  r14,#0xffffffd8
	ld   i0,r14
	call &__ZN6MAUtil11BasicStringIcED1Ev
	ld   r14,fr
	add  r14,#0xffffffc4
	ld   i0,r14
	call &__ZN6MAUtil11BasicStringIcED1Ev
	ld   r14,fr
	add  r14,#0xffffffdc
	ld   i0,r14
	call &__ZN6MAUtil11BasicStringIcED1Ev
	ld   r14,fr
	add  r14,#0xffffffc8
	ld   i0,r14
	call &__ZN6MAUtil11BasicStringIcED1Ev
	ld   r14,fr
	add  r14,#0xffffffcc
	ld   i0,r14
	call &__ZN6MAUtil11BasicStringIcED1Ev
	.line 906
	ld   r14,[fr,-32]
	ld   r14,[r14]
	add  r14,#0x28
	ld   r14,[r14]
	ld   i0,[fr,-32]
	call r14
	ld   [sp],r14
	ld   i0,#LC97
	call &_lprintfln
	.line 907
	ld   r14,#0x0
	ld   [fr,-48],r14
	.dlab LBB170
	.line 908
	ld   r0,#0x0
	ld   [fr,-44],r0
L332:
	ld   r14,[fr,-32]
	ld   r14,[r14]
	add  r14,#0x28
	ld   r14,[r14]
	ld   i0,[fr,-32]
	call r14
	ld   r0,r14
	add  r0,#0xffffffff
	ld   r14,[fr,-44]
	jc   lt,r0,r14,#L333
	.dlab LBB171
	.dlab LBB172
	.line 910
	ld   r14,[fr,-32]
	ld   r14,[r14]
	add  r14,#0x1c
	ld   r14,[r14]
	ld   i0,[fr,-32]
	ld   i1,[fr,-44]
	call r14
	ld   [fr,-64],r14
	.dlab LBB173
	.line 911
	ld   d0,fr
	add  d0,#0xffffffd8
	ld   r14,fr
	add  r14,#0xffffffdc
	ld   i0,r14
	ld   i1,#LC98
	call &__ZN6MAUtil11BasicStringIcEC1EPKc
	ld   r0,fr
	add  r0,#0xffffffdc
	ld   r14,[fr,-64]
	ld   r14,[r14]
	add  r14,#0x18
	ld   r14,[r14]
	ld   i0,[fr,-64]
	ld   i1,r0
	call r14
	ld   r0,r14
	ld   r14,[r0]
	add  r14,#0x8
	ld   r14,[r14]
	ld   i0,d0
	ld   i1,r0
	call r14
	ld   d0,fr
	add  d0,#0xffffffd8
	ld   r14,fr
	add  r14,#0xffffffc4
	ld   i0,r14
	ld   i1,#LC21
	call &__ZN6MAUtil11BasicStringIcEC1EPKc
	ld   r14,fr
	add  r14,#0xffffffc4
	ld   i0,d0
	ld   i1,r14
	call &__ZNK6MAUtil11BasicStringIcEeqERKS1_
	ld   d0,r14
	ld   r14,fr
	add  r14,#0xffffffc4
	ld   i0,r14
	call &__ZN6MAUtil11BasicStringIcED1Ev
	ld   r14,fr
	add  r14,#0xffffffd8
	ld   i0,r14
	call &__ZN6MAUtil11BasicStringIcED1Ev
	ld   r14,fr
	add  r14,#0xffffffdc
	ld   i0,r14
	call &__ZN6MAUtil11BasicStringIcED1Ev
	ld   r0,d0
	and  r0,#0xff  ; zero extend
	ld   r14,#0x0
	jc   eq,r0,r14,#L334
	.dlab LBB174
	.line 913
	ld   r14,fr
	add  r14,#0xffffffc8
	ld   i0,r14
	ld   i1,#LC62
	call &__ZN6MAUtil11BasicStringIcEC1EPKc
	ld   r0,fr
	add  r0,#0xffffffc8
	ld   r14,[fr,-64]
	ld   r14,[r14]
	add  r14,#0x18
	ld   r14,[r14]
	ld   i0,[fr,-64]
	ld   i1,r0
	call r14
	ld   [fr,-68],r14
	ld   r14,fr
	add  r14,#0xffffffc8
	ld   i0,r14
	call &__ZN6MAUtil11BasicStringIcED1Ev
	.line 914
	ld   r14,[fr,-28]
	add  r14,#0x4b0
	ld   r0,fr
	add  r0,#0xffffffd0
	ld   i0,r14
	ld   i1,r0
	call &__ZN6MAUtil3MapIiPN8NativeUI5LabelEEixERKi
	ld   d1,r14
	ld   i0,#0x30
	call &__Znwm
	ld   d0,r14
	ld   i0,d0
	call &__ZN8NativeUI5LabelC1Ev
	ld   [d1],d0
	.line 915
	ld   r14,[fr,-28]
	add  r14,#0x4b0
	ld   r0,fr
	add  r0,#0xffffffd0
	ld   i0,r14
	ld   i1,r0
	call &__ZN6MAUtil3MapIiPN8NativeUI5LabelEEixERKi
	ld   d0,[r14]
	ld   d1,fr
	add  d1,#0xffffffcc
	ld   r14,fr
	add  r14,#0xffffffb8
	ld   i0,r14
	ld   i1,#LC45
	call &__ZN6MAUtil11BasicStringIcEC1EPKc
	ld   r0,fr
	add  r0,#0xffffffb8
	ld   r14,[fr,-64]
	ld   r14,[r14]
	add  r14,#0x18
	ld   r14,[r14]
	ld   i0,[fr,-64]
	ld   i1,r0
	call r14
	ld   r0,r14
	ld   r14,[r0]
	add  r14,#0x8
	ld   r14,[r14]
	ld   i0,d1
	ld   i1,r0
	call r14
	ld   r14,fr
	add  r14,#0xffffffcc
	ld   i0,r14
	call &__ZNK6MAUtil11BasicStringIcE5c_strEv
	ld   r0,r14
	ld   r14,fr
	add  r14,#0xffffffc8
	ld   i0,r14
	ld   i1,r0
	call &__ZN6MAUtil11BasicStringIcEC1EPKc
	ld   r0,fr
	add  r0,#0xffffffc8
	ld   r14,[d0]
	add  r14,#0xa0
	ld   r14,[r14]
	ld   i0,d0
	ld   i1,r0
	call r14
	ld   r14,fr
	add  r14,#0xffffffc8
	ld   i0,r14
	call &__ZN6MAUtil11BasicStringIcED1Ev
	ld   r14,fr
	add  r14,#0xffffffcc
	ld   i0,r14
	call &__ZN6MAUtil11BasicStringIcED1Ev
	ld   r14,fr
	add  r14,#0xffffffb8
	ld   i0,r14
	call &__ZN6MAUtil11BasicStringIcED1Ev
	.line 917
	ld   r14,[fr,-28]
	add  r14,#0x3d0
	ld   r0,fr
	add  r0,#0xffffffd0
	ld   i0,r14
	ld   i1,r0
	call &__ZN6MAUtil3MapIixEixERKi
	ld   d0,r14
	ld   r14,fr
	add  r14,#0xffffffb8
	ld   i0,r14
	ld   i1,#LC99
	call &__ZN6MAUtil11BasicStringIcEC1EPKc
	ld   r0,fr
	add  r0,#0xffffffb8
	ld   r14,[fr,-68]
	ld   r14,[r14]
	add  r14,#0x18
	ld   r14,[r14]
	ld   i0,[fr,-68]
	ld   i1,r0
	call r14
	ld   r0,r14
	ld   r14,[r0]
	add  r14,#0x10
	ld   r14,[r14]
	ld   i0,r0
	call r14
	ld   [d0],r14
	sra  r14,#0x1f
	ld   [d0,4],r14
	ld   r14,fr
	add  r14,#0xffffffb8
	ld   i0,r14
	call &__ZN6MAUtil11BasicStringIcED1Ev
	.line 919
	ld   r14,[fr,-28]
	add  r14,#0x398
	ld   r0,fr
	add  r0,#0xffffffd0
	ld   i0,r14
	ld   i1,r0
	call &__ZN6MAUtil3MapIixEixERKi
	ld   d0,r14
	ld   r14,fr
	add  r14,#0xffffffb8
	ld   i0,r14
	ld   i1,#LC100
	call &__ZN6MAUtil11BasicStringIcEC1EPKc
	ld   r0,fr
	add  r0,#0xffffffb8
	ld   r14,[fr,-68]
	ld   r14,[r14]
	add  r14,#0x18
	ld   r14,[r14]
	ld   i0,[fr,-68]
	ld   i1,r0
	call r14
	ld   r0,r14
	ld   r14,[r0]
	add  r14,#0x10
	ld   r14,[r14]
	ld   i0,r0
	call r14
	ld   [d0],r14
	sra  r14,#0x1f
	ld   [d0,4],r14
	ld   r14,fr
	add  r14,#0xffffffb8
	ld   i0,r14
	call &__ZN6MAUtil11BasicStringIcED1Ev
	.line 921
	ld   r14,[fr,-28]
	add  r14,#0x408
	ld   r0,fr
	add  r0,#0xffffffd0
	ld   i0,r14
	ld   i1,r0
	call &__ZN6MAUtil3MapIixEixERKi
	ld   d0,r14
	ld   r14,fr
	add  r14,#0xffffffb8
	ld   i0,r14
	ld   i1,#LC101
	call &__ZN6MAUtil11BasicStringIcEC1EPKc
	ld   r0,fr
	add  r0,#0xffffffb8
	ld   r14,[fr,-68]
	ld   r14,[r14]
	add  r14,#0x18
	ld   r14,[r14]
	ld   i0,[fr,-68]
	ld   i1,r0
	call r14
	ld   r0,r14
	ld   r14,[r0]
	add  r14,#0x10
	ld   r14,[r14]
	ld   i0,r0
	call r14
	ld   [d0],r14
	sra  r14,#0x1f
	ld   [d0,4],r14
	ld   r14,fr
	add  r14,#0xffffffb8
	ld   i0,r14
	call &__ZN6MAUtil11BasicStringIcED1Ev
	.line 923
	ld   r14,[fr,-28]
	add  r14,#0x440
	ld   r0,fr
	add  r0,#0xffffffd0
	ld   i0,r14
	ld   i1,r0
	call &__ZN6MAUtil3MapIixEixERKi
	ld   d0,r14
	ld   r14,fr
	add  r14,#0xffffffb8
	ld   i0,r14
	ld   i1,#LC102
	call &__ZN6MAUtil11BasicStringIcEC1EPKc
	ld   r0,fr
	add  r0,#0xffffffb8
	ld   r14,[fr,-68]
	ld   r14,[r14]
	add  r14,#0x18
	ld   r14,[r14]
	ld   i0,[fr,-68]
	ld   i1,r0
	call r14
	ld   r0,r14
	ld   r14,[r0]
	add  r14,#0x10
	ld   r14,[r14]
	ld   i0,r0
	call r14
	ld   [d0],r14
	sra  r14,#0x1f
	ld   [d0,4],r14
	ld   r14,fr
	add  r14,#0xffffffb8
	ld   i0,r14
	call &__ZN6MAUtil11BasicStringIcED1Ev
	.line 925
	ld   r14,[fr,-28]
	add  r14,#0x478
	ld   r0,fr
	add  r0,#0xffffffd0
	ld   i0,r14
	ld   i1,r0
	call &__ZN6MAUtil3MapIiPN8NativeUI12ListViewItemEEixERKi
	ld   d1,r14
	ld   i0,#0x30
	call &__Znwm
	ld   d0,r14
	ld   i0,d0
	call &__ZN8NativeUI12ListViewItemC1Ev
	ld   [d1],d0
	.line 926
	ld   r14,[fr,-28]
	add  r14,#0x478
	ld   r0,fr
	add  r0,#0xffffffd0
	ld   i0,r14
	ld   i1,r0
	call &__ZN6MAUtil3MapIiPN8NativeUI12ListViewItemEEixERKi
	ld   d0,[r14]
	ld   r14,[fr,-28]
	add  r14,#0x4b0
	ld   r0,fr
	add  r0,#0xffffffd0
	ld   i0,r14
	ld   i1,r0
	call &__ZN6MAUtil3MapIiPN8NativeUI5LabelEEixERKi
	ld   r0,[r14]
	ld   r14,[d0]
	add  r14,#0x34
	ld   r14,[r14]
	ld   i0,d0
	ld   i1,r0
	call r14
	.line 927
	ld   r14,[fr,-28]
	add  r14,#0x478
	ld   r0,fr
	add  r0,#0xffffffd0
	ld   i0,r14
	ld   i1,r0
	call &__ZN6MAUtil3MapIiPN8NativeUI12ListViewItemEEixERKi
	ld   r1,[r14]
	ld   r14,[fr,-28]
	ld   r14,[r14,916]
	ld   r14,[r14]
	add  r14,#0x34
	ld   r0,[fr,-28]
	ld   r14,[r14]
	ld   i0,[r0,916]
	ld   i1,r1
	call r14
	.line 928
	ld   r14,[fr,-48]
	add  r14,#0x1
	ld   [fr,-48],r14
L334:
	.dlab LBE174
	.dlab LBE173
	.dlab LBE172
	.dlab LBE171
	.line 908
	ld   r14,[fr,-44]
	add  r14,#0x1
	ld   [fr,-44],r14
	jp   #L332
L333:
	.dlab LBE170
	.line 931
	ld   r14,[fr,-28]
	ld   i0,[fr,-28]
	ld   i1,[r14,912]
	call &__ZN8NativeUI6Screen13setMainWidgetEPNS_6WidgetE
	.line 932
	ld   r0,[fr,-28]
	ld   r14,[fr,-28]
	ld   r14,[r14,912]
	ld   [r0,160],r14
L319:
	.dlab LBE166
	.dlab LBE165
	.dlab LBE164
	.dlab LBE163
	.line 934
	add  sp,#0x3c
	pop  rt,d3
	ret
	.stabs	"idx1:(0,3)",128,0,907,-48
	.stabn	192,0,0,LBB166-__ZN8AlertTab20parseJSONInformationEPN6MAUtil7YAJLDom5ValueE
	.stabs	"index:(0,3)",128,0,892,-44
	.stabn	192,0,0,LBB168-__ZN8AlertTab20parseJSONInformationEPN6MAUtil7YAJLDom5ValueE
	.stabs	"idx:(0,3)",128,0,893,-48
	.stabn	192,0,0,LBB169-__ZN8AlertTab20parseJSONInformationEPN6MAUtil7YAJLDom5ValueE
	.stabn	224,0,0,LBE169-__ZN8AlertTab20parseJSONInformationEPN6MAUtil7YAJLDom5ValueE
	.stabn	224,0,0,LBE168-__ZN8AlertTab20parseJSONInformationEPN6MAUtil7YAJLDom5ValueE
	.stabs	"idx:(0,3)",128,0,908,-44
	.stabn	192,0,0,LBB170-__ZN8AlertTab20parseJSONInformationEPN6MAUtil7YAJLDom5ValueE
	.stabs	"valueTmp:(24,35)",128,0,910,-64
	.stabn	192,0,0,LBB172-__ZN8AlertTab20parseJSONInformationEPN6MAUtil7YAJLDom5ValueE
	.stabs	"valueTmp1:(24,35)",128,0,912,-68
	.stabn	192,0,0,LBB174-__ZN8AlertTab20parseJSONInformationEPN6MAUtil7YAJLDom5ValueE
	.stabn	224,0,0,LBE174-__ZN8AlertTab20parseJSONInformationEPN6MAUtil7YAJLDom5ValueE
	.stabn	224,0,0,LBE172-__ZN8AlertTab20parseJSONInformationEPN6MAUtil7YAJLDom5ValueE
	.stabn	224,0,0,LBE170-__ZN8AlertTab20parseJSONInformationEPN6MAUtil7YAJLDom5ValueE
	.stabn	224,0,0,LBE166-__ZN8AlertTab20parseJSONInformationEPN6MAUtil7YAJLDom5ValueE
Lscope56:
.data
LC103:
	.ascii "Alerte : \0"
.code
	.stabs	"_ZN8AlertTab15parseJSONPluginEPN6MAUtil7YAJLDom5ValueE:F(0,6)",36,0,936,__ZN8AlertTab15parseJSONPluginEPN6MAUtil7YAJLDom5ValueE
	.stabs	"this:p(0,25)",160,0,936,-28
	.stabs	"root:p(24,35)",160,0,936,-32
	.global	__ZN8AlertTab15parseJSONPluginEPN6MAUtil7YAJLDom5ValueE

.func __ZN8AlertTab15parseJSONPluginEPN6MAUtil7YAJLDom5ValueE, 2, void
	.line 936
	push rt,d3
	sub  sp,#0x2c
	ld   fr,sp
	add  fr,#0x44
	ld   [fr,-28],i0
	ld   [fr,-32],i1
	.dlab LBB175
	.dlab LBB176
	.dlab LBB177
	.line 938
	ld   r0,[fr,-32]
	ld   r14,#0x0
	jc   eq,r0,r14,#L338
	ld   i0,[fr,-32]
	call &__ZNK6MAUtil7YAJLDom5Value7getTypeEv
	ld   r0,r14
	ld   r14,#0x0
	jc   eq,r0,r14,#L338
	ld   i0,[fr,-32]
	call &__ZNK6MAUtil7YAJLDom5Value7getTypeEv
	ld   r0,r14
	ld   r14,#0x3
	jc   ne,r0,r14,#L338
	jp   #L337
L338:
	.line 940
	ld   i0,#LC40
	call &_lprintfln
	jp   #L336
L337:
	.dlab LBB178
	.line 943
	ld   i0,#LC41
	call &_lprintfln
	.dlab LBB179
	.line 944
	ld   r14,[fr,-28]
	ld   r0,[r14,736]
	ld   r14,#0x0
	jc   ne,r0,r14,#L340
	.line 945
	ld   d3,[fr,-28]
	ld   r14,[fr,-28]
	ld   r14,[r14,156]
	add  r14,#0x1d
	ld   i0,r14
	call &__ZN7Convert2trEi
	ld   r0,r14
	ld   r14,fr
	add  r14,#0xffffffdc
	ld   i0,r14
	ld   i1,r0
	call &__ZN6MAUtil11BasicStringIcEC1EPKc
	ld   d1,fr
	add  d1,#0xffffffdc
	ld   r14,fr
	add  r14,#0xffffffd8
	ld   i0,r14
	ld   i1,#LC15
	call &__ZN6MAUtil11BasicStringIcEC1EPKc
	ld   d2,fr
	add  d2,#0xffffffd8
	ld   i0,#0x44
	call &__Znwm
	ld   d0,r14
	ld   i0,d0
	ld   i1,d1
	ld   i2,d2
	call &__ZN4PageC1EN6MAUtil11BasicStringIcEES2_
	ld   [d3,736],d0
	ld   r14,fr
	add  r14,#0xffffffd8
	ld   i0,r14
	call &__ZN6MAUtil11BasicStringIcED1Ev
	ld   r14,fr
	add  r14,#0xffffffdc
	ld   i0,r14
	call &__ZN6MAUtil11BasicStringIcED1Ev
	.line 947
	ld   d1,[fr,-28]
	ld   i0,#0x3c
	call &__Znwm
	ld   d0,r14
	ld   i0,d0
	ld   i1,#0x0
	ld   i2,#0x0
	call &__ZN8NativeUI8ListViewC1ENS_12ListViewTypeENS_13ListViewStyleE
	ld   [d1,740],d0
	.line 948
	ld   r14,[fr,-28]
	ld   r14,[r14,740]
	ld   r14,[r14]
	add  r14,#0xa0
	ld   r0,[fr,-28]
	ld   r1,[fr,-28]
	add  r1,#0x4c
	ld   r14,[r14]
	ld   i0,[r0,740]
	ld   i1,r1
	call r14
	.line 949
	ld   r14,[fr,-28]
	ld   r14,[r14,736]
	ld   r14,[r14]
	add  r14,#0x34
	ld   r0,[fr,-28]
	ld   r1,[fr,-28]
	ld   r14,[r14]
	ld   i0,[r0,736]
	ld   i1,[r1,740]
	call r14
	jp   #L341
L340:
	.dlab LBB180
	.line 951
	ld   r14,[fr,-28]
	add  r14,#0x320
	ld   i0,r14
	call &__ZNK6MAUtil10DictionaryIKiNS_4PairIS1_PN8NativeUI12ListViewItemEEEE4sizeEv
	ld   [fr,-44],r14
	.dlab LBB181
	.line 952
	ld   r0,#0x0
	ld   [fr,-48],r0
L342:
	ld   r0,[fr,-48]
	ld   r14,[fr,-44]
	jc   ge,r0,r14,#L343
	.line 953
	ld   r14,[fr,-28]
	add  r14,#0x320
	ld   r0,fr
	add  r0,#0xffffffd0
	ld   i0,r14
	ld   i1,r0
	call &__ZN6MAUtil3MapIiPN8NativeUI12ListViewItemEEixERKi
	ld   r1,[r14]
	ld   r14,[fr,-28]
	ld   r14,[r14,740]
	ld   r14,[r14]
	add  r14,#0x3c
	ld   r0,[fr,-28]
	ld   r14,[r14]
	ld   i0,[r0,740]
	ld   i1,r1
	call r14
	.line 954
	ld   r14,[fr,-28]
	add  r14,#0x320
	ld   r0,fr
	add  r0,#0xffffffd0
	ld   i0,r14
	ld   i1,r0
	call &__ZN6MAUtil3MapIiPN8NativeUI12ListViewItemEEixERKi
	ld   d0,[r14]
	ld   r14,[fr,-28]
	add  r14,#0x358
	ld   r0,fr
	add  r0,#0xffffffd0
	ld   i0,r14
	ld   i1,r0
	call &__ZN6MAUtil3MapIiPN8NativeUI5LabelEEixERKi
	ld   r0,[r14]
	ld   r14,[d0]
	add  r14,#0x3c
	ld   r14,[r14]
	ld   i0,d0
	ld   i1,r0
	call r14
	.line 955
	ld   r14,[fr,-28]
	add  r14,#0x358
	ld   r0,fr
	add  r0,#0xffffffd0
	ld   i0,r14
	ld   i1,r0
	call &__ZN6MAUtil3MapIiPN8NativeUI5LabelEEixERKi
	ld   r14,[r14]
	ld   [fr,-60],r14
	ld   r14,#0x0
	ld   r0,[fr,-60]
	jc   eq,r0,r14,#L346
	ld   r0,[fr,-60]
	ld   r14,[r0]
	add  r14,#0x4
	ld   r14,[r14]
	ld   i0,[fr,-60]
	call r14
L346:
	.line 956
	ld   r14,[fr,-28]
	add  r14,#0x320
	ld   r0,fr
	add  r0,#0xffffffd0
	ld   i0,r14
	ld   i1,r0
	call &__ZN6MAUtil3MapIiPN8NativeUI12ListViewItemEEixERKi
	ld   r14,[r14]
	ld   [fr,-64],r14
	ld   r14,#0x0
	ld   r0,[fr,-64]
	jc   eq,r0,r14,#L344
	ld   r0,[fr,-64]
	ld   r14,[r0]
	add  r14,#0x4
	ld   r14,[r14]
	ld   i0,[fr,-64]
	call r14
L344:
	.line 952
	ld   r14,[fr,-48]
	add  r14,#0x1
	ld   [fr,-48],r14
	jp   #L342
L343:
	.dlab LBE181
	.line 958
	ld   r14,[fr,-28]
	add  r14,#0x358
	ld   i0,r14
	call &__ZN6MAUtil10DictionaryIKiNS_4PairIS1_PN8NativeUI5LabelEEEE5clearEv
	.line 959
	ld   r14,[fr,-28]
	add  r14,#0x320
	ld   i0,r14
	call &__ZN6MAUtil10DictionaryIKiNS_4PairIS1_PN8NativeUI12ListViewItemEEEE5clearEv
L341:
	.dlab LBE180
	.dlab LBE179
	.line 961
	ld   d1,fr
	add  d1,#0xffffffd8
	ld   d0,fr
	add  d0,#0xffffffdc
	ld   r14,[fr,-28]
	add  r14,#0x2a8
	ld   r0,[fr,-28]
	add  r0,#0xa4
	ld   i0,r14
	ld   i1,r0
	call &__ZN6MAUtil3MapIiNS_11BasicStringIcEEEixERKi
	ld   i0,d0
	ld   i1,#LC103
	ld   i2,r14
	call &__ZN6MAUtilplIcEENS_11BasicStringIT_EEPKS2_RKS3_
	ld   d0,fr
	add  d0,#0xffffffdc
	ld   r14,fr
	add  r14,#0xffffffcc
	ld   i0,r14
	ld   i1,#LC12
	call &__ZN6MAUtil11BasicStringIcEC1EPKc
	ld   r14,fr
	add  r14,#0xffffffcc
	ld   i0,d1
	ld   i1,d0
	ld   i2,r14
	call &__ZNK6MAUtil11BasicStringIcEplERKS1_
	ld   r0,fr
	add  r0,#0xffffffd8
	ld   r14,[fr,-28]
	ld   i0,[r14,736]
	ld   i1,r0
	call &__ZN4Page7setMemoEN6MAUtil11BasicStringIcEE
	ld   r14,fr
	add  r14,#0xffffffd8
	ld   i0,r14
	call &__ZN6MAUtil11BasicStringIcED1Ev
	ld   r14,fr
	add  r14,#0xffffffcc
	ld   i0,r14
	call &__ZN6MAUtil11BasicStringIcED1Ev
	ld   r14,fr
	add  r14,#0xffffffdc
	ld   i0,r14
	call &__ZN6MAUtil11BasicStringIcED1Ev
	.line 964
	ld   r14,[fr,-32]
	ld   r14,[r14]
	add  r14,#0x28
	ld   r14,[r14]
	ld   i0,[fr,-32]
	call r14
	ld   [sp],r14
	ld   i0,#LC97
	call &_lprintfln
	.dlab LBB182
	.line 965
	ld   r14,#0x0
	ld   [fr,-48],r14
L349:
	ld   r14,[fr,-32]
	ld   r14,[r14]
	add  r14,#0x28
	ld   r14,[r14]
	ld   i0,[fr,-32]
	call r14
	ld   r0,r14
	add  r0,#0xffffffff
	ld   r14,[fr,-48]
	jc   lt,r0,r14,#L350
	.dlab LBB183
	.dlab LBB184
	.line 966
	ld   r14,[fr,-32]
	ld   r14,[r14]
	add  r14,#0x1c
	ld   r14,[r14]
	ld   i0,[fr,-32]
	ld   i1,[fr,-48]
	call r14
	ld   [fr,-44],r14
	.line 968
	ld   d0,fr
	add  d0,#0xffffffcc
	ld   r14,fr
	add  r14,#0xffffffd8
	ld   i0,r14
	ld   i1,#LC45
	call &__ZN6MAUtil11BasicStringIcEC1EPKc
	ld   r0,fr
	add  r0,#0xffffffd8
	ld   r14,[fr,-44]
	ld   r14,[r14]
	add  r14,#0x18
	ld   r14,[r14]
	ld   i0,[fr,-44]
	ld   i1,r0
	call r14
	ld   r0,r14
	ld   r14,[r0]
	add  r14,#0x8
	ld   r14,[r14]
	ld   i0,d0
	ld   i1,r0
	call r14
	ld   r14,fr
	add  r14,#0xffffffd8
	ld   i0,r14
	call &__ZN6MAUtil11BasicStringIcED1Ev
	.line 970
	ld   r14,[fr,-28]
	add  r14,#0x2e8
	ld   r0,fr
	add  r0,#0xffffffd0
	ld   i0,r14
	ld   i1,r0
	call &__ZN6MAUtil3MapIixEixERKi
	ld   d0,r14
	ld   r14,fr
	add  r14,#0xffffffd8
	ld   i0,r14
	ld   i1,#LC62
	call &__ZN6MAUtil11BasicStringIcEC1EPKc
	ld   r0,fr
	add  r0,#0xffffffd8
	ld   r14,[fr,-44]
	ld   r14,[r14]
	add  r14,#0x18
	ld   r14,[r14]
	ld   i0,[fr,-44]
	ld   i1,r0
	call r14
	ld   r0,r14
	ld   r14,[r0]
	add  r14,#0x10
	ld   r14,[r14]
	ld   i0,r0
	call r14
	ld   [d0],r14
	sra  r14,#0x1f
	ld   [d0,4],r14
	ld   r14,fr
	add  r14,#0xffffffd8
	ld   i0,r14
	call &__ZN6MAUtil11BasicStringIcED1Ev
	.line 971
	ld   r14,[fr,-28]
	add  r14,#0x358
	ld   r0,fr
	add  r0,#0xffffffd0
	ld   i0,r14
	ld   i1,r0
	call &__ZN6MAUtil3MapIiPN8NativeUI5LabelEEixERKi
	ld   d1,r14
	ld   i0,#0x30
	call &__Znwm
	ld   d0,r14
	ld   i0,d0
	call &__ZN8NativeUI5LabelC1Ev
	ld   [d1],d0
	.line 972
	ld   r14,[fr,-28]
	add  r14,#0x358
	ld   r0,fr
	add  r0,#0xffffffd0
	ld   i0,r14
	ld   i1,r0
	call &__ZN6MAUtil3MapIiPN8NativeUI5LabelEEixERKi
	ld   d0,[r14]
	ld   d1,fr
	add  d1,#0xffffffdc
	ld   r14,fr
	add  r14,#0xffffffc8
	ld   i0,r14
	ld   i1,#LC45
	call &__ZN6MAUtil11BasicStringIcEC1EPKc
	ld   r0,fr
	add  r0,#0xffffffc8
	ld   r14,[fr,-44]
	ld   r14,[r14]
	add  r14,#0x18
	ld   r14,[r14]
	ld   i0,[fr,-44]
	ld   i1,r0
	call r14
	ld   r0,r14
	ld   r14,[r0]
	add  r14,#0x8
	ld   r14,[r14]
	ld   i0,d1
	ld   i1,r0
	call r14
	ld   r14,fr
	add  r14,#0xffffffdc
	ld   i0,r14
	call &__ZNK6MAUtil11BasicStringIcE5c_strEv
	ld   r0,r14
	ld   r14,fr
	add  r14,#0xffffffd8
	ld   i0,r14
	ld   i1,r0
	call &__ZN6MAUtil11BasicStringIcEC1EPKc
	ld   r0,fr
	add  r0,#0xffffffd8
	ld   r14,[d0]
	add  r14,#0xa0
	ld   r14,[r14]
	ld   i0,d0
	ld   i1,r0
	call r14
	ld   r14,fr
	add  r14,#0xffffffd8
	ld   i0,r14
	call &__ZN6MAUtil11BasicStringIcED1Ev
	ld   r14,fr
	add  r14,#0xffffffdc
	ld   i0,r14
	call &__ZN6MAUtil11BasicStringIcED1Ev
	ld   r14,fr
	add  r14,#0xffffffc8
	ld   i0,r14
	call &__ZN6MAUtil11BasicStringIcED1Ev
	.line 974
	ld   r14,[fr,-28]
	add  r14,#0x320
	ld   r0,fr
	add  r0,#0xffffffd0
	ld   i0,r14
	ld   i1,r0
	call &__ZN6MAUtil3MapIiPN8NativeUI12ListViewItemEEixERKi
	ld   d1,r14
	ld   i0,#0x30
	call &__Znwm
	ld   d0,r14
	ld   i0,d0
	call &__ZN8NativeUI12ListViewItemC1Ev
	ld   [d1],d0
	.line 975
	ld   r14,[fr,-28]
	add  r14,#0x320
	ld   r0,fr
	add  r0,#0xffffffd0
	ld   i0,r14
	ld   i1,r0
	call &__ZN6MAUtil3MapIiPN8NativeUI12ListViewItemEEixERKi
	ld   d0,[r14]
	ld   r14,[fr,-28]
	add  r14,#0x358
	ld   r0,fr
	add  r0,#0xffffffd0
	ld   i0,r14
	ld   i1,r0
	call &__ZN6MAUtil3MapIiPN8NativeUI5LabelEEixERKi
	ld   r0,[r14]
	ld   r14,[d0]
	add  r14,#0x34
	ld   r14,[r14]
	ld   i0,d0
	ld   i1,r0
	call r14
	.line 976
	ld   r14,[fr,-28]
	add  r14,#0x320
	ld   r0,fr
	add  r0,#0xffffffd0
	ld   i0,r14
	ld   i1,r0
	call &__ZN6MAUtil3MapIiPN8NativeUI12ListViewItemEEixERKi
	ld   r1,[r14]
	ld   r14,[fr,-28]
	ld   r14,[r14,740]
	ld   r14,[r14]
	add  r14,#0x34
	ld   r0,[fr,-28]
	ld   r14,[r14]
	ld   i0,[r0,740]
	ld   i1,r1
	call r14
	ld   r14,fr
	add  r14,#0xffffffcc
	ld   i0,r14
	call &__ZN6MAUtil11BasicStringIcED1Ev
	.dlab LBE184
	.dlab LBE183
	.line 965
	ld   r14,[fr,-48]
	add  r14,#0x1
	ld   [fr,-48],r14
	jp   #L349
L350:
	.dlab LBE182
	.line 978
	ld   r14,[fr,-28]
	ld   i0,[fr,-28]
	ld   i1,[r14,736]
	call &__ZN8NativeUI6Screen13setMainWidgetEPNS_6WidgetE
	.line 979
	ld   r0,[fr,-28]
	ld   r14,[fr,-28]
	ld   r14,[r14,736]
	ld   [r0,160],r14
L336:
	.dlab LBE178
	.dlab LBE177
	.dlab LBE176
	.dlab LBE175
	.line 981
	add  sp,#0x2c
	pop  rt,d3
	ret
	.stabs	"index:(0,3)",128,0,951,-44
	.stabn	192,0,0,LBB180-__ZN8AlertTab15parseJSONPluginEPN6MAUtil7YAJLDom5ValueE
	.stabs	"idx:(0,3)",128,0,952,-48
	.stabn	192,0,0,LBB181-__ZN8AlertTab15parseJSONPluginEPN6MAUtil7YAJLDom5ValueE
	.stabn	224,0,0,LBE181-__ZN8AlertTab15parseJSONPluginEPN6MAUtil7YAJLDom5ValueE
	.stabn	224,0,0,LBE180-__ZN8AlertTab15parseJSONPluginEPN6MAUtil7YAJLDom5ValueE
	.stabs	"idx:(0,3)",128,0,965,-48
	.stabn	192,0,0,LBB182-__ZN8AlertTab15parseJSONPluginEPN6MAUtil7YAJLDom5ValueE
	.stabs	"valueTmp:(24,35)",128,0,966,-44
	.stabs	"test1:(13,1)",128,0,968,-52
	.stabn	192,0,0,LBB184-__ZN8AlertTab15parseJSONPluginEPN6MAUtil7YAJLDom5ValueE
	.stabn	224,0,0,LBE184-__ZN8AlertTab15parseJSONPluginEPN6MAUtil7YAJLDom5ValueE
	.stabn	224,0,0,LBE182-__ZN8AlertTab15parseJSONPluginEPN6MAUtil7YAJLDom5ValueE
Lscope57:
	.set	%4=__ZN8AlertTab19listViewItemClickedEPN8NativeUI8ListViewEPNS0_12ListViewItemE
	.stabs	"this:p(0,25)",160,0,984,-12
	.stabs	"listView:p(0,33)=*(0,34)=xsListView:",160,0,984,-16
	.stabs	"listViewItem:p(1,36)",160,0,984,-20
	.global	__ZThn76_N8AlertTab19listViewItemClickedEPN8NativeUI8ListViewEPNS0_12ListViewItemE

.func __ZThn76_N8AlertTab19listViewItemClickedEPN8NativeUI8ListViewEPNS0_12ListViewItemE, 3, void
	.stabs	"C:\\Users\\gdr\\Documents\\source\\mobile-app\\MobileApp\\/AlertTab.h",132,0,0,Ltext21
Ltext21:
	.line 39
	push rt,fr
	sub  sp,#0xc
	ld   fr,sp
	add  fr,#0x14
	ld   [fr,-12],i0
	ld   [fr,-16],i1
	ld   [fr,-20],i2
	.line 39
	ld   r14,[fr,-12]
	add  r14,#0xffffffb4
	ld   i0,r14
	ld   i1,[fr,-16]
	ld   i2,[fr,-20]
	call &%4
	add  sp,#0xc
	pop  rt,fr
	ret
Lscope58:
.data
LC104:
	.ascii "Clicked\0"
LC105:
	.ascii "/assets/\0"
LC106:
	.ascii "/informations/\0"
LC107:
	.ascii "showKeyboard\0"
LC108:
	.ascii "/criteria/\0"
LC109:
	.ascii "/subunits/\0"
LC110:
	.ascii "operateur : \0"
LC111:
	.ascii "/organizations/users/\0"
LC112:
	.ascii "/medias/\0"
.code
	.stabs	"_ZN8AlertTab19listViewItemClickedEPN8NativeUI8ListViewEPNS0_12ListViewItemE:F(0,6)",36,0,984,__ZN8AlertTab19listViewItemClickedEPN8NativeUI8ListViewEPNS0_12ListViewItemE
	.stabs	"this:p(0,25)",160,0,984,-20
	.stabs	"listView:p(0,33)",160,0,984,-24
	.stabs	"listViewItem:p(1,36)",160,0,984,-28
	.global	__ZN8AlertTab19listViewItemClickedEPN8NativeUI8ListViewEPNS0_12ListViewItemE

.func __ZN8AlertTab19listViewItemClickedEPN8NativeUI8ListViewEPNS0_12ListViewItemE, 3, void
	.stabs	"C:\\Users\\gdr\\Documents\\source\\mobile-app\\MobileApp\\AlertTab.cpp",132,0,0,Ltext22
Ltext22:
	.line 984
	push rt,d1
	sub  sp,#0x38
	ld   fr,sp
	add  fr,#0x48
	ld   [fr,-20],i0
	ld   [fr,-24],i1
	ld   [fr,-28],i2
	.dlab LBB185
	.dlab LBB186
	.line 985
	ld   i0,#LC104
	call &_lprintfln
	.dlab LBB187
	.line 986
	ld   r14,[fr,-20]
	ld   r0,[r14,204]
	ld   r14,[fr,-24]
	jc   ne,r0,r14,#L354
	.dlab LBB188
	.line 987
	ld   r14,[fr,-20]
	ld   r0,[r14,396]
	ld   r14,#0xffffffff
	jc   eq,r0,r14,#L355
	.line 989
	ld   r14,[fr,-20]
	add  r14,#0xd0
	ld   r0,[fr,-20]
	add  r0,#0x18c
	ld   i0,r14
	ld   i1,r0
	call &__ZN6MAUtil3MapIiPN8NativeUI12ListViewItemEEixERKi
	ld   r0,[r14]
	ld   r14,[r0]
	add  r14,#0x3c
	ld   r1,[fr,-20]
	ld   r14,[r14]
	ld   i0,r0
	ld   i1,[r1,392]
	call r14
	.line 990
	ld   r14,[fr,-20]
	add  r14,#0xd0
	ld   r0,[fr,-20]
	add  r0,#0x18c
	ld   i0,r14
	ld   i1,r0
	call &__ZN6MAUtil3MapIiPN8NativeUI12ListViewItemEEixERKi
	ld   d0,[r14]
	ld   r14,[fr,-20]
	add  r14,#0x108
	ld   r0,[fr,-20]
	add  r0,#0x18c
	ld   i0,r14
	ld   i1,r0
	call &__ZN6MAUtil3MapIiPN8NativeUI5LabelEEixERKi
	ld   r0,[r14]
	ld   r14,[d0]
	add  r14,#0x34
	ld   r14,[r14]
	ld   i0,d0
	ld   i1,r0
	call r14
	.line 992
	ld   r14,[fr,-20]
	ld   r0,#0xffffffff
	ld   [r14,396],r0
L355:
	.dlab LBB189
	.line 994
	ld   r14,#0x0
	ld   [fr,-32],r14
L356:
	ld   r14,[fr,-20]
	add  r14,#0xd0
	ld   i0,r14
	call &__ZNK6MAUtil10DictionaryIKiNS_4PairIS1_PN8NativeUI12ListViewItemEEEE4sizeEv
	ld   r0,r14
	ld   r14,[fr,-32]
	jc   geu,r14,r0,#L353
	.line 995
	ld   r14,[fr,-20]
	add  r14,#0xd0
	ld   r0,fr
	add  r0,#0xffffffe0
	ld   i0,r14
	ld   i1,r0
	call &__ZN6MAUtil3MapIiPN8NativeUI12ListViewItemEEixERKi
	ld   r0,[r14]
	ld   r14,[fr,-28]
	jc   ne,r0,r14,#L358
	.line 996
	ld   r14,[fr,-20]
	ld   r0,[fr,-32]
	ld   [r14,396],r0
	.line 997
	ld   r14,[fr,-20]
	add  r14,#0xd0
	ld   r0,fr
	add  r0,#0xffffffe0
	ld   i0,r14
	ld   i1,r0
	call &__ZN6MAUtil3MapIiPN8NativeUI12ListViewItemEEixERKi
	ld   d0,[r14]
	ld   r14,[fr,-20]
	add  r14,#0x108
	ld   r0,fr
	add  r0,#0xffffffe0
	ld   i0,r14
	ld   i1,r0
	call &__ZN6MAUtil3MapIiPN8NativeUI5LabelEEixERKi
	ld   r0,[r14]
	ld   r14,[d0]
	add  r14,#0x3c
	ld   r14,[r14]
	ld   i0,d0
	ld   i1,r0
	call r14
	.line 998
	ld   d1,[fr,-20]
	ld   i0,#0x3c
	call &__Znwm
	ld   d0,r14
	ld   i0,d0
	call &__ZN8NativeUI16HorizontalLayoutC1Ev
	ld   [d1,392],d0
	.line 1000
	ld   d1,[fr,-20]
	ld   i0,#0x3c
	call &__Znwm
	ld   d0,r14
	ld   i0,d0
	call &__ZN8NativeUI6ButtonC1Ev
	ld   [d1,380],d0
	.line 1001
	ld   r14,[fr,-20]
	ld   r14,[r14,380]
	ld   r14,[r14]
	add  r14,#0xbc
	ld   r0,[fr,-20]
	ld   r1,[fr,-20]
	add  r1,#0x48
	ld   r14,[r14]
	ld   i0,[r0,380]
	ld   i1,r1
	call r14
	.line 1002
	ld   r14,[fr,-20]
	ld   r14,[r14,156]
	add  r14,#0x3d
	ld   i0,r14
	call &__ZN7Convert2trEi
	ld   r0,r14
	ld   r14,fr
	add  r14,#0xffffffdc
	ld   i0,r14
	ld   i1,r0
	call &__ZN6MAUtil11BasicStringIcEC1EPKc
	ld   r1,fr
	add  r1,#0xffffffdc
	ld   r14,[fr,-20]
	ld   r14,[r14,380]
	ld   r14,[r14]
	add  r14,#0xa0
	ld   r0,[fr,-20]
	ld   r14,[r14]
	ld   i0,[r0,380]
	ld   i1,r1
	call r14
	ld   r14,fr
	add  r14,#0xffffffdc
	ld   i0,r14
	call &__ZN6MAUtil11BasicStringIcED1Ev
	.line 1005
	ld   r14,[fr,-20]
	ld   r14,[r14,380]
	ld   r14,[r14]
	add  r14,#0x68
	ld   r0,[fr,-20]
	ld   r14,[r14]
	ld   i0,[r0,380]
	call r14
	.line 1006
	ld   r14,[fr,-20]
	ld   r14,[r14,392]
	ld   r14,[r14]
	add  r14,#0x34
	ld   r0,[fr,-20]
	ld   r1,[fr,-20]
	ld   r14,[r14]
	ld   i0,[r0,392]
	ld   i1,[r1,380]
	call r14
	.line 1007
	ld   d1,[fr,-20]
	ld   i0,#0x3c
	call &__Znwm
	ld   d0,r14
	ld   i0,d0
	call &__ZN8NativeUI6ButtonC1Ev
	ld   [d1,384],d0
	.line 1008
	ld   r14,[fr,-20]
	ld   r14,[r14,156]
	add  r14,#0x3f
	ld   i0,r14
	call &__ZN7Convert2trEi
	ld   r0,r14
	ld   r14,fr
	add  r14,#0xffffffdc
	ld   i0,r14
	ld   i1,r0
	call &__ZN6MAUtil11BasicStringIcEC1EPKc
	ld   r1,fr
	add  r1,#0xffffffdc
	ld   r14,[fr,-20]
	ld   r14,[r14,384]
	ld   r14,[r14]
	add  r14,#0xa0
	ld   r0,[fr,-20]
	ld   r14,[r14]
	ld   i0,[r0,384]
	ld   i1,r1
	call r14
	ld   r14,fr
	add  r14,#0xffffffdc
	ld   i0,r14
	call &__ZN6MAUtil11BasicStringIcED1Ev
	.line 1012
	ld   r14,[fr,-20]
	ld   r14,[r14,384]
	ld   r14,[r14]
	add  r14,#0xbc
	ld   r0,[fr,-20]
	ld   r1,[fr,-20]
	add  r1,#0x48
	ld   r14,[r14]
	ld   i0,[r0,384]
	ld   i1,r1
	call r14
	.line 1013
	ld   r14,[fr,-20]
	ld   r14,[r14,392]
	ld   r14,[r14]
	add  r14,#0x34
	ld   r0,[fr,-20]
	ld   r1,[fr,-20]
	ld   r14,[r14]
	ld   i0,[r0,392]
	ld   i1,[r1,384]
	call r14
	.line 1014
	ld   d1,[fr,-20]
	ld   i0,#0x3c
	call &__Znwm
	ld   d0,r14
	ld   i0,d0
	call &__ZN8NativeUI6ButtonC1Ev
	ld   [d1,388],d0
	.line 1015
	ld   r14,[fr,-20]
	ld   r14,[r14,388]
	ld   r14,[r14]
	add  r14,#0xbc
	ld   r0,[fr,-20]
	ld   r1,[fr,-20]
	add  r1,#0x48
	ld   r14,[r14]
	ld   i0,[r0,388]
	ld   i1,r1
	call r14
	.line 1016
	ld   r14,[fr,-20]
	ld   r14,[r14,156]
	add  r14,#0x41
	ld   i0,r14
	call &__ZN7Convert2trEi
	ld   r0,r14
	ld   r14,fr
	add  r14,#0xffffffdc
	ld   i0,r14
	ld   i1,r0
	call &__ZN6MAUtil11BasicStringIcEC1EPKc
	ld   r1,fr
	add  r1,#0xffffffdc
	ld   r14,[fr,-20]
	ld   r14,[r14,388]
	ld   r14,[r14]
	add  r14,#0xa0
	ld   r0,[fr,-20]
	ld   r14,[r14]
	ld   i0,[r0,388]
	ld   i1,r1
	call r14
	ld   r14,fr
	add  r14,#0xffffffdc
	ld   i0,r14
	call &__ZN6MAUtil11BasicStringIcED1Ev
	.line 1019
	ld   r14,[fr,-20]
	ld   r14,[r14,388]
