.model full
	.sourcedir 'C:\Users\gdr\Documents\source\mobile-app\MobileApp/'
	.sourcefile 'C:\Users\gdr\Documents\source\mobile-app\MobileApp\TrackingTab.cpp'
	.stabs	"gcc2_compiled.",60,0,0,0
	.stabs	"__vtbl_ptr_type:t(0,1)=*(0,2)=f(0,3)=r(0,3);-2147483648;2147483647;",128,0,0,0
	.stabs	"bool:t(0,4)=@s8;-16;",128,0,0,0
	.stabs	"wchar_t:t(0,5)=@s16;r(0,5);0;65535;",128,0,0,0
	.stabs	"void:t(0,6)=(0,6)",128,0,0,0
	.stabs	"long double:t(0,7)=r(0,3);8;0;",128,0,0,0
	.stabs	"double:t(0,8)=r(0,3);8;0;",128,0,0,0
	.stabs	"float:t(0,9)=r(0,3);4;0;",128,0,0,0
	.stabs	"unsigned char:t(0,10)=@s8;r(0,10);0;255;",128,0,0,0
	.stabs	"signed char:t(0,11)=@s8;r(0,11);-128;127;",128,0,0,0
	.stabs	"short unsigned int:t(0,12)=@s16;r(0,12);0;65535;",128,0,0,0
	.stabs	"short int:t(0,13)=@s16;r(0,13);-32768;32767;",128,0,0,0
	.stabs	"long long unsigned int:t(0,14)=@s64;r(0,14);0000000000000;01777777777777777777777;",128,0,0,0
	.stabs	"long long int:t(0,15)=@s64;r(0,15);01000000000000000000000;0777777777777777777777;",128,0,0,0
	.stabs	"long unsigned int:t(0,16)=r(0,16);0000000000000;0037777777777;",128,0,0,0
	.stabs	"unsigned int:t(0,17)=r(0,17);0000000000000;0037777777777;",128,0,0,0
	.stabs	"long int:t(0,18)=r(0,18);-2147483648;2147483647;",128,0,0,0
	.stabs	"int:t(0,3)",128,0,0,0
	.stabs	"char:t(0,19)=r(0,19);0;127;",128,0,0,0
	.stabs	"__builtin_va_list:t(0,20)=*(0,6)",128,0,0,0
	.stabs	"complex long double:t(0,21)=R3;16;0;",128,0,0,0
	.stabs	"complex double:t(0,22)=R3;16;0;",128,0,0,0
	.stabs	"complex float:t(0,23)=R3;8;0;",128,0,0,0
	.stabs	"complex int:t(0,24)=s8real:(0,3),0,32;imag:(0,3),32,32;;",128,0,0,0
	.stabs	"C:\\Users\\gdr\\Documents\\source\\mobile-app\\MobileApp\\/TrackingTab.h",130,0,0,0
	.stabs	"c:/MoSync/include/ma.h",130,0,0,0
	.stabs	"c:/MoSync/include/maapi.h",130,0,0,0
	.stabs	"c:/MoSync/include/maapi_defs.h",130,0,0,0
	.stabs	"MA_DV:Tt(4,1)=u8:(4,2)=s8hi:(0,3),0,32;lo:(0,3),32,32;;,0,64;ll:(0,15),0,64;d:(0,8),0,64;operator=::(4,3)=#(4,1),(4,4)=&(4,1),(4,5)=*(4,1),(4,6)=&(4,7)=k(4,1),(0,6);:_ZN5MA_DVaSERKS_;2A.;__base_ctor::(4,8)=#(4,1),(0,6),(4,5),(4,6),(0,6);:_ZN5MA_DVC2ERKS_;2A.;__comp_ctor::(4,8):_ZN5MA_DVC1ERKS_;2A.;__base_ctor::(4,9)=#(4,1),(0,6),(4,5),(0,6);:_ZN5MA_DVC2Ev;2A.;__comp_ctor::(4,9):_ZN5MA_DVC1Ev;2A.;;",128,0,60,0
	.stabs	"MA_DV:t(4,10)=(4,1)",128,0,75,0
	.stabs	"MA_FV:Tt(4,11)=u4f:(0,9),0,32;i:(0,3),0,32;operator=::(4,12)=#(4,11),(4,13)=&(4,11),(4,14)=*(4,11),(4,15)=&(4,16)=k(4,11),(0,6);:_ZN5MA_FVaSERKS_;2A.;__base_ctor::(4,17)=#(4,11),(0,6),(4,14),(4,15),(0,6);:_ZN5MA_FVC2ERKS_;2A.;__comp_ctor::(4,17):_ZN5MA_FVC1ERKS_;2A.;__base_ctor::(4,18)=#(4,11),(0,6),(4,14),(0,6);:_ZN5MA_FVC2Ev;2A.;__comp_ctor::(4,18):_ZN5MA_FVC1Ev;2A.;;",128,0,78,0
	.stabs	"MA_FV:t(4,19)=(4,11)",128,0,81,0
	.stabn	162,0,0,0
	.stabs	"wchar:t(3,1)=(0,5)",128,0,653,0
	.stabs	"ushort:t(3,2)=(0,12)",128,0,665,0
	.stabs	"uint:t(3,3)=(0,17)",128,0,666,0
	.stabs	"MAString:t(3,4)=(3,5)=*(0,19)",128,0,669,0
	.stabs	"MAWString:t(3,6)=(3,7)=*(3,1)",128,0,670,0
	.stabs	"MAAddress:t(3,8)=(3,9)=*(0,6)",128,0,671,0
	.stabs	"MAHandle:t(3,10)=(0,3)",128,0,672,0
	.stabs	"MAExtent:t(3,11)=(0,3)",128,0,673,0
	.stabs	"byte:t(3,12)=(0,10)",128,0,674,0
	.stabs	"ulong:t(3,13)=(0,16)",128,0,675,0
	.stabs	"longlong:t(3,14)=(0,15)",128,0,676,0
	.stabs	"MAExtensionModule:t(3,15)=(0,3)",128,0,677,0
	.stabs	"MAExtensionFunction:t(3,16)=(0,3)",128,0,678,0
	.stabs	"MAAudioData:t(3,17)=(0,3)",128,0,680,0
	.stabs	"MAAudioInstance:t(3,18)=(0,3)",128,0,682,0
	.stabs	"MAPoint2d:Tt(3,19)=s8x:(0,3),0,32;y:(0,3),32,32;operator=::(3,20)=#(3,19),(3,21)=&(3,19),(3,22)=*(3,19),(3,23)=&(3,24)=k(3,19),(0,6);:_ZN9MAPoint2daSERKS_;2A.;__base_ctor::(3,25)=#(3,19),(0,6),(3,22),(3,23),(0,6);:_ZN9MAPoint2dC2ERKS_;2A.;__comp_ctor::(3,25):_ZN9MAPoint2dC1ERKS_;2A.;__base_ctor::(3,26)=#(3,19),(0,6),(3,22),(0,6);:_ZN9MAPoint2dC2Ev;2A.;__comp_ctor::(3,26):_ZN9MAPoint2dC1Ev;2A.;;",128,0,3495,0
	.stabs	"MAPoint2d:t(3,27)=(3,19)",128,0,3498,0
	.stabs	"MARect:Tt(3,28)=s16left:(0,3),0,32;top:(0,3),32,32;width:(0,3),64,32;height:(0,3),96,32;operator=::(3,29)=#(3,28),(3,30)=&(3,28),(3,31)=*(3,28),(3,32)=&(3,33)=k(3,28),(0,6);:_ZN6MARectaSERKS_;2A.;__base_ctor::(3,34)=#(3,28),(0,6),(3,31),(3,32),(0,6);:_ZN6MARectC2ERKS_;2A.;__comp_ctor::(3,34):_ZN6MARectC1ERKS_;2A.;__base_ctor::(3,35)=#(3,28),(0,6),(3,31),(0,6);:_ZN6MARectC2Ev;2A.;__comp_ctor::(3,35):_ZN6MARectC1Ev;2A.;;",128,0,3517,0
	.stabs	"MARect:t(3,36)=(3,28)",128,0,3522,0
	.stabs	"MACopyData:Tt(3,37)=s20dst:(3,10),0,32;dstOffset:(0,3),32,32;src:(3,10),64,32;srcOffset:(0,3),96,32;size:(0,3),128,32;operator=::(3,38)=#(3,37),(3,39)=&(3,37),(3,40)=*(3,37),(3,41)=&(3,42)=k(3,37),(0,6);:_ZN10MACopyDataaSERKS_;2A.;__base_ctor::(3,43)=#(3,37),(0,6),(3,40),(3,41),(0,6);:_ZN10MACopyDataC2ERKS_;2A.;__comp_ctor::(3,43):_ZN10MACopyDataC1ERKS_;2A.;__base_ctor::(3,44)=#(3,37),(0,6),(3,40),(0,6);:_ZN10MACopyDataC2Ev;2A.;__comp_ctor::(3,44):_ZN10MACopyDataC1Ev;2A.;;",128,0,3538,0
	.stabs	"MACopyData:t(3,45)=(3,37)",128,0,3544,0
	.stabs	"MAConnAddrInet4:Tt(3,46)=s8addr:(0,3),0,32;port:(0,3),32,32;operator=::(3,47)=#(3,46),(3,48)=&(3,46),(3,49)=*(3,46),(3,50)=&(3,51)=k(3,46),(0,6);:_ZN15MAConnAddrInet4aSERKS_;2A.;__base_ctor::(3,52)=#(3,46),(0,6),(3,49),(3,50),(0,6);:_ZN15MAConnAddrInet4C2ERKS_;2A.;__comp_ctor::(3,52):_ZN15MAConnAddrInet4C1ERKS_;2A.;__base_ctor::(3,53)=#(3,46),(0,6),(3,49),(0,6);:_ZN15MAConnAddrInet4C2Ev;2A.;__comp_ctor::(3,53):_ZN15MAConnAddrInet4C1Ev;2A.;;",128,0,3560,0
	.stabs	"MAConnAddrInet4:t(3,54)=(3,46)",128,0,3563,0
	.stabs	"MABtAddr:Tt(3,55)=s8a:(3,56)=ar(3,57)=r(3,57);0000000000000;0037777777777;;0;5;(3,12),0,48;operator=::(3,58)=#(3,55),(3,59)=&(3,55),(3,60)=*(3,55),(3,61)=&(3,62)=k(3,55),(0,6);:_ZN8MABtAddraSERKS_;2A.;__base_ctor::(3,63)=#(3,55),(0,6),(3,60),(3,61),(0,6);:_ZN8MABtAddrC2ERKS_;2A.;__comp_ctor::(3,63):_ZN8MABtAddrC1ERKS_;2A.;__base_ctor::(3,64)=#(3,55),(0,6),(3,60),(0,6);:_ZN8MABtAddrC2Ev;2A.;__comp_ctor::(3,64):_ZN8MABtAddrC1Ev;2A.;;",128,0,3579,0
	.stabs	"MABtAddr:t(3,65)=(3,55)",128,0,3581,0
	.stabs	"MAConnAddrBt:Tt(3,66)=s12port:(0,3),0,32;addr:(3,65),32,64;operator=::(3,67)=#(3,66),(3,68)=&(3,66),(3,69)=*(3,66),(3,70)=&(3,71)=k(3,66),(0,6);:_ZN12MAConnAddrBtaSERKS_;2A.;__base_ctor::(3,72)=#(3,66),(0,6),(3,69),(3,70),(0,6);:_ZN12MAConnAddrBtC2ERKS_;2A.;__comp_ctor::(3,72):_ZN12MAConnAddrBtC1ERKS_;2A.;__base_ctor::(3,73)=#(3,66),(0,6),(3,69),(0,6);:_ZN12MAConnAddrBtC2Ev;2A.;__comp_ctor::(3,73):_ZN12MAConnAddrBtC1Ev;2A.;;",128,0,3597,0
	.stabs	"MAConnAddrBt:t(3,74)=(3,66)",128,0,3600,0
	.stabs	"MAConnAddr:Tt(3,75)=s16family:(0,3),0,32;:(3,76)=u12inet4:(3,54),0,64;bt:(3,74),0,96;;,32,96;operator=::(3,77)=#(3,75),(3,78)=&(3,75),(3,79)=*(3,75),(3,80)=&(3,81)=k(3,75),(0,6);:_ZN10MAConnAddraSERKS_;2A.;__base_ctor::(3,82)=#(3,75),(0,6),(3,79),(3,80),(0,6);:_ZN10MAConnAddrC2ERKS_;2A.;__comp_ctor::(3,82):_ZN10MAConnAddrC1ERKS_;2A.;__base_ctor::(3,83)=#(3,75),(0,6),(3,79),(0,6);:_ZN10MAConnAddrC2Ev;2A.;__comp_ctor::(3,83):_ZN10MAConnAddrC1Ev;2A.;;",128,0,3616,0
	.stabs	"MAConnAddr:t(3,84)=(3,75)",128,0,3625,0
	.stabs	"MAConnEventData:Tt(3,85)=s12handle:(3,10),0,32;opType:(0,3),32,32;result:(0,3),64,32;operator=::(3,86)=#(3,85),(3,87)=&(3,85),(3,88)=*(3,85),(3,89)=&(3,90)=k(3,85),(0,6);:_ZN15MAConnEventDataaSERKS_;2A.;__base_ctor::(3,91)=#(3,85),(0,6),(3,88),(3,89),(0,6);:_ZN15MAConnEventDataC2ERKS_;2A.;__comp_ctor::(3,91):_ZN15MAConnEventDataC1ERKS_;2A.;__base_ctor::(3,92)=#(3,85),(0,6),(3,88),(0,6);:_ZN15MAConnEventDataC2Ev;2A.;__comp_ctor::(3,92):_ZN15MAConnEventDataC1Ev;2A.;;",128,0,3641,0
	.stabs	"MAConnEventData:t(3,93)=(3,85)",128,0,3650,0
	.stabs	"MASensor:Tt(3,94)=s16type:(0,3),0,32;values:(3,95)=ar(3,57);0;2;(0,9),32,96;operator=::(3,96)=#(3,94),(3,97)=&(3,94),(3,98)=*(3,94),(3,99)=&(3,100)=k(3,94),(0,6);:_ZN8MASensoraSERKS_;2A.;__base_ctor::(3,101)=#(3,94),(0,6),(3,98),(3,99),(0,6);:_ZN8MASensorC2ERKS_;2A.;__comp_ctor::(3,101):_ZN8MASensorC1ERKS_;2A.;__base_ctor::(3,102)=#(3,94),(0,6),(3,98),(0,6);:_ZN8MASensorC2Ev;2A.;__comp_ctor::(3,102):_ZN8MASensorC1Ev;2A.;;",128,0,3666,0
	.stabs	"MASensor:t(3,103)=(3,94)",128,0,3669,0
	.stabs	"MANFCEventData:Tt(3,104)=s12handle:(3,10),0,32;result:(0,3),32,32;dstId:(0,3),64,32;operator=::(3,105)=#(3,104),(3,106)=&(3,104),(3,107)=*(3,104),(3,108)=&(3,109)=k(3,104),(0,6);:_ZN14MANFCEventDataaSERKS_;2A.;__base_ctor::(3,110)=#(3,104),(0,6),(3,107),(3,108),(0,6);:_ZN14MANFCEventDataC2ERKS_;2A.;__comp_ctor::(3,110):_ZN14MANFCEventDataC1ERKS_;2A.;__base_ctor::(3,111)=#(3,104),(0,6),(3,107),(0,6);:_ZN14MANFCEventDataC2Ev;2A.;__comp_ctor::(3,111):_ZN14MANFCEventDataC1Ev;2A.;;",128,0,3685,0
	.stabs	"MANFCEventData:t(3,112)=(3,104)",128,0,3696,0
	.stabs	"MAAdsEventData:Tt(3,113)=s12bannerHandle:(3,10),0,32;bannerEventType:(0,3),32,32;bannerErrorCode:(0,3),64,32;operator=::(3,114)=#(3,113),(3,115)=&(3,113),(3,116)=*(3,113),(3,117)=&(3,118)=k(3,113),(0,6);:_ZN14MAAdsEventDataaSERKS_;2A.;__base_ctor::(3,119)=#(3,113),(0,6),(3,116),(3,117),(0,6);:_ZN14MAAdsEventDataC2ERKS_;2A.;__comp_ctor::(3,119):_ZN14MAAdsEventDataC1ERKS_;2A.;__base_ctor::(3,120)=#(3,113),(0,6),(3,116),(0,6);:_ZN14MAAdsEventDataC2Ev;2A.;__comp_ctor::(3,120):_ZN14MAAdsEventDataC1Ev;2A.;;",128,0,3712,0
	.stabs	"MAAdsEventData:t(3,121)=(3,113)",128,0,3723,0
	.stabs	"MACaptureEventData:Tt(3,122)=s8type:(0,3),0,32;handle:(3,10),32,32;operator=::(3,123)=#(3,122),(3,124)=&(3,122),(3,125)=*(3,122),(3,126)=&(3,127)=k(3,122),(0,6);:_ZN18MACaptureEventDataaSERKS_;2A.;__base_ctor::(3,128)=#(3,122),(0,6),(3,125),(3,126),(0,6);:_ZN18MACaptureEventDataC2ERKS_;2A.;__comp_ctor::(3,128):_ZN18MACaptureEventDataC1ERKS_;2A.;__base_ctor::(3,129)=#(3,122),(0,6),(3,125),(0,6);:_ZN18MACaptureEventDataC2Ev;2A.;__comp_ctor::(3,129):_ZN18MACaptureEventDataC1Ev;2A.;;",128,0,3739,0
	.stabs	"MACaptureEventData:t(3,130)=(3,122)",128,0,3746,0
	.stabs	"MAPurchaseEventData:Tt(3,131)=s16type:(0,3),0,32;state:(0,3),32,32;productHandle:(3,10),64,32;errorCode:(0,3),96,32;operator=::(3,132)=#(3,131),(3,133)=&(3,131),(3,134)=*(3,131),(3,135)=&(3,136)=k(3,131),(0,6);:_ZN19MAPurchaseEventDataaSERKS_;2A.;__base_ctor::(3,137)=#(3,131),(0,6),(3,134),(3,135),(0,6);:_ZN19MAPurchaseEventDataC2ERKS_;2A.;__comp_ctor::(3,137):_ZN19MAPurchaseEventDataC1ERKS_;2A.;__base_ctor::(3,138)=#(3,131),(0,6),(3,134),(0,6);:_ZN19MAPurchaseEventDataC2Ev;2A.;__comp_ctor::(3,138):_ZN19MAPurchaseEventDataC1Ev;2A.;;",128,0,3764,0
	.stabs	"MAPurchaseEventData:t(3,139)=(3,131)",128,0,3789,0
	.stabs	"MAEvent:Tt(3,140)=s20type:(0,3),0,32;:(3,141)=u16:(3,142)=s8key:(0,3),0,32;nativeKey:(0,3),32,32;;,0,64;character:(3,3),0,32;:(3,143)=s12point:(3,27),0,64;touchId:(0,3),64,32;;,0,96;state:(0,3),0,32;conn:(3,93),0,96;:(3,144)=s8textboxResult:(0,3),0,32;textboxLength:(0,3),32,32;;,0,64;:(3,145)=s12imagePickerState:(0,3),0,32;imagePickerItem:(3,10),32,32;imagePickerEncodingType:(0,3),64,32;;,0,96;optionsBoxButtonIndex:(0,3),0,32;alertButtonIndex:(0,3),0,32;status:(0,3),0,32;sensor:(3,103),0,128;nfc:(3,112),0,96;adsData:(3,121),0,96;localNotificationHandle:(3,10),0,32;pushNotificationHandle:(3,10),0,32;captureData:(3,130),0,64;data:(3,9),0,32;audioInstance:(3,18),0,32;purchaseData:(3,139),0,128;;,32,128;operator=::(3,146)=#(3,140),(3,147)=&(3,140),(3,148)=*(3,140),(3,149)=&(3,150)=k(3,140),(0,6);:_ZN7MAEventaSERKS_;2A.;__base_ctor::(3,151)=#(3,140),(0,6),(3,148),(3,149),(0,6);:_ZN7MAEventC2ERKS_;2A.;__comp_ctor::(3,151):_ZN7MAEventC1ERKS_;2A.;__base_ctor::(3,152)=#(3,140),(0,6),(3,148),(0,6);:_ZN7MAEventC2Ev;2A.;__comp_ctor::(3,152):_ZN7MAEventC1Ev;2A.;;",128,0,3805,0
	.stabs	"MAEvent:t(3,153)=(3,140)",128,0,3959,0
	.stabs	"MAPanicReport:Tt(3,154)=s24runtimeId:(0,3),0,32;reportType:(0,3),32,32;time:(0,3),64,32;ip:(0,3),96,32;code:(0,3),128,32;string:(3,155)=ar(3,57);0;0;(0,19),160,8;operator=::(3,156)=#(3,154),(3,157)=&(3,154),(3,158)=*(3,154),(3,159)=&(3,160)=k(3,154),(0,6);:_ZN13MAPanicReportaSERKS_;2A.;__base_ctor::(3,161)=#(3,154),(0,6),(3,158),(3,159),(0,6);:_ZN13MAPanicReportC2ERKS_;2A.;__comp_ctor::(3,161):_ZN13MAPanicReportC1ERKS_;2A.;__base_ctor::(3,162)=#(3,154),(0,6),(3,158),(0,6);:_ZN13MAPanicReportC2Ev;2A.;__comp_ctor::(3,162):_ZN13MAPanicReportC1Ev;2A.;;",128,0,3991,0
	.stabs	"MAPanicReport:t(3,163)=(3,154)",128,0,4013,0
	.stabs	"MABtDevice:Tt(3,164)=s20name:(3,5),0,32;nameBufSize:(0,3),32,32;actualNameLength:(0,3),64,32;address:(3,65),96,64;operator=::(3,165)=#(3,164),(3,166)=&(3,164),(3,167)=*(3,164),(3,168)=&(3,169)=k(3,164),(0,6);:_ZN10MABtDeviceaSERKS_;2A.;__base_ctor::(3,170)=#(3,164),(0,6),(3,167),(3,168),(0,6);:_ZN10MABtDeviceC2ERKS_;2A.;__comp_ctor::(3,170):_ZN10MABtDeviceC1ERKS_;2A.;__base_ctor::(3,171)=#(3,164),(0,6),(3,167),(0,6);:_ZN10MABtDeviceC2Ev;2A.;__comp_ctor::(3,171):_ZN10MABtDeviceC1Ev;2A.;;",128,0,4029,0
	.stabs	"MABtDevice:t(3,172)=(3,164)",128,0,4041,0
	.stabs	"MAUUID:Tt(3,173)=s16i:(3,174)=ar(3,57);0;3;(0,3),0,128;operator=::(3,175)=#(3,173),(3,176)=&(3,173),(3,177)=*(3,173),(3,178)=&(3,179)=k(3,173),(0,6);:_ZN6MAUUIDaSERKS_;2A.;__base_ctor::(3,180)=#(3,173),(0,6),(3,177),(3,178),(0,6);:_ZN6MAUUIDC2ERKS_;2A.;__comp_ctor::(3,180):_ZN6MAUUIDC1ERKS_;2A.;__base_ctor::(3,181)=#(3,173),(0,6),(3,177),(0,6);:_ZN6MAUUIDC2Ev;2A.;__comp_ctor::(3,181):_ZN6MAUUIDC1Ev;2A.;;",128,0,4059,0
	.stabs	"MAUUID:t(3,182)=(3,173)",128,0,4061,0
	.stabs	"MABtServiceSize:Tt(3,183)=s8nameBufSize:(0,3),0,32;nUuids:(0,3),32,32;operator=::(3,184)=#(3,183),(3,185)=&(3,183),(3,186)=*(3,183),(3,187)=&(3,188)=k(3,183),(0,6);:_ZN15MABtServiceSizeaSERKS_;2A.;__base_ctor::(3,189)=#(3,183),(0,6),(3,186),(3,187),(0,6);:_ZN15MABtServiceSizeC2ERKS_;2A.;__comp_ctor::(3,189):_ZN15MABtServiceSizeC1ERKS_;2A.;__base_ctor::(3,190)=#(3,183),(0,6),(3,186),(0,6);:_ZN15MABtServiceSizeC2Ev;2A.;__comp_ctor::(3,190):_ZN15MABtServiceSizeC1Ev;2A.;;",128,0,4077,0
	.stabs	"MABtServiceSize:t(3,191)=(3,183)",128,0,4088,0
	.stabs	"MABtService:Tt(3,192)=s16port:(0,3),0,32;name:(3,5),32,32;nameBufSize:(0,3),64,32;uuids:(3,193)=*(3,182),96,32;operator=::(3,194)=#(3,192),(3,195)=&(3,192),(3,196)=*(3,192),(3,197)=&(3,198)=k(3,192),(0,6);:_ZN11MABtServiceaSERKS_;2A.;__base_ctor::(3,199)=#(3,192),(0,6),(3,196),(3,197),(0,6);:_ZN11MABtServiceC2ERKS_;2A.;__comp_ctor::(3,199):_ZN11MABtServiceC1ERKS_;2A.;__base_ctor::(3,200)=#(3,192),(0,6),(3,196),(0,6);:_ZN11MABtServiceC2Ev;2A.;__comp_ctor::(3,200):_ZN11MABtServiceC1Ev;2A.;;",128,0,4104,0
	.stabs	"MABtService:t(3,201)=(3,192)",128,0,4127,0
	.stabs	"MALocation:Tt(3,202)=s40state:(0,3),0,32;lat:(0,8),32,64;lon:(0,8),96,64;horzAcc:(0,8),160,64;vertAcc:(0,8),224,64;alt:(0,9),288,32;operator=::(3,203)=#(3,202),(3,204)=&(3,202),(3,205)=*(3,202),(3,206)=&(3,207)=k(3,202),(0,6);:_ZN10MALocationaSERKS_;2A.;__base_ctor::(3,208)=#(3,202),(0,6),(3,205),(3,206),(0,6);:_ZN10MALocationC2ERKS_;2A.;__comp_ctor::(3,208):_ZN10MALocationC1ERKS_;2A.;__base_ctor::(3,209)=#(3,202),(0,6),(3,205),(0,6);:_ZN10MALocationC2Ev;2A.;__comp_ctor::(3,209):_ZN10MALocationC1Ev;2A.;;",128,0,4158,0
	.stabs	"MALocation:t(3,210)=(3,202)",128,0,4174,0
	.stabs	"MAFrameBufferInfo:Tt(3,211)=s64sizeInBytes:(0,3),0,32;bytesPerPixel:(0,3),32,32;bitsPerPixel:(0,3),64,32;redMask:(0,3),96,32;redShift:(0,3),128,32;redBits:(0,3),160,32;greenMask:(0,3),192,32;greenShift:(0,3),224,32;greenBits:(0,3),256,32;blueMask:(0,3),288,32;blueShift:(0,3),320,32;blueBits:(0,3),352,32;width:(0,3),384,32;height:(0,3),416,32;pitch:(0,3),448,32;supportsGfxSyscalls:(0,3),480,32;operator=::(3,212)=#(3,211),(3,213)=&(3,211),(3,214)=*(3,211),(3,215)=&(3,216)=k(3,211),(0,6);:_ZN17MAFrameBufferInfoaSERKS_;2A.;__base_ctor::(3,217)=#(3,211),(0,6),(3,214),(3,215),(0,6);:_ZN17MAFrameBufferInfoC2ERKS_;2A.;__comp_ctor::(3,217):_ZN17MAFrameBufferInfoC1ERKS_;2A.;__base_ctor::(3,218)=#(3,211),(0,6),(3,214),(0,6);:_ZN17MAFrameBufferInfoC2Ev;2A.;__comp_ctor::(3,218):_ZN17MAFrameBufferInfoC1Ev;2A.;;",128,0,4192,0
	.stabs	"MAFrameBufferInfo:t(3,219)=(3,211)",128,0,4209,0
	.stabs	"MA_CAMERA_FORMAT:Tt(3,220)=s8width:(0,3),0,32;height:(0,3),32,32;operator=::(3,221)=#(3,220),(3,222)=&(3,220),(3,223)=*(3,220),(3,224)=&(3,225)=k(3,220),(0,6);:_ZN16MA_CAMERA_FORMATaSERKS_;2A.;__base_ctor::(3,226)=#(3,220),(0,6),(3,223),(3,224),(0,6);:_ZN16MA_CAMERA_FORMATC2ERKS_;2A.;__comp_ctor::(3,226):_ZN16MA_CAMERA_FORMATC1ERKS_;2A.;__base_ctor::(3,227)=#(3,220),(0,6),(3,223),(0,6);:_ZN16MA_CAMERA_FORMATC2Ev;2A.;__comp_ctor::(3,227):_ZN16MA_CAMERA_FORMATC1Ev;2A.;;",128,0,4226,0
	.stabs	"MA_CAMERA_FORMAT:t(3,228)=(3,220)",128,0,4229,0
	.stabs	"MADBBlob:Tt(3,229)=s8data:(3,8),0,32;size:(0,3),32,32;operator=::(3,230)=#(3,229),(3,231)=&(3,229),(3,232)=*(3,229),(3,233)=&(3,234)=k(3,229),(0,6);:_ZN8MADBBlobaSERKS_;2A.;__base_ctor::(3,235)=#(3,229),(0,6),(3,232),(3,233),(0,6);:_ZN8MADBBlobC2ERKS_;2A.;__comp_ctor::(3,235):_ZN8MADBBlobC1ERKS_;2A.;__base_ctor::(3,236)=#(3,229),(0,6),(3,232),(0,6);:_ZN8MADBBlobC2Ev;2A.;__comp_ctor::(3,236):_ZN8MADBBlobC1Ev;2A.;;",128,0,4243,0
	.stabs	"MADBBlob:t(3,237)=(3,229)",128,0,4246,0
	.stabs	"MADBText:Tt(3,238)=s8addr:(3,4),0,32;length:(0,3),32,32;operator=::(3,239)=#(3,238),(3,240)=&(3,238),(3,241)=*(3,238),(3,242)=&(3,243)=k(3,238),(0,6);:_ZN8MADBTextaSERKS_;2A.;__base_ctor::(3,244)=#(3,238),(0,6),(3,241),(3,242),(0,6);:_ZN8MADBTextC2ERKS_;2A.;__comp_ctor::(3,244):_ZN8MADBTextC1ERKS_;2A.;__base_ctor::(3,245)=#(3,238),(0,6),(3,241),(0,6);:_ZN8MADBTextC2Ev;2A.;__comp_ctor::(3,245):_ZN8MADBTextC1Ev;2A.;;",128,0,4260,0
	.stabs	"MADBText:t(3,246)=(3,238)",128,0,4265,0
	.stabs	"MADBValue:Tt(3,247)=s12:(3,248)=u8i:(0,3),0,32;d:(0,8),0,64;blob:(3,237),0,64;dataHandle:(3,10),0,32;text:(3,246),0,64;i64:(3,14),0,64;;,0,64;type:(0,3),64,32;operator=::(3,249)=#(3,247),(3,250)=&(3,247),(3,251)=*(3,247),(3,252)=&(3,253)=k(3,247),(0,6);:_ZN9MADBValueaSERKS_;2A.;__base_ctor::(3,254)=#(3,247),(0,6),(3,251),(3,252),(0,6);:_ZN9MADBValueC2ERKS_;2A.;__comp_ctor::(3,254):_ZN9MADBValueC1ERKS_;2A.;__base_ctor::(3,255)=#(3,247),(0,6),(3,251),(0,6);:_ZN9MADBValueC2Ev;2A.;__comp_ctor::(3,255):_ZN9MADBValueC1Ev;2A.;;",128,0,4280,0
	.stabs	"MADBValue:t(3,256)=(3,247)",128,0,4291,0
	.stabs	"MAPushNotificationData:Tt(3,257)=s24type:(0,3),0,32;alertMessage:(3,4),32,32;alertMessageSize:(0,3),64,32;soundFileName:(3,4),96,32;soundFileNameSize:(0,3),128,32;badgeIcon:(0,3),160,32;operator=::(3,258)=#(3,257),(3,259)=&(3,257),(3,260)=*(3,257),(3,261)=&(3,262)=k(3,257),(0,6);:_ZN22MAPushNotificationDataaSERKS_;2A.;__base_ctor::(3,263)=#(3,257),(0,6),(3,260),(3,261),(0,6);:_ZN22MAPushNotificationDataC2ERKS_;2A.;__comp_ctor::(3,263):_ZN22MAPushNotificationDataC1ERKS_;2A.;__base_ctor::(3,264)=#(3,257),(0,6),(3,260),(0,6);:_ZN22MAPushNotificationDataC2Ev;2A.;__comp_ctor::(3,264):_ZN22MAPushNotificationDataC1Ev;2A.;;",128,0,4308,0
	.stabs	"MAPushNotificationData:t(3,265)=(3,257)",128,0,4337,0
	.stabn	162,0,0,0
	.stabs	"size_t:t(2,1)=(0,16)",128,0,32,0
	.stabn	162,0,0,0
	.stabs	"c:/MoSync/include/MAUtil/String.h",130,0,0,0
	.stabs	"c:/MoSync/include/MAUtil/RefCounted.h",130,0,0,0
	.stabn	162,0,0,0
	.stabs	"String:t(5,1)=(5,2)=xsBasicString<char>:",128,0,279,0
	.stabs	"WString:t(5,3)=(5,4)=xsBasicString<wchar_t>:",128,0,280,0
	.stabn	162,0,0,0
	.stabs	"c:/MoSync/include/MAUtil/Moblet.h",130,0,0,0
	.stabs	"c:/MoSync/include/MAUtil/Environment.h",130,0,0,0
	.stabs	"Environment::TimerEventInstance:Tt(8,1)=s20e:(8,2)=*(8,3)=xsTimerListener:,0,32;addTime:(0,3),32,32;period:(0,3),64,32;numTimes:(0,3),96,32;nextInvoke:(0,3),128,32;__base_ctor::(8,4)=#(8,1),(0,6),(8,5)=*(8,1),(8,2),(0,3),(0,3),(0,6);:_ZN6MAUtil11Environment18TimerEventInstanceC2EPNS_13TimerListenerEii;2A.;__comp_ctor::(8,4):_ZN6MAUtil11Environment18TimerEventInstanceC1EPNS_13TimerListenerEii;2A.;operator=::(8,6)=#(8,1),(8,7)=&(8,1),(8,5),(8,8)=&(8,9)=k(8,1),(0,6);:_ZN6MAUtil11Environment18TimerEventInstanceaSERKS1_;2A.;__base_ctor::(8,10)=#(8,1),(0,6),(8,5),(8,8),(0,6);:_ZN6MAUtil11Environment18TimerEventInstanceC2ERKS1_;2A.;__comp_ctor::(8,10):_ZN6MAUtil11Environment18TimerEventInstanceC1ERKS1_;2A.;;",128,0,428,0
	.stabs	"Vector<MAUtil::ListenerSet<MAUtil::KeyListener>::Combo>:Tt(8,11)=s12mSize:/1(0,3),0,32;mCapacity:/1(0,3),32,32;mData:/1(8,12)=*(8,13)=xsCombo:,64,32;__base_ctor::(8,14)=#(8,11),(0,6),(8,15)=*(8,11),(0,3),(0,6);:_ZN6MAUtil6VectorINS_11ListenerSetINS_11KeyListenerEE5ComboEEC2Ei;2A.;__comp_ctor::(8,14):_ZN6MAUtil6VectorINS_11ListenerSetINS_11KeyListenerEE5ComboEEC1Ei;2A.;__base_ctor::(8,16)=#(8,11),(0,6),(8,15),(8,17)=*(8,18)=k(8,13),(0,3),(0,6);:_ZN6MAUtil6VectorINS_11ListenerSetINS_11KeyListenerEE5ComboEEC2EPKS4_i;2A.;__comp_ctor::(8,16):_ZN6MAUtil6VectorINS_11ListenerSetINS_11KeyListenerEE5ComboEEC1EPKS4_i;2A.;__base_ctor::(8,19)=#(8,11),(0,6),(8,15),(8,20)=&(8,21)=k(8,11),(0,6);:_ZN6MAUtil6VectorINS_11ListenerSetINS_11KeyListenerEE5ComboEEC2ERKS5_;2A.;__comp_ctor::(8,19):_ZN6MAUtil6VectorINS_11ListenerSetINS_11KeyListenerEE5ComboEEC1ERKS5_;2A.;__base_dtor::(8,22)=#(8,11),(0,6),(8,15),(0,6);:_ZN6MAUtil6VectorINS_11ListenerSetINS_11KeyListenerEE5ComboEED2Ev;2A.;__comp_dtor::(8,22):_ZN6MAUtil6VectorINS_11ListenerSetINS_11KeyListenerEE5ComboEED1Ev;2A.;operator=::(8,23)=#(8,11),(8,24)=&(8,11),(8,15),(8,20),(0,6);:_ZN6MAUtil6VectorINS_11ListenerSetINS_11KeyListenerEE5ComboEEaSERKS5_;2A.;add::(8,25)=#(8,11),(0,6),(8,15),(8,26)=&(8,18),(0,6);:_ZN6MAUtil6VectorINS_11ListenerSetINS_11KeyListenerEE5ComboEE3addERKS4_;2A.(8,16):_ZN6MAUtil6VectorINS_11ListenerSetINS_11KeyListenerEE5ComboEE3addEPKS4_i;2A.;remove::(8,27)=#(8,11),(0,6),(8,15),(8,12),(0,6);:_ZN6MAUtil6VectorINS_11ListenerSetINS_11KeyListenerEE5ComboEE6removeEPS4_;2A.(8,28)=#(8,11),(0,6),(8,15),(0,3),(0,6);:_ZN6MAUtil6VectorINS_11ListenerSetINS_11KeyListenerEE5ComboEE6removeEi;2A.(8,29)=#(8,11),(0,6),(8,15),(0,3),(0,3),(0,6);:_ZN6MAUtil6VectorINS_11ListenerSetINS_11KeyListenerEE5ComboEE6removeEii;2A.;insert::(8,30)=#(8,11),(0,6),(8,15),(0,3),(8,13),(0,6);:_ZN6MAUtil6VectorINS_11ListenerSetINS_11KeyListenerEE5ComboEE6insertEiS4_;2A.;size::(8,31)=#(8,11),(0,3),(8,32)=*(8,21),(0,6);:_ZNK6MAUtil6VectorINS_11ListenerSetINS_11KeyListenerEE5ComboEE4sizeEv;2B.;resize::(8,28):_ZN6MAUtil6VectorINS_11ListenerSetINS_11KeyListenerEE5ComboEE6resizeEi;2A.;reserve::(8,28):_ZN6MAUtil6VectorINS_11ListenerSetINS_11KeyListenerEE5ComboEE7reserveEi;2A.;clear::(8,22):_ZN6MAUtil6VectorINS_11ListenerSetINS_11KeyListenerEE5ComboEE5clearEv;2A.;empty::(8,33)=#(8,11),(0,4),(8,32),(0,6);:_ZNK6MAUtil6VectorINS_11ListenerSetINS_11KeyListenerEE5ComboEE5emptyEv;2B.;capacity::(8,31):_ZNK6MAUtil6VectorINS_11ListenerSetINS_11KeyListenerEE5ComboEE8capacityEv;2B.;begin::(8,34)=#(8,11),(8,12),(8,15),(0,6);:_ZN6MAUtil6VectorINS_11ListenerSetINS_11KeyListenerEE5ComboEE5beginEv;2A.;end::(8,34):_ZN6MAUtil6VectorINS_11ListenerSetINS_11KeyListenerEE5ComboEE3endEv;2A.;begin::(8,35)=#(8,11),(8,17),(8,32),(0,6);:_ZNK6MAUtil6VectorINS_11ListenerSetINS_11KeyListenerEE5ComboEE5beginEv;2B.;end::(8,35):_ZNK6MAUtil6VectorINS_11ListenerSetINS_11KeyListenerEE5ComboEE3endEv;2B.;operator[]::(8,36)=#(8,11),(8,37)=&(8,13),(8,15),(0,3),(0,6);:_ZN6MAUtil6VectorINS_11ListenerSetINS_11KeyListenerEE5ComboEEixEi;2A.(8,38)=#(8,11),(8,26),(8,32),(0,3),(0,6);:_ZNK6MAUtil6VectorINS_11ListenerSetINS_11KeyListenerEE5ComboEEixEi;2B.;pointer::(8,35):_ZNK6MAUtil6VectorINS_11ListenerSetINS_11KeyListenerEE5ComboEE7pointerEv;2B.(8,34):_ZN6MAUtil6VectorINS_11ListenerSetINS_11KeyListenerEE5ComboEE7pointerEv;2A.;;",128,0,95,0
	.stabs	"ListenerSet<MAUtil::KeyListener>:Tt(8,39)=s16mRunning:/0(0,4),0,8;mUpdateRequired:/0(0,4),8,8;mShouldDelete:/0(0,4),16,8;mVec:/0(8,11),32,96;__base_ctor::(8,40)=#(8,39),(0,6),(8,41)=*(8,39),(0,4),(0,6);:_ZN6MAUtil11ListenerSetINS_11KeyListenerEEC2Eb;2A.;__comp_ctor::(8,40):_ZN6MAUtil11ListenerSetINS_11KeyListenerEEC1Eb;2A.;begin::(8,42)=#(8,39),(8,43)=xsiterator:,(8,41),(0,6);:_ZN6MAUtil11ListenerSetINS_11KeyListenerEE5beginEv;2A.;add::(8,44)=#(8,39),(0,6),(8,41),(8,45)=*(8,46)=xsKeyListener:,(0,6);:_ZN6MAUtil11ListenerSetINS_11KeyListenerEE3addEPS1_;2A.;remove::(8,44):_ZN6MAUtil11ListenerSetINS_11KeyListenerEE6removeEPS1_;2A.;contains::(8,47)=#(8,39),(0,4),(8,41),(8,45),(0,6);:_ZN6MAUtil11ListenerSetINS_11KeyListenerEE8containsEPS1_;2A.;setRunning::(8,48)=#(8,39),(0,6),(8,41),(0,4),(0,6);:_ZN6MAUtil11ListenerSetINS_11KeyListenerEE10setRunningEb;2A.;size::(8,49)=#(8,39),(0,3),(8,50)=*(8,51)=k(8,39),(0,6);:_ZNK6MAUtil11ListenerSetINS_11KeyListenerEE4sizeEv;2B.;operator=::(8,52)=#(8,39),(8,53)=&(8,39),(8,41),(8,54)=&(8,51),(0,6);:_ZN6MAUtil11ListenerSetINS_11KeyListenerEEaSERKS2_;2A.;__base_ctor::(8,55)=#(8,39),(0,6),(8,41),(8,54),(0,6);:_ZN6MAUtil11ListenerSetINS_11KeyListenerEEC2ERKS2_;2A.;__comp_ctor::(8,55):_ZN6MAUtil11ListenerSetINS_11KeyListenerEEC1ERKS2_;2A.;__base_dtor::(8,56)=#(8,39),(0,6),(8,41),(0,6);:_ZN6MAUtil11ListenerSetINS_11KeyListenerEED2Ev;2A.;__comp_dtor::(8,56):_ZN6MAUtil11ListenerSetINS_11KeyListenerEED1Ev;2A.;;",128,0,46,0
	.stabs	"Vector<MAUtil::ListenerSet<MAUtil::PointerListener>::Combo>:Tt(8,57)=s12mSize:/1(0,3),0,32;mCapacity:/1(0,3),32,32;mData:/1(8,58)=*(8,59)=xsCombo:,64,32;__base_ctor::(8,60)=#(8,57),(0,6),(8,61)=*(8,57),(0,3),(0,6);:_ZN6MAUtil6VectorINS_11ListenerSetINS_15PointerListenerEE5ComboEEC2Ei;2A.;__comp_ctor::(8,60):_ZN6MAUtil6VectorINS_11ListenerSetINS_15PointerListenerEE5ComboEEC1Ei;2A.;__base_ctor::(8,62)=#(8,57),(0,6),(8,61),(8,63)=*(8,64)=k(8,59),(0,3),(0,6);:_ZN6MAUtil6VectorINS_11ListenerSetINS_15PointerListenerEE5ComboEEC2EPKS4_i;2A.;__comp_ctor::(8,62):_ZN6MAUtil6VectorINS_11ListenerSetINS_15PointerListenerEE5ComboEEC1EPKS4_i;2A.;__base_ctor::(8,65)=#(8,57),(0,6),(8,61),(8,66)=&(8,67)=k(8,57),(0,6);:_ZN6MAUtil6VectorINS_11ListenerSetINS_15PointerListenerEE5ComboEEC2ERKS5_;2A.;__comp_ctor::(8,65):_ZN6MAUtil6VectorINS_11ListenerSetINS_15PointerListenerEE5ComboEEC1ERKS5_;2A.;__base_dtor::(8,68)=#(8,57),(0,6),(8,61),(0,6);:_ZN6MAUtil6VectorINS_11ListenerSetINS_15PointerListenerEE5ComboEED2Ev;2A.;__comp_dtor::(8,68):_ZN6MAUtil6VectorINS_11ListenerSetINS_15PointerListenerEE5ComboEED1Ev;2A.;operator=::(8,69)=#(8,57),(8,70)=&(8,57),(8,61),(8,66),(0,6);:_ZN6MAUtil6VectorINS_11ListenerSetINS_15PointerListenerEE5ComboEEaSERKS5_;2A.;add::(8,71)=#(8,57),(0,6),(8,61),(8,72)=&(8,64),(0,6);:_ZN6MAUtil6VectorINS_11ListenerSetINS_15PointerListenerEE5ComboEE3addERKS4_;2A.(8,62):_ZN6MAUtil6VectorINS_11ListenerSetINS_15PointerListenerEE5ComboEE3addEPKS4_i;2A.;remove::(8,73)=#(8,57),(0,6),(8,61),(8,58),(0,6);:_ZN6MAUtil6VectorINS_11ListenerSetINS_15PointerListenerEE5ComboEE6removeEPS4_;2A.(8,74)=#(8,57),(0,6),(8,61),(0,3),(0,6);:_ZN6MAUtil6VectorINS_11ListenerSetINS_15PointerListenerEE5ComboEE6removeEi;2A.(8,75)=#(8,57),(0,6),(8,61),(0,3),(0,3),(0,6);:_ZN6MAUtil6VectorINS_11ListenerSetINS_15PointerListenerEE5ComboEE6removeEii;2A.;insert::(8,76)=#(8,57),(0,6),(8,61),(0,3),(8,59),(0,6);:_ZN6MAUtil6VectorINS_11ListenerSetINS_15PointerListenerEE5ComboEE6insertEiS4_;2A.;size::(8,77)=#(8,57),(0,3),(8,78)=*(8,67),(0,6);:_ZNK6MAUtil6VectorINS_11ListenerSetINS_15PointerListenerEE5ComboEE4sizeEv;2B.;resize::(8,74):_ZN6MAUtil6VectorINS_11ListenerSetINS_15PointerListenerEE5ComboEE6resizeEi;2A.;reserve::(8,74):_ZN6MAUtil6VectorINS_11ListenerSetINS_15PointerListenerEE5ComboEE7reserveEi;2A.;clear::(8,68):_ZN6MAUtil6VectorINS_11ListenerSetINS_15PointerListenerEE5ComboEE5clearEv;2A.;empty::(8,79)=#(8,57),(0,4),(8,78),(0,6);:_ZNK6MAUtil6VectorINS_11ListenerSetINS_15PointerListenerEE5ComboEE5emptyEv;2B.;capacity::(8,77):_ZNK6MAUtil6VectorINS_11ListenerSetINS_15PointerListenerEE5ComboEE8capacityEv;2B.;begin::(8,80)=#(8,57),(8,58),(8,61),(0,6);:_ZN6MAUtil6VectorINS_11ListenerSetINS_15PointerListenerEE5ComboEE5beginEv;2A.;end::(8,80):_ZN6MAUtil6VectorINS_11ListenerSetINS_15PointerListenerEE5ComboEE3endEv;2A.;begin::(8,81)=#(8,57),(8,63),(8,78),(0,6);:_ZNK6MAUtil6VectorINS_11ListenerSetINS_15PointerListenerEE5ComboEE5beginEv;2B.;end::(8,81):_ZNK6MAUtil6VectorINS_11ListenerSetINS_15PointerListenerEE5ComboEE3endEv;2B.;operator[]::(8,82)=#(8,57),(8,83)=&(8,59),(8,61),(0,3),(0,6);:_ZN6MAUtil6VectorINS_11ListenerSetINS_15PointerListenerEE5ComboEEixEi;2A.(8,84)=#(8,57),(8,72),(8,78),(0,3),(0,6);:_ZNK6MAUtil6VectorINS_11ListenerSetINS_15PointerListenerEE5ComboEEixEi;2B.;pointer::(8,81):_ZNK6MAUtil6VectorINS_11ListenerSetINS_15PointerListenerEE5ComboEE7pointerEv;2B.(8,80):_ZN6MAUtil6VectorINS_11ListenerSetINS_15PointerListenerEE5ComboEE7pointerEv;2A.;;",128,0,95,0
	.stabs	"ListenerSet<MAUtil::PointerListener>:Tt(8,85)=s16mRunning:/0(0,4),0,8;mUpdateRequired:/0(0,4),8,8;mShouldDelete:/0(0,4),16,8;mVec:/0(8,57),32,96;__base_ctor::(8,86)=#(8,85),(0,6),(8,87)=*(8,85),(0,4),(0,6);:_ZN6MAUtil11ListenerSetINS_15PointerListenerEEC2Eb;2A.;__comp_ctor::(8,86):_ZN6MAUtil11ListenerSetINS_15PointerListenerEEC1Eb;2A.;begin::(8,88)=#(8,85),(8,89)=xsiterator:,(8,87),(0,6);:_ZN6MAUtil11ListenerSetINS_15PointerListenerEE5beginEv;2A.;add::(8,90)=#(8,85),(0,6),(8,87),(8,91)=*(8,92)=xsPointerListener:,(0,6);:_ZN6MAUtil11ListenerSetINS_15PointerListenerEE3addEPS1_;2A.;remove::(8,90):_ZN6MAUtil11ListenerSetINS_15PointerListenerEE6removeEPS1_;2A.;contains::(8,93)=#(8,85),(0,4),(8,87),(8,91),(0,6);:_ZN6MAUtil11ListenerSetINS_15PointerListenerEE8containsEPS1_;2A.;setRunning::(8,94)=#(8,85),(0,6),(8,87),(0,4),(0,6);:_ZN6MAUtil11ListenerSetINS_15PointerListenerEE10setRunningEb;2A.;size::(8,95)=#(8,85),(0,3),(8,96)=*(8,97)=k(8,85),(0,6);:_ZNK6MAUtil11ListenerSetINS_15PointerListenerEE4sizeEv;2B.;operator=::(8,98)=#(8,85),(8,99)=&(8,85),(8,87),(8,100)=&(8,97),(0,6);:_ZN6MAUtil11ListenerSetINS_15PointerListenerEEaSERKS2_;2A.;__base_ctor::(8,101)=#(8,85),(0,6),(8,87),(8,100),(0,6);:_ZN6MAUtil11ListenerSetINS_15PointerListenerEEC2ERKS2_;2A.;__comp_ctor::(8,101):_ZN6MAUtil11ListenerSetINS_15PointerListenerEEC1ERKS2_;2A.;__base_dtor::(8,102)=#(8,85),(0,6),(8,87),(0,6);:_ZN6MAUtil11ListenerSetINS_15PointerListenerEED2Ev;2A.;__comp_dtor::(8,102):_ZN6MAUtil11ListenerSetINS_15PointerListenerEED1Ev;2A.;;",128,0,46,0
	.stabs	"Vector<MAUtil::CloseListener*>:Tt(8,103)=s12mSize:/1(0,3),0,32;mCapacity:/1(0,3),32,32;mData:/1(8,104)=*(8,105)=*(8,106)=xsCloseListener:,64,32;__base_ctor::(8,107)=#(8,103),(0,6),(8,108)=*(8,103),(0,3),(0,6);:_ZN6MAUtil6VectorIPNS_13CloseListenerEEC2Ei;2A.;__comp_ctor::(8,107):_ZN6MAUtil6VectorIPNS_13CloseListenerEEC1Ei;2A.;__base_ctor::(8,109)=#(8,103),(0,6),(8,108),(8,110)=*(8,111)=k(8,105),(0,3),(0,6);:_ZN6MAUtil6VectorIPNS_13CloseListenerEEC2EPKS2_i;2A.;__comp_ctor::(8,109):_ZN6MAUtil6VectorIPNS_13CloseListenerEEC1EPKS2_i;2A.;__base_ctor::(8,112)=#(8,103),(0,6),(8,108),(8,113)=&(8,114)=k(8,103),(0,6);:_ZN6MAUtil6VectorIPNS_13CloseListenerEEC2ERKS3_;2A.;__comp_ctor::(8,112):_ZN6MAUtil6VectorIPNS_13CloseListenerEEC1ERKS3_;2A.;__base_dtor::(8,115)=#(8,103),(0,6),(8,108),(0,6);:_ZN6MAUtil6VectorIPNS_13CloseListenerEED2Ev;2A.;__comp_dtor::(8,115):_ZN6MAUtil6VectorIPNS_13CloseListenerEED1Ev;2A.;operator=::(8,116)=#(8,103),(8,117)=&(8,103),(8,108),(8,113),(0,6);:_ZN6MAUtil6VectorIPNS_13CloseListenerEEaSERKS3_;2A.;add::(8,118)=#(8,103),(0,6),(8,108),(8,119)=&(8,111),(0,6);:_ZN6MAUtil6VectorIPNS_13CloseListenerEE3addERKS2_;2A.(8,109):_ZN6MAUtil6VectorIPNS_13CloseListenerEE3addEPKS2_i;2A.;remove::(8,120)=#(8,103),(0,6),(8,108),(8,104),(0,6);:_ZN6MAUtil6VectorIPNS_13CloseListenerEE6removeEPS2_;2A.(8,121)=#(8,103),(0,6),(8,108),(0,3),(0,6);:_ZN6MAUtil6VectorIPNS_13CloseListenerEE6removeEi;2A.(8,122)=#(8,103),(0,6),(8,108),(0,3),(0,3),(0,6);:_ZN6MAUtil6VectorIPNS_13CloseListenerEE6removeEii;2A.;insert::(8,123)=#(8,103),(0,6),(8,108),(0,3),(8,105),(0,6);:_ZN6MAUtil6VectorIPNS_13CloseListenerEE6insertEiS2_;2A.;size::(8,124)=#(8,103),(0,3),(8,125)=*(8,114),(0,6);:_ZNK6MAUtil6VectorIPNS_13CloseListenerEE4sizeEv;2B.;resize::(8,121):_ZN6MAUtil6VectorIPNS_13CloseListenerEE6resizeEi;2A.;reserve::(8,121):_ZN6MAUtil6VectorIPNS_13CloseListenerEE7reserveEi;2A.;clear::(8,115):_ZN6MAUtil6VectorIPNS_13CloseListenerEE5clearEv;2A.;empty::(8,126)=#(8,103),(0,4),(8,125),(0,6);:_ZNK6MAUtil6VectorIPNS_13CloseListenerEE5emptyEv;2B.;capacity::(8,124):_ZNK6MAUtil6VectorIPNS_13CloseListenerEE8capacityEv;2B.;begin::(8,127)=#(8,103),(8,104),(8,108),(0,6);:_ZN6MAUtil6VectorIPNS_13CloseListenerEE5beginEv;2A.;end::(8,127):_ZN6MAUtil6VectorIPNS_13CloseListenerEE3endEv;2A.;begin::(8,128)=#(8,103),(8,110),(8,125),(0,6);:_ZNK6MAUtil6VectorIPNS_13CloseListenerEE5beginEv;2B.;end::(8,128):_ZNK6MAUtil6VectorIPNS_13CloseListenerEE3endEv;2B.;operator[]::(8,129)=#(8,103),(8,130)=&(8,105),(8,108),(0,3),(0,6);:_ZN6MAUtil6VectorIPNS_13CloseListenerEEixEi;2A.(8,131)=#(8,103),(8,119),(8,125),(0,3),(0,6);:_ZNK6MAUtil6VectorIPNS_13CloseListenerEEixEi;2B.;pointer::(8,128):_ZNK6MAUtil6VectorIPNS_13CloseListenerEE7pointerEv;2B.(8,127):_ZN6MAUtil6VectorIPNS_13CloseListenerEE7pointerEv;2A.;;",128,0,95,0
	.stabs	"Vector<MAUtil::ListenerSet<MAUtil::ConnListener>::Combo>:Tt(8,132)=s12mSize:/1(0,3),0,32;mCapacity:/1(0,3),32,32;mData:/1(8,133)=*(8,134)=xsCombo:,64,32;__base_ctor::(8,135)=#(8,132),(0,6),(8,136)=*(8,132),(0,3),(0,6);:_ZN6MAUtil6VectorINS_11ListenerSetINS_12ConnListenerEE5ComboEEC2Ei;2A.;__comp_ctor::(8,135):_ZN6MAUtil6VectorINS_11ListenerSetINS_12ConnListenerEE5ComboEEC1Ei;2A.;__base_ctor::(8,137)=#(8,132),(0,6),(8,136),(8,138)=*(8,139)=k(8,134),(0,3),(0,6);:_ZN6MAUtil6VectorINS_11ListenerSetINS_12ConnListenerEE5ComboEEC2EPKS4_i;2A.;__comp_ctor::(8,137):_ZN6MAUtil6VectorINS_11ListenerSetINS_12ConnListenerEE5ComboEEC1EPKS4_i;2A.;__base_ctor::(8,140)=#(8,132),(0,6),(8,136),(8,141)=&(8,142)=k(8,132),(0,6);:_ZN6MAUtil6VectorINS_11ListenerSetINS_12ConnListenerEE5ComboEEC2ERKS5_;2A.;__comp_ctor::(8,140):_ZN6MAUtil6VectorINS_11ListenerSetINS_12ConnListenerEE5ComboEEC1ERKS5_;2A.;__base_dtor::(8,143)=#(8,132),(0,6),(8,136),(0,6);:_ZN6MAUtil6VectorINS_11ListenerSetINS_12ConnListenerEE5ComboEED2Ev;2A.;__comp_dtor::(8,143):_ZN6MAUtil6VectorINS_11ListenerSetINS_12ConnListenerEE5ComboEED1Ev;2A.;operator=::(8,144)=#(8,132),(8,145)=&(8,132),(8,136),(8,141),(0,6);:_ZN6MAUtil6VectorINS_11ListenerSetINS_12ConnListenerEE5ComboEEaSERKS5_;2A.;add::(8,146)=#(8,132),(0,6),(8,136),(8,147)=&(8,139),(0,6);:_ZN6MAUtil6VectorINS_11ListenerSetINS_12ConnListenerEE5ComboEE3addERKS4_;2A.(8,137):_ZN6MAUtil6VectorINS_11ListenerSetINS_12ConnListenerEE5ComboEE3addEPKS4_i;2A.;remove::(8,148)=#(8,132),(0,6),(8,136),(8,133),(0,6);:_ZN6MAUtil6VectorINS_11ListenerSetINS_12ConnListenerEE5ComboEE6removeEPS4_;2A.(8,149)=#(8,132),(0,6),(8,136),(0,3),(0,6);:_ZN6MAUtil6VectorINS_11ListenerSetINS_12ConnListenerEE5ComboEE6removeEi;2A.(8,150)=#(8,132),(0,6),(8,136),(0,3),(0,3),(0,6);:_ZN6MAUtil6VectorINS_11ListenerSetINS_12ConnListenerEE5ComboEE6removeEii;2A.;insert::(8,151)=#(8,132),(0,6),(8,136),(0,3),(8,134),(0,6);:_ZN6MAUtil6VectorINS_11ListenerSetINS_12ConnListenerEE5ComboEE6insertEiS4_;2A.;size::(8,152)=#(8,132),(0,3),(8,153)=*(8,142),(0,6);:_ZNK6MAUtil6VectorINS_11ListenerSetINS_12ConnListenerEE5ComboEE4sizeEv;2B.;resize::(8,149):_ZN6MAUtil6VectorINS_11ListenerSetINS_12ConnListenerEE5ComboEE6resizeEi;2A.;reserve::(8,149):_ZN6MAUtil6VectorINS_11ListenerSetINS_12ConnListenerEE5ComboEE7reserveEi;2A.;clear::(8,143):_ZN6MAUtil6VectorINS_11ListenerSetINS_12ConnListenerEE5ComboEE5clearEv;2A.;empty::(8,154)=#(8,132),(0,4),(8,153),(0,6);:_ZNK6MAUtil6VectorINS_11ListenerSetINS_12ConnListenerEE5ComboEE5emptyEv;2B.;capacity::(8,152):_ZNK6MAUtil6VectorINS_11ListenerSetINS_12ConnListenerEE5ComboEE8capacityEv;2B.;begin::(8,155)=#(8,132),(8,133),(8,136),(0,6);:_ZN6MAUtil6VectorINS_11ListenerSetINS_12ConnListenerEE5ComboEE5beginEv;2A.;end::(8,155):_ZN6MAUtil6VectorINS_11ListenerSetINS_12ConnListenerEE5ComboEE3endEv;2A.;begin::(8,156)=#(8,132),(8,138),(8,153),(0,6);:_ZNK6MAUtil6VectorINS_11ListenerSetINS_12ConnListenerEE5ComboEE5beginEv;2B.;end::(8,156):_ZNK6MAUtil6VectorINS_11ListenerSetINS_12ConnListenerEE5ComboEE3endEv;2B.;operator[]::(8,157)=#(8,132),(8,158)=&(8,134),(8,136),(0,3),(0,6);:_ZN6MAUtil6VectorINS_11ListenerSetINS_12ConnListenerEE5ComboEEixEi;2A.(8,159)=#(8,132),(8,147),(8,153),(0,3),(0,6);:_ZNK6MAUtil6VectorINS_11ListenerSetINS_12ConnListenerEE5ComboEEixEi;2B.;pointer::(8,156):_ZNK6MAUtil6VectorINS_11ListenerSetINS_12ConnListenerEE5ComboEE7pointerEv;2B.(8,155):_ZN6MAUtil6VectorINS_11ListenerSetINS_12ConnListenerEE5ComboEE7pointerEv;2A.;;",128,0,95,0
	.stabs	"ListenerSet<MAUtil::ConnListener>:Tt(8,160)=s16mRunning:/0(0,4),0,8;mUpdateRequired:/0(0,4),8,8;mShouldDelete:/0(0,4),16,8;mVec:/0(8,132),32,96;__base_ctor::(8,161)=#(8,160),(0,6),(8,162)=*(8,160),(0,4),(0,6);:_ZN6MAUtil11ListenerSetINS_12ConnListenerEEC2Eb;2A.;__comp_ctor::(8,161):_ZN6MAUtil11ListenerSetINS_12ConnListenerEEC1Eb;2A.;begin::(8,163)=#(8,160),(8,164)=xsiterator:,(8,162),(0,6);:_ZN6MAUtil11ListenerSetINS_12ConnListenerEE5beginEv;2A.;add::(8,165)=#(8,160),(0,6),(8,162),(8,166)=*(8,167)=xsConnListener:,(0,6);:_ZN6MAUtil11ListenerSetINS_12ConnListenerEE3addEPS1_;2A.;remove::(8,165):_ZN6MAUtil11ListenerSetINS_12ConnListenerEE6removeEPS1_;2A.;contains::(8,168)=#(8,160),(0,4),(8,162),(8,166),(0,6);:_ZN6MAUtil11ListenerSetINS_12ConnListenerEE8containsEPS1_;2A.;setRunning::(8,169)=#(8,160),(0,6),(8,162),(0,4),(0,6);:_ZN6MAUtil11ListenerSetINS_12ConnListenerEE10setRunningEb;2A.;size::(8,170)=#(8,160),(0,3),(8,171)=*(8,172)=k(8,160),(0,6);:_ZNK6MAUtil11ListenerSetINS_12ConnListenerEE4sizeEv;2B.;operator=::(8,173)=#(8,160),(8,174)=&(8,160),(8,162),(8,175)=&(8,172),(0,6);:_ZN6MAUtil11ListenerSetINS_12ConnListenerEEaSERKS2_;2A.;__base_ctor::(8,176)=#(8,160),(0,6),(8,162),(8,175),(0,6);:_ZN6MAUtil11ListenerSetINS_12ConnListenerEEC2ERKS2_;2A.;__comp_ctor::(8,176):_ZN6MAUtil11ListenerSetINS_12ConnListenerEEC1ERKS2_;2A.;__base_dtor::(8,177)=#(8,160),(0,6),(8,162),(0,6);:_ZN6MAUtil11ListenerSetINS_12ConnListenerEED2Ev;2A.;__comp_dtor::(8,177):_ZN6MAUtil11ListenerSetINS_12ConnListenerEED1Ev;2A.;;",128,0,46,0
	.stabs	"Vector<MAUtil::ListenerSet<MAUtil::IdleListener>::Combo>:Tt(8,178)=s12mSize:/1(0,3),0,32;mCapacity:/1(0,3),32,32;mData:/1(8,179)=*(8,180)=xsCombo:,64,32;__base_ctor::(8,181)=#(8,178),(0,6),(8,182)=*(8,178),(0,3),(0,6);:_ZN6MAUtil6VectorINS_11ListenerSetINS_12IdleListenerEE5ComboEEC2Ei;2A.;__comp_ctor::(8,181):_ZN6MAUtil6VectorINS_11ListenerSetINS_12IdleListenerEE5ComboEEC1Ei;2A.;__base_ctor::(8,183)=#(8,178),(0,6),(8,182),(8,184)=*(8,185)=k(8,180),(0,3),(0,6);:_ZN6MAUtil6VectorINS_11ListenerSetINS_12IdleListenerEE5ComboEEC2EPKS4_i;2A.;__comp_ctor::(8,183):_ZN6MAUtil6VectorINS_11ListenerSetINS_12IdleListenerEE5ComboEEC1EPKS4_i;2A.;__base_ctor::(8,186)=#(8,178),(0,6),(8,182),(8,187)=&(8,188)=k(8,178),(0,6);:_ZN6MAUtil6VectorINS_11ListenerSetINS_12IdleListenerEE5ComboEEC2ERKS5_;2A.;__comp_ctor::(8,186):_ZN6MAUtil6VectorINS_11ListenerSetINS_12IdleListenerEE5ComboEEC1ERKS5_;2A.;__base_dtor::(8,189)=#(8,178),(0,6),(8,182),(0,6);:_ZN6MAUtil6VectorINS_11ListenerSetINS_12IdleListenerEE5ComboEED2Ev;2A.;__comp_dtor::(8,189):_ZN6MAUtil6VectorINS_11ListenerSetINS_12IdleListenerEE5ComboEED1Ev;2A.;operator=::(8,190)=#(8,178),(8,191)=&(8,178),(8,182),(8,187),(0,6);:_ZN6MAUtil6VectorINS_11ListenerSetINS_12IdleListenerEE5ComboEEaSERKS5_;2A.;add::(8,192)=#(8,178),(0,6),(8,182),(8,193)=&(8,185),(0,6);:_ZN6MAUtil6VectorINS_11ListenerSetINS_12IdleListenerEE5ComboEE3addERKS4_;2A.(8,183):_ZN6MAUtil6VectorINS_11ListenerSetINS_12IdleListenerEE5ComboEE3addEPKS4_i;2A.;remove::(8,194)=#(8,178),(0,6),(8,182),(8,179),(0,6);:_ZN6MAUtil6VectorINS_11ListenerSetINS_12IdleListenerEE5ComboEE6removeEPS4_;2A.(8,195)=#(8,178),(0,6),(8,182),(0,3),(0,6);:_ZN6MAUtil6VectorINS_11ListenerSetINS_12IdleListenerEE5ComboEE6removeEi;2A.(8,196)=#(8,178),(0,6),(8,182),(0,3),(0,3),(0,6);:_ZN6MAUtil6VectorINS_11ListenerSetINS_12IdleListenerEE5ComboEE6removeEii;2A.;insert::(8,197)=#(8,178),(0,6),(8,182),(0,3),(8,180),(0,6);:_ZN6MAUtil6VectorINS_11ListenerSetINS_12IdleListenerEE5ComboEE6insertEiS4_;2A.;size::(8,198)=#(8,178),(0,3),(8,199)=*(8,188),(0,6);:_ZNK6MAUtil6VectorINS_11ListenerSetINS_12IdleListenerEE5ComboEE4sizeEv;2B.;resize::(8,195):_ZN6MAUtil6VectorINS_11ListenerSetINS_12IdleListenerEE5ComboEE6resizeEi;2A.;reserve::(8,195):_ZN6MAUtil6VectorINS_11ListenerSetINS_12IdleListenerEE5ComboEE7reserveEi;2A.;clear::(8,189):_ZN6MAUtil6VectorINS_11ListenerSetINS_12IdleListenerEE5ComboEE5clearEv;2A.;empty::(8,200)=#(8,178),(0,4),(8,199),(0,6);:_ZNK6MAUtil6VectorINS_11ListenerSetINS_12IdleListenerEE5ComboEE5emptyEv;2B.;capacity::(8,198):_ZNK6MAUtil6VectorINS_11ListenerSetINS_12IdleListenerEE5ComboEE8capacityEv;2B.;begin::(8,201)=#(8,178),(8,179),(8,182),(0,6);:_ZN6MAUtil6VectorINS_11ListenerSetINS_12IdleListenerEE5ComboEE5beginEv;2A.;end::(8,201):_ZN6MAUtil6VectorINS_11ListenerSetINS_12IdleListenerEE5ComboEE3endEv;2A.;begin::(8,202)=#(8,178),(8,184),(8,199),(0,6);:_ZNK6MAUtil6VectorINS_11ListenerSetINS_12IdleListenerEE5ComboEE5beginEv;2B.;end::(8,202):_ZNK6MAUtil6VectorINS_11ListenerSetINS_12IdleListenerEE5ComboEE3endEv;2B.;operator[]::(8,203)=#(8,178),(8,204)=&(8,180),(8,182),(0,3),(0,6);:_ZN6MAUtil6VectorINS_11ListenerSetINS_12IdleListenerEE5ComboEEixEi;2A.(8,205)=#(8,178),(8,193),(8,199),(0,3),(0,6);:_ZNK6MAUtil6VectorINS_11ListenerSetINS_12IdleListenerEE5ComboEEixEi;2B.;pointer::(8,202):_ZNK6MAUtil6VectorINS_11ListenerSetINS_12IdleListenerEE5ComboEE7pointerEv;2B.(8,201):_ZN6MAUtil6VectorINS_11ListenerSetINS_12IdleListenerEE5ComboEE7pointerEv;2A.;;",128,0,95,0
	.stabs	"ListenerSet<MAUtil::IdleListener>:Tt(8,206)=s16mRunning:/0(0,4),0,8;mUpdateRequired:/0(0,4),8,8;mShouldDelete:/0(0,4),16,8;mVec:/0(8,178),32,96;__base_ctor::(8,207)=#(8,206),(0,6),(8,208)=*(8,206),(0,4),(0,6);:_ZN6MAUtil11ListenerSetINS_12IdleListenerEEC2Eb;2A.;__comp_ctor::(8,207):_ZN6MAUtil11ListenerSetINS_12IdleListenerEEC1Eb;2A.;begin::(8,209)=#(8,206),(8,210)=xsiterator:,(8,208),(0,6);:_ZN6MAUtil11ListenerSetINS_12IdleListenerEE5beginEv;2A.;add::(8,211)=#(8,206),(0,6),(8,208),(8,212)=*(8,213)=xsIdleListener:,(0,6);:_ZN6MAUtil11ListenerSetINS_12IdleListenerEE3addEPS1_;2A.;remove::(8,211):_ZN6MAUtil11ListenerSetINS_12IdleListenerEE6removeEPS1_;2A.;contains::(8,214)=#(8,206),(0,4),(8,208),(8,212),(0,6);:_ZN6MAUtil11ListenerSetINS_12IdleListenerEE8containsEPS1_;2A.;setRunning::(8,215)=#(8,206),(0,6),(8,208),(0,4),(0,6);:_ZN6MAUtil11ListenerSetINS_12IdleListenerEE10setRunningEb;2A.;size::(8,216)=#(8,206),(0,3),(8,217)=*(8,218)=k(8,206),(0,6);:_ZNK6MAUtil11ListenerSetINS_12IdleListenerEE4sizeEv;2B.;operator=::(8,219)=#(8,206),(8,220)=&(8,206),(8,208),(8,221)=&(8,218),(0,6);:_ZN6MAUtil11ListenerSetINS_12IdleListenerEEaSERKS2_;2A.;__base_ctor::(8,222)=#(8,206),(0,6),(8,208),(8,221),(0,6);:_ZN6MAUtil11ListenerSetINS_12IdleListenerEEC2ERKS2_;2A.;__comp_ctor::(8,222):_ZN6MAUtil11ListenerSetINS_12IdleListenerEEC1ERKS2_;2A.;__base_dtor::(8,223)=#(8,206),(0,6),(8,208),(0,6);:_ZN6MAUtil11ListenerSetINS_12IdleListenerEED2Ev;2A.;__comp_dtor::(8,223):_ZN6MAUtil11ListenerSetINS_12IdleListenerEED1Ev;2A.;;",128,0,46,0
	.stabs	"Vector<MAUtil::ListenerSet<MAUtil::Environment::TimerEventInstance>::Combo>:Tt(8,224)=s12mSize:/1(0,3),0,32;mCapacity:/1(0,3),32,32;mData:/1(8,225)=*(8,226)=xsCombo:,64,32;__base_ctor::(8,227)=#(8,224),(0,6),(8,228)=*(8,224),(0,3),(0,6);:_ZN6MAUtil6VectorINS_11ListenerSetINS_11Environment18TimerEventInstanceEE5ComboEEC2Ei;2A.;__comp_ctor::(8,227):_ZN6MAUtil6VectorINS_11ListenerSetINS_11Environment18TimerEventInstanceEE5ComboEEC1Ei;2A.;__base_ctor::(8,229)=#(8,224),(0,6),(8,228),(8,230)=*(8,231)=k(8,226),(0,3),(0,6);:_ZN6MAUtil6VectorINS_11ListenerSetINS_11Environment18TimerEventInstanceEE5ComboEEC2EPKS5_i;2A.;__comp_ctor::(8,229):_ZN6MAUtil6VectorINS_11ListenerSetINS_11Environment18TimerEventInstanceEE5ComboEEC1EPKS5_i;2A.;__base_ctor::(8,232)=#(8,224),(0,6),(8,228),(8,233)=&(8,234)=k(8,224),(0,6);:_ZN6MAUtil6VectorINS_11ListenerSetINS_11Environment18TimerEventInstanceEE5ComboEEC2ERKS6_;2A.;__comp_ctor::(8,232):_ZN6MAUtil6VectorINS_11ListenerSetINS_11Environment18TimerEventInstanceEE5ComboEEC1ERKS6_;2A.;__base_dtor::(8,235)=#(8,224),(0,6),(8,228),(0,6);:_ZN6MAUtil6VectorINS_11ListenerSetINS_11Environment18TimerEventInstanceEE5ComboEED2Ev;2A.;__comp_dtor::(8,235):_ZN6MAUtil6VectorINS_11ListenerSetINS_11Environment18TimerEventInstanceEE5ComboEED1Ev;2A.;operator=::(8,236)=#(8,224),(8,237)=&(8,224),(8,228),(8,233),(0,6);:_ZN6MAUtil6VectorINS_11ListenerSetINS_11Environment18TimerEventInstanceEE5ComboEEaSERKS6_;2A.;add::(8,238)=#(8,224),(0,6),(8,228),(8,239)=&(8,231),(0,6);:_ZN6MAUtil6VectorINS_11ListenerSetINS_11Environment18TimerEventInstanceEE5ComboEE3addERKS5_;2A.(8,229):_ZN6MAUtil6VectorINS_11ListenerSetINS_11Environment18TimerEventInstanceEE5ComboEE3addEPKS5_i;2A.;remove::(8,240)=#(8,224),(0,6),(8,228),(8,225),(0,6);:_ZN6MAUtil6VectorINS_11ListenerSetINS_11Environment18TimerEventInstanceEE5ComboEE6removeEPS5_;2A.(8,241)=#(8,224),(0,6),(8,228),(0,3),(0,6);:_ZN6MAUtil6VectorINS_11ListenerSetINS_11Environment18TimerEventInstanceEE5ComboEE6removeEi;2A.(8,242)=#(8,224),(0,6),(8,228),(0,3),(0,3),(0,6);:_ZN6MAUtil6VectorINS_11ListenerSetINS_11Environment18TimerEventInstanceEE5ComboEE6removeEii;2A.;insert::(8,243)=#(8,224),(0,6),(8,228),(0,3),(8,226),(0,6);:_ZN6MAUtil6VectorINS_11ListenerSetINS_11Environment18TimerEventInstanceEE5ComboEE6insertEiS5_;2A.;size::(8,244)=#(8,224),(0,3),(8,245)=*(8,234),(0,6);:_ZNK6MAUtil6VectorINS_11ListenerSetINS_11Environment18TimerEventInstanceEE5ComboEE4sizeEv;2B.;resize::(8,241):_ZN6MAUtil6VectorINS_11ListenerSetINS_11Environment18TimerEventInstanceEE5ComboEE6resizeEi;2A.;reserve::(8,241):_ZN6MAUtil6VectorINS_11ListenerSetINS_11Environment18TimerEventInstanceEE5ComboEE7reserveEi;2A.;clear::(8,235):_ZN6MAUtil6VectorINS_11ListenerSetINS_11Environment18TimerEventInstanceEE5ComboEE5clearEv;2A.;empty::(8,246)=#(8,224),(0,4),(8,245),(0,6);:_ZNK6MAUtil6VectorINS_11ListenerSetINS_11Environment18TimerEventInstanceEE5ComboEE5emptyEv;2B.;capacity::(8,244):_ZNK6MAUtil6VectorINS_11ListenerSetINS_11Environment18TimerEventInstanceEE5ComboEE8capacityEv;2B.;begin::(8,247)=#(8,224),(8,225),(8,228),(0,6);:_ZN6MAUtil6VectorINS_11ListenerSetINS_11Environment18TimerEventInstanceEE5ComboEE5beginEv;2A.;end::(8,247):_ZN6MAUtil6VectorINS_11ListenerSetINS_11Environment18TimerEventInstanceEE5ComboEE3endEv;2A.;begin::(8,248)=#(8,224),(8,230),(8,245),(0,6);:_ZNK6MAUtil6VectorINS_11ListenerSetINS_11Environment18TimerEventInstanceEE5ComboEE5beginEv;2B.;end::(8,248):_ZNK6MAUtil6VectorINS_11ListenerSetINS_11Environment18TimerEventInstanceEE5ComboEE3endEv;2B.;operator[]::(8,249)=#(8,224),(8,250)=&(8,226),(8,228),(0,3),(0,6);:_ZN6MAUtil6VectorINS_11ListenerSetINS_11Environment18TimerEventInstanceEE5ComboEEixEi;2A.(8,251)=#(8,224),(8,239),(8,245),(0,3),(0,6);:_ZNK6MAUtil6VectorINS_11ListenerSetINS_11Environment18TimerEventInstanceEE5ComboEEixEi;2B.;pointer::(8,248):_ZNK6MAUtil6VectorINS_11ListenerSetINS_11Environment18TimerEventInstanceEE5ComboEE7pointerEv;2B.(8,247):_ZN6MAUtil6VectorINS_11ListenerSetINS_11Environment18TimerEventInstanceEE5ComboEE7pointerEv;2A.;;",128,0,95,0
	.stabs	"ListenerSet<MAUtil::Environment::TimerEventInstance>:Tt(8,252)=s16mRunning:/0(0,4),0,8;mUpdateRequired:/0(0,4),8,8;mShouldDelete:/0(0,4),16,8;mVec:/0(8,224),32,96;__base_ctor::(8,253)=#(8,252),(0,6),(8,254)=*(8,252),(0,4),(0,6);:_ZN6MAUtil11ListenerSetINS_11Environment18TimerEventInstanceEEC2Eb;2A.;__comp_ctor::(8,253):_ZN6MAUtil11ListenerSetINS_11Environment18TimerEventInstanceEEC1Eb;2A.;begin::(8,255)=#(8,252),(8,256)=xsiterator:,(8,254),(0,6);:_ZN6MAUtil11ListenerSetINS_11Environment18TimerEventInstanceEE5beginEv;2A.;add::(8,257)=#(8,252),(0,6),(8,254),(8,5),(0,6);:_ZN6MAUtil11ListenerSetINS_11Environment18TimerEventInstanceEE3addEPS2_;2A.;remove::(8,257):_ZN6MAUtil11ListenerSetINS_11Environment18TimerEventInstanceEE6removeEPS2_;2A.;contains::(8,258)=#(8,252),(0,4),(8,254),(8,5),(0,6);:_ZN6MAUtil11ListenerSetINS_11Environment18TimerEventInstanceEE8containsEPS2_;2A.;setRunning::(8,259)=#(8,252),(0,6),(8,254),(0,4),(0,6);:_ZN6MAUtil11ListenerSetINS_11Environment18TimerEventInstanceEE10setRunningEb;2A.;size::(8,260)=#(8,252),(0,3),(8,261)=*(8,262)=k(8,252),(0,6);:_ZNK6MAUtil11ListenerSetINS_11Environment18TimerEventInstanceEE4sizeEv;2B.;operator=::(8,263)=#(8,252),(8,264)=&(8,252),(8,254),(8,265)=&(8,262),(0,6);:_ZN6MAUtil11ListenerSetINS_11Environment18TimerEventInstanceEEaSERKS3_;2A.;__base_ctor::(8,266)=#(8,252),(0,6),(8,254),(8,265),(0,6);:_ZN6MAUtil11ListenerSetINS_11Environment18TimerEventInstanceEEC2ERKS3_;2A.;__comp_ctor::(8,266):_ZN6MAUtil11ListenerSetINS_11Environment18TimerEventInstanceEEC1ERKS3_;2A.;__base_dtor::(8,267)=#(8,252),(0,6),(8,254),(0,6);:_ZN6MAUtil11ListenerSetINS_11Environment18TimerEventInstanceEED2Ev;2A.;__comp_dtor::(8,267):_ZN6MAUtil11ListenerSetINS_11Environment18TimerEventInstanceEED1Ev;2A.;;",128,0,46,0
	.stabs	"Vector<MAUtil::ListenerSet<MAUtil::FocusListener>::Combo>:Tt(8,268)=s12mSize:/1(0,3),0,32;mCapacity:/1(0,3),32,32;mData:/1(8,269)=*(8,270)=xsCombo:,64,32;__base_ctor::(8,271)=#(8,268),(0,6),(8,272)=*(8,268),(0,3),(0,6);:_ZN6MAUtil6VectorINS_11ListenerSetINS_13FocusListenerEE5ComboEEC2Ei;2A.;__comp_ctor::(8,271):_ZN6MAUtil6VectorINS_11ListenerSetINS_13FocusListenerEE5ComboEEC1Ei;2A.;__base_ctor::(8,273)=#(8,268),(0,6),(8,272),(8,274)=*(8,275)=k(8,270),(0,3),(0,6);:_ZN6MAUtil6VectorINS_11ListenerSetINS_13FocusListenerEE5ComboEEC2EPKS4_i;2A.;__comp_ctor::(8,273):_ZN6MAUtil6VectorINS_11ListenerSetINS_13FocusListenerEE5ComboEEC1EPKS4_i;2A.;__base_ctor::(8,276)=#(8,268),(0,6),(8,272),(8,277)=&(8,278)=k(8,268),(0,6);:_ZN6MAUtil6VectorINS_11ListenerSetINS_13FocusListenerEE5ComboEEC2ERKS5_;2A.;__comp_ctor::(8,276):_ZN6MAUtil6VectorINS_11ListenerSetINS_13FocusListenerEE5ComboEEC1ERKS5_;2A.;__base_dtor::(8,279)=#(8,268),(0,6),(8,272),(0,6);:_ZN6MAUtil6VectorINS_11ListenerSetINS_13FocusListenerEE5ComboEED2Ev;2A.;__comp_dtor::(8,279):_ZN6MAUtil6VectorINS_11ListenerSetINS_13FocusListenerEE5ComboEED1Ev;2A.;operator=::(8,280)=#(8,268),(8,281)=&(8,268),(8,272),(8,277),(0,6);:_ZN6MAUtil6VectorINS_11ListenerSetINS_13FocusListenerEE5ComboEEaSERKS5_;2A.;add::(8,282)=#(8,268),(0,6),(8,272),(8,283)=&(8,275),(0,6);:_ZN6MAUtil6VectorINS_11ListenerSetINS_13FocusListenerEE5ComboEE3addERKS4_;2A.(8,273):_ZN6MAUtil6VectorINS_11ListenerSetINS_13FocusListenerEE5ComboEE3addEPKS4_i;2A.;remove::(8,284)=#(8,268),(0,6),(8,272),(8,269),(0,6);:_ZN6MAUtil6VectorINS_11ListenerSetINS_13FocusListenerEE5ComboEE6removeEPS4_;2A.(8,285)=#(8,268),(0,6),(8,272),(0,3),(0,6);:_ZN6MAUtil6VectorINS_11ListenerSetINS_13FocusListenerEE5ComboEE6removeEi;2A.(8,286)=#(8,268),(0,6),(8,272),(0,3),(0,3),(0,6);:_ZN6MAUtil6VectorINS_11ListenerSetINS_13FocusListenerEE5ComboEE6removeEii;2A.;insert::(8,287)=#(8,268),(0,6),(8,272),(0,3),(8,270),(0,6);:_ZN6MAUtil6VectorINS_11ListenerSetINS_13FocusListenerEE5ComboEE6insertEiS4_;2A.;size::(8,288)=#(8,268),(0,3),(8,289)=*(8,278),(0,6);:_ZNK6MAUtil6VectorINS_11ListenerSetINS_13FocusListenerEE5ComboEE4sizeEv;2B.;resize::(8,285):_ZN6MAUtil6VectorINS_11ListenerSetINS_13FocusListenerEE5ComboEE6resizeEi;2A.;reserve::(8,285):_ZN6MAUtil6VectorINS_11ListenerSetINS_13FocusListenerEE5ComboEE7reserveEi;2A.;clear::(8,279):_ZN6MAUtil6VectorINS_11ListenerSetINS_13FocusListenerEE5ComboEE5clearEv;2A.;empty::(8,290)=#(8,268),(0,4),(8,289),(0,6);:_ZNK6MAUtil6VectorINS_11ListenerSetINS_13FocusListenerEE5ComboEE5emptyEv;2B.;capacity::(8,288):_ZNK6MAUtil6VectorINS_11ListenerSetINS_13FocusListenerEE5ComboEE8capacityEv;2B.;begin::(8,291)=#(8,268),(8,269),(8,272),(0,6);:_ZN6MAUtil6VectorINS_11ListenerSetINS_13FocusListenerEE5ComboEE5beginEv;2A.;end::(8,291):_ZN6MAUtil6VectorINS_11ListenerSetINS_13FocusListenerEE5ComboEE3endEv;2A.;begin::(8,292)=#(8,268),(8,274),(8,289),(0,6);:_ZNK6MAUtil6VectorINS_11ListenerSetINS_13FocusListenerEE5ComboEE5beginEv;2B.;end::(8,292):_ZNK6MAUtil6VectorINS_11ListenerSetINS_13FocusListenerEE5ComboEE3endEv;2B.;operator[]::(8,293)=#(8,268),(8,294)=&(8,270),(8,272),(0,3),(0,6);:_ZN6MAUtil6VectorINS_11ListenerSetINS_13FocusListenerEE5ComboEEixEi;2A.(8,295)=#(8,268),(8,283),(8,289),(0,3),(0,6);:_ZNK6MAUtil6VectorINS_11ListenerSetINS_13FocusListenerEE5ComboEEixEi;2B.;pointer::(8,292):_ZNK6MAUtil6VectorINS_11ListenerSetINS_13FocusListenerEE5ComboEE7pointerEv;2B.(8,291):_ZN6MAUtil6VectorINS_11ListenerSetINS_13FocusListenerEE5ComboEE7pointerEv;2A.;;",128,0,95,0
	.stabs	"ListenerSet<MAUtil::FocusListener>:Tt(8,296)=s16mRunning:/0(0,4),0,8;mUpdateRequired:/0(0,4),8,8;mShouldDelete:/0(0,4),16,8;mVec:/0(8,268),32,96;__base_ctor::(8,297)=#(8,296),(0,6),(8,298)=*(8,296),(0,4),(0,6);:_ZN6MAUtil11ListenerSetINS_13FocusListenerEEC2Eb;2A.;__comp_ctor::(8,297):_ZN6MAUtil11ListenerSetINS_13FocusListenerEEC1Eb;2A.;begin::(8,299)=#(8,296),(8,300)=xsiterator:,(8,298),(0,6);:_ZN6MAUtil11ListenerSetINS_13FocusListenerEE5beginEv;2A.;add::(8,301)=#(8,296),(0,6),(8,298),(8,302)=*(8,303)=xsFocusListener:,(0,6);:_ZN6MAUtil11ListenerSetINS_13FocusListenerEE3addEPS1_;2A.;remove::(8,301):_ZN6MAUtil11ListenerSetINS_13FocusListenerEE6removeEPS1_;2A.;contains::(8,304)=#(8,296),(0,4),(8,298),(8,302),(0,6);:_ZN6MAUtil11ListenerSetINS_13FocusListenerEE8containsEPS1_;2A.;setRunning::(8,305)=#(8,296),(0,6),(8,298),(0,4),(0,6);:_ZN6MAUtil11ListenerSetINS_13FocusListenerEE10setRunningEb;2A.;size::(8,306)=#(8,296),(0,3),(8,307)=*(8,308)=k(8,296),(0,6);:_ZNK6MAUtil11ListenerSetINS_13FocusListenerEE4sizeEv;2B.;operator=::(8,309)=#(8,296),(8,310)=&(8,296),(8,298),(8,311)=&(8,308),(0,6);:_ZN6MAUtil11ListenerSetINS_13FocusListenerEEaSERKS2_;2A.;__base_ctor::(8,312)=#(8,296),(0,6),(8,298),(8,311),(0,6);:_ZN6MAUtil11ListenerSetINS_13FocusListenerEEC2ERKS2_;2A.;__comp_ctor::(8,312):_ZN6MAUtil11ListenerSetINS_13FocusListenerEEC1ERKS2_;2A.;__base_dtor::(8,313)=#(8,296),(0,6),(8,298),(0,6);:_ZN6MAUtil11ListenerSetINS_13FocusListenerEED2Ev;2A.;__comp_dtor::(8,313):_ZN6MAUtil11ListenerSetINS_13FocusListenerEED1Ev;2A.;;",128,0,46,0
	.stabs	"Vector<MAUtil::ListenerSet<MAUtil::CustomEventListener>::Combo>:Tt(8,314)=s12mSize:/1(0,3),0,32;mCapacity:/1(0,3),32,32;mData:/1(8,315)=*(8,316)=xsCombo:,64,32;__base_ctor::(8,317)=#(8,314),(0,6),(8,318)=*(8,314),(0,3),(0,6);:_ZN6MAUtil6VectorINS_11ListenerSetINS_19CustomEventListenerEE5ComboEEC2Ei;2A.;__comp_ctor::(8,317):_ZN6MAUtil6VectorINS_11ListenerSetINS_19CustomEventListenerEE5ComboEEC1Ei;2A.;__base_ctor::(8,319)=#(8,314),(0,6),(8,318),(8,320)=*(8,321)=k(8,316),(0,3),(0,6);:_ZN6MAUtil6VectorINS_11ListenerSetINS_19CustomEventListenerEE5ComboEEC2EPKS4_i;2A.;__comp_ctor::(8,319):_ZN6MAUtil6VectorINS_11ListenerSetINS_19CustomEventListenerEE5ComboEEC1EPKS4_i;2A.;__base_ctor::(8,322)=#(8,314),(0,6),(8,318),(8,323)=&(8,324)=k(8,314),(0,6);:_ZN6MAUtil6VectorINS_11ListenerSetINS_19CustomEventListenerEE5ComboEEC2ERKS5_;2A.;__comp_ctor::(8,322):_ZN6MAUtil6VectorINS_11ListenerSetINS_19CustomEventListenerEE5ComboEEC1ERKS5_;2A.;__base_dtor::(8,325)=#(8,314),(0,6),(8,318),(0,6);:_ZN6MAUtil6VectorINS_11ListenerSetINS_19CustomEventListenerEE5ComboEED2Ev;2A.;__comp_dtor::(8,325):_ZN6MAUtil6VectorINS_11ListenerSetINS_19CustomEventListenerEE5ComboEED1Ev;2A.;operator=::(8,326)=#(8,314),(8,327)=&(8,314),(8,318),(8,323),(0,6);:_ZN6MAUtil6VectorINS_11ListenerSetINS_19CustomEventListenerEE5ComboEEaSERKS5_;2A.;add::(8,328)=#(8,314),(0,6),(8,318),(8,329)=&(8,321),(0,6);:_ZN6MAUtil6VectorINS_11ListenerSetINS_19CustomEventListenerEE5ComboEE3addERKS4_;2A.(8,319):_ZN6MAUtil6VectorINS_11ListenerSetINS_19CustomEventListenerEE5ComboEE3addEPKS4_i;2A.;remove::(8,330)=#(8,314),(0,6),(8,318),(8,315),(0,6);:_ZN6MAUtil6VectorINS_11ListenerSetINS_19CustomEventListenerEE5ComboEE6removeEPS4_;2A.(8,331)=#(8,314),(0,6),(8,318),(0,3),(0,6);:_ZN6MAUtil6VectorINS_11ListenerSetINS_19CustomEventListenerEE5ComboEE6removeEi;2A.(8,332)=#(8,314),(0,6),(8,318),(0,3),(0,3),(0,6);:_ZN6MAUtil6VectorINS_11ListenerSetINS_19CustomEventListenerEE5ComboEE6removeEii;2A.;insert::(8,333)=#(8,314),(0,6),(8,318),(0,3),(8,316),(0,6);:_ZN6MAUtil6VectorINS_11ListenerSetINS_19CustomEventListenerEE5ComboEE6insertEiS4_;2A.;size::(8,334)=#(8,314),(0,3),(8,335)=*(8,324),(0,6);:_ZNK6MAUtil6VectorINS_11ListenerSetINS_19CustomEventListenerEE5ComboEE4sizeEv;2B.;resize::(8,331):_ZN6MAUtil6VectorINS_11ListenerSetINS_19CustomEventListenerEE5ComboEE6resizeEi;2A.;reserve::(8,331):_ZN6MAUtil6VectorINS_11ListenerSetINS_19CustomEventListenerEE5ComboEE7reserveEi;2A.;clear::(8,325):_ZN6MAUtil6VectorINS_11ListenerSetINS_19CustomEventListenerEE5ComboEE5clearEv;2A.;empty::(8,336)=#(8,314),(0,4),(8,335),(0,6);:_ZNK6MAUtil6VectorINS_11ListenerSetINS_19CustomEventListenerEE5ComboEE5emptyEv;2B.;capacity::(8,334):_ZNK6MAUtil6VectorINS_11ListenerSetINS_19CustomEventListenerEE5ComboEE8capacityEv;2B.;begin::(8,337)=#(8,314),(8,315),(8,318),(0,6);:_ZN6MAUtil6VectorINS_11ListenerSetINS_19CustomEventListenerEE5ComboEE5beginEv;2A.;end::(8,337):_ZN6MAUtil6VectorINS_11ListenerSetINS_19CustomEventListenerEE5ComboEE3endEv;2A.;begin::(8,338)=#(8,314),(8,320),(8,335),(0,6);:_ZNK6MAUtil6VectorINS_11ListenerSetINS_19CustomEventListenerEE5ComboEE5beginEv;2B.;end::(8,338):_ZNK6MAUtil6VectorINS_11ListenerSetINS_19CustomEventListenerEE5ComboEE3endEv;2B.;operator[]::(8,339)=#(8,314),(8,340)=&(8,316),(8,318),(0,3),(0,6);:_ZN6MAUtil6VectorINS_11ListenerSetINS_19CustomEventListenerEE5ComboEEixEi;2A.(8,341)=#(8,314),(8,329),(8,335),(0,3),(0,6);:_ZNK6MAUtil6VectorINS_11ListenerSetINS_19CustomEventListenerEE5ComboEEixEi;2B.;pointer::(8,338):_ZNK6MAUtil6VectorINS_11ListenerSetINS_19CustomEventListenerEE5ComboEE7pointerEv;2B.(8,337):_ZN6MAUtil6VectorINS_11ListenerSetINS_19CustomEventListenerEE5ComboEE7pointerEv;2A.;;",128,0,95,0
	.stabs	"ListenerSet<MAUtil::CustomEventListener>:Tt(8,342)=s16mRunning:/0(0,4),0,8;mUpdateRequired:/0(0,4),8,8;mShouldDelete:/0(0,4),16,8;mVec:/0(8,314),32,96;__base_ctor::(8,343)=#(8,342),(0,6),(8,344)=*(8,342),(0,4),(0,6);:_ZN6MAUtil11ListenerSetINS_19CustomEventListenerEEC2Eb;2A.;__comp_ctor::(8,343):_ZN6MAUtil11ListenerSetINS_19CustomEventListenerEEC1Eb;2A.;begin::(8,345)=#(8,342),(8,346)=xsiterator:,(8,344),(0,6);:_ZN6MAUtil11ListenerSetINS_19CustomEventListenerEE5beginEv;2A.;add::(8,347)=#(8,342),(0,6),(8,344),(8,348)=*(8,349)=xsCustomEventListener:,(0,6);:_ZN6MAUtil11ListenerSetINS_19CustomEventListenerEE3addEPS1_;2A.;remove::(8,347):_ZN6MAUtil11ListenerSetINS_19CustomEventListenerEE6removeEPS1_;2A.;contains::(8,350)=#(8,342),(0,4),(8,344),(8,348),(0,6);:_ZN6MAUtil11ListenerSetINS_19CustomEventListenerEE8containsEPS1_;2A.;setRunning::(8,351)=#(8,342),(0,6),(8,344),(0,4),(0,6);:_ZN6MAUtil11ListenerSetINS_19CustomEventListenerEE10setRunningEb;2A.;size::(8,352)=#(8,342),(0,3),(8,353)=*(8,354)=k(8,342),(0,6);:_ZNK6MAUtil11ListenerSetINS_19CustomEventListenerEE4sizeEv;2B.;operator=::(8,355)=#(8,342),(8,356)=&(8,342),(8,344),(8,357)=&(8,354),(0,6);:_ZN6MAUtil11ListenerSetINS_19CustomEventListenerEEaSERKS2_;2A.;__base_ctor::(8,358)=#(8,342),(0,6),(8,344),(8,357),(0,6);:_ZN6MAUtil11ListenerSetINS_19CustomEventListenerEEC2ERKS2_;2A.;__comp_ctor::(8,358):_ZN6MAUtil11ListenerSetINS_19CustomEventListenerEEC1ERKS2_;2A.;__base_dtor::(8,359)=#(8,342),(0,6),(8,344),(0,6);:_ZN6MAUtil11ListenerSetINS_19CustomEventListenerEED2Ev;2A.;__comp_dtor::(8,359):_ZN6MAUtil11ListenerSetINS_19CustomEventListenerEED1Ev;2A.;;",128,0,46,0
	.stabs	"Vector<MAUtil::ListenerSet<MAUtil::TextBoxListener>::Combo>:Tt(8,360)=s12mSize:/1(0,3),0,32;mCapacity:/1(0,3),32,32;mData:/1(8,361)=*(8,362)=xsCombo:,64,32;__base_ctor::(8,363)=#(8,360),(0,6),(8,364)=*(8,360),(0,3),(0,6);:_ZN6MAUtil6VectorINS_11ListenerSetINS_15TextBoxListenerEE5ComboEEC2Ei;2A.;__comp_ctor::(8,363):_ZN6MAUtil6VectorINS_11ListenerSetINS_15TextBoxListenerEE5ComboEEC1Ei;2A.;__base_ctor::(8,365)=#(8,360),(0,6),(8,364),(8,366)=*(8,367)=k(8,362),(0,3),(0,6);:_ZN6MAUtil6VectorINS_11ListenerSetINS_15TextBoxListenerEE5ComboEEC2EPKS4_i;2A.;__comp_ctor::(8,365):_ZN6MAUtil6VectorINS_11ListenerSetINS_15TextBoxListenerEE5ComboEEC1EPKS4_i;2A.;__base_ctor::(8,368)=#(8,360),(0,6),(8,364),(8,369)=&(8,370)=k(8,360),(0,6);:_ZN6MAUtil6VectorINS_11ListenerSetINS_15TextBoxListenerEE5ComboEEC2ERKS5_;2A.;__comp_ctor::(8,368):_ZN6MAUtil6VectorINS_11ListenerSetINS_15TextBoxListenerEE5ComboEEC1ERKS5_;2A.;__base_dtor::(8,371)=#(8,360),(0,6),(8,364),(0,6);:_ZN6MAUtil6VectorINS_11ListenerSetINS_15TextBoxListenerEE5ComboEED2Ev;2A.;__comp_dtor::(8,371):_ZN6MAUtil6VectorINS_11ListenerSetINS_15TextBoxListenerEE5ComboEED1Ev;2A.;operator=::(8,372)=#(8,360),(8,373)=&(8,360),(8,364),(8,369),(0,6);:_ZN6MAUtil6VectorINS_11ListenerSetINS_15TextBoxListenerEE5ComboEEaSERKS5_;2A.;add::(8,374)=#(8,360),(0,6),(8,364),(8,375)=&(8,367),(0,6);:_ZN6MAUtil6VectorINS_11ListenerSetINS_15TextBoxListenerEE5ComboEE3addERKS4_;2A.(8,365):_ZN6MAUtil6VectorINS_11ListenerSetINS_15TextBoxListenerEE5ComboEE3addEPKS4_i;2A.;remove::(8,376)=#(8,360),(0,6),(8,364),(8,361),(0,6);:_ZN6MAUtil6VectorINS_11ListenerSetINS_15TextBoxListenerEE5ComboEE6removeEPS4_;2A.(8,377)=#(8,360),(0,6),(8,364),(0,3),(0,6);:_ZN6MAUtil6VectorINS_11ListenerSetINS_15TextBoxListenerEE5ComboEE6removeEi;2A.(8,378)=#(8,360),(0,6),(8,364),(0,3),(0,3),(0,6);:_ZN6MAUtil6VectorINS_11ListenerSetINS_15TextBoxListenerEE5ComboEE6removeEii;2A.;insert::(8,379)=#(8,360),(0,6),(8,364),(0,3),(8,362),(0,6);:_ZN6MAUtil6VectorINS_11ListenerSetINS_15TextBoxListenerEE5ComboEE6insertEiS4_;2A.;size::(8,380)=#(8,360),(0,3),(8,381)=*(8,370),(0,6);:_ZNK6MAUtil6VectorINS_11ListenerSetINS_15TextBoxListenerEE5ComboEE4sizeEv;2B.;resize::(8,377):_ZN6MAUtil6VectorINS_11ListenerSetINS_15TextBoxListenerEE5ComboEE6resizeEi;2A.;reserve::(8,377):_ZN6MAUtil6VectorINS_11ListenerSetINS_15TextBoxListenerEE5ComboEE7reserveEi;2A.;clear::(8,371):_ZN6MAUtil6VectorINS_11ListenerSetINS_15TextBoxListenerEE5ComboEE5clearEv;2A.;empty::(8,382)=#(8,360),(0,4),(8,381),(0,6);:_ZNK6MAUtil6VectorINS_11ListenerSetINS_15TextBoxListenerEE5ComboEE5emptyEv;2B.;capacity::(8,380):_ZNK6MAUtil6VectorINS_11ListenerSetINS_15TextBoxListenerEE5ComboEE8capacityEv;2B.;begin::(8,383)=#(8,360),(8,361),(8,364),(0,6);:_ZN6MAUtil6VectorINS_11ListenerSetINS_15TextBoxListenerEE5ComboEE5beginEv;2A.;end::(8,383):_ZN6MAUtil6VectorINS_11ListenerSetINS_15TextBoxListenerEE5ComboEE3endEv;2A.;begin::(8,384)=#(8,360),(8,366),(8,381),(0,6);:_ZNK6MAUtil6VectorINS_11ListenerSetINS_15TextBoxListenerEE5ComboEE5beginEv;2B.;end::(8,384):_ZNK6MAUtil6VectorINS_11ListenerSetINS_15TextBoxListenerEE5ComboEE3endEv;2B.;operator[]::(8,385)=#(8,360),(8,386)=&(8,362),(8,364),(0,3),(0,6);:_ZN6MAUtil6VectorINS_11ListenerSetINS_15TextBoxListenerEE5ComboEEixEi;2A.(8,387)=#(8,360),(8,375),(8,381),(0,3),(0,6);:_ZNK6MAUtil6VectorINS_11ListenerSetINS_15TextBoxListenerEE5ComboEEixEi;2B.;pointer::(8,384):_ZNK6MAUtil6VectorINS_11ListenerSetINS_15TextBoxListenerEE5ComboEE7pointerEv;2B.(8,383):_ZN6MAUtil6VectorINS_11ListenerSetINS_15TextBoxListenerEE5ComboEE7pointerEv;2A.;;",128,0,95,0
	.stabs	"ListenerSet<MAUtil::TextBoxListener>:Tt(8,388)=s16mRunning:/0(0,4),0,8;mUpdateRequired:/0(0,4),8,8;mShouldDelete:/0(0,4),16,8;mVec:/0(8,360),32,96;__base_ctor::(8,389)=#(8,388),(0,6),(8,390)=*(8,388),(0,4),(0,6);:_ZN6MAUtil11ListenerSetINS_15TextBoxListenerEEC2Eb;2A.;__comp_ctor::(8,389):_ZN6MAUtil11ListenerSetINS_15TextBoxListenerEEC1Eb;2A.;begin::(8,391)=#(8,388),(8,392)=xsiterator:,(8,390),(0,6);:_ZN6MAUtil11ListenerSetINS_15TextBoxListenerEE5beginEv;2A.;add::(8,393)=#(8,388),(0,6),(8,390),(8,394)=*(8,395)=xsTextBoxListener:,(0,6);:_ZN6MAUtil11ListenerSetINS_15TextBoxListenerEE3addEPS1_;2A.;remove::(8,393):_ZN6MAUtil11ListenerSetINS_15TextBoxListenerEE6removeEPS1_;2A.;contains::(8,396)=#(8,388),(0,4),(8,390),(8,394),(0,6);:_ZN6MAUtil11ListenerSetINS_15TextBoxListenerEE8containsEPS1_;2A.;setRunning::(8,397)=#(8,388),(0,6),(8,390),(0,4),(0,6);:_ZN6MAUtil11ListenerSetINS_15TextBoxListenerEE10setRunningEb;2A.;size::(8,398)=#(8,388),(0,3),(8,399)=*(8,400)=k(8,388),(0,6);:_ZNK6MAUtil11ListenerSetINS_15TextBoxListenerEE4sizeEv;2B.;operator=::(8,401)=#(8,388),(8,402)=&(8,388),(8,390),(8,403)=&(8,400),(0,6);:_ZN6MAUtil11ListenerSetINS_15TextBoxListenerEEaSERKS2_;2A.;__base_ctor::(8,404)=#(8,388),(0,6),(8,390),(8,403),(0,6);:_ZN6MAUtil11ListenerSetINS_15TextBoxListenerEEC2ERKS2_;2A.;__comp_ctor::(8,404):_ZN6MAUtil11ListenerSetINS_15TextBoxListenerEEC1ERKS2_;2A.;__base_dtor::(8,405)=#(8,388),(0,6),(8,390),(0,6);:_ZN6MAUtil11ListenerSetINS_15TextBoxListenerEED2Ev;2A.;__comp_dtor::(8,405):_ZN6MAUtil11ListenerSetINS_15TextBoxListenerEED1Ev;2A.;;",128,0,46,0
	.stabs	"Vector<MAUtil::ListenerSet<MAUtil::SensorListener>::Combo>:Tt(8,406)=s12mSize:/1(0,3),0,32;mCapacity:/1(0,3),32,32;mData:/1(8,407)=*(8,408)=xsCombo:,64,32;__base_ctor::(8,409)=#(8,406),(0,6),(8,410)=*(8,406),(0,3),(0,6);:_ZN6MAUtil6VectorINS_11ListenerSetINS_14SensorListenerEE5ComboEEC2Ei;2A.;__comp_ctor::(8,409):_ZN6MAUtil6VectorINS_11ListenerSetINS_14SensorListenerEE5ComboEEC1Ei;2A.;__base_ctor::(8,411)=#(8,406),(0,6),(8,410),(8,412)=*(8,413)=k(8,408),(0,3),(0,6);:_ZN6MAUtil6VectorINS_11ListenerSetINS_14SensorListenerEE5ComboEEC2EPKS4_i;2A.;__comp_ctor::(8,411):_ZN6MAUtil6VectorINS_11ListenerSetINS_14SensorListenerEE5ComboEEC1EPKS4_i;2A.;__base_ctor::(8,414)=#(8,406),(0,6),(8,410),(8,415)=&(8,416)=k(8,406),(0,6);:_ZN6MAUtil6VectorINS_11ListenerSetINS_14SensorListenerEE5ComboEEC2ERKS5_;2A.;__comp_ctor::(8,414):_ZN6MAUtil6VectorINS_11ListenerSetINS_14SensorListenerEE5ComboEEC1ERKS5_;2A.;__base_dtor::(8,417)=#(8,406),(0,6),(8,410),(0,6);:_ZN6MAUtil6VectorINS_11ListenerSetINS_14SensorListenerEE5ComboEED2Ev;2A.;__comp_dtor::(8,417):_ZN6MAUtil6VectorINS_11ListenerSetINS_14SensorListenerEE5ComboEED1Ev;2A.;operator=::(8,418)=#(8,406),(8,419)=&(8,406),(8,410),(8,415),(0,6);:_ZN6MAUtil6VectorINS_11ListenerSetINS_14SensorListenerEE5ComboEEaSERKS5_;2A.;add::(8,420)=#(8,406),(0,6),(8,410),(8,421)=&(8,413),(0,6);:_ZN6MAUtil6VectorINS_11ListenerSetINS_14SensorListenerEE5ComboEE3addERKS4_;2A.(8,411):_ZN6MAUtil6VectorINS_11ListenerSetINS_14SensorListenerEE5ComboEE3addEPKS4_i;2A.;remove::(8,422)=#(8,406),(0,6),(8,410),(8,407),(0,6);:_ZN6MAUtil6VectorINS_11ListenerSetINS_14SensorListenerEE5ComboEE6removeEPS4_;2A.(8,423)=#(8,406),(0,6),(8,410),(0,3),(0,6);:_ZN6MAUtil6VectorINS_11ListenerSetINS_14SensorListenerEE5ComboEE6removeEi;2A.(8,424)=#(8,406),(0,6),(8,410),(0,3),(0,3),(0,6);:_ZN6MAUtil6VectorINS_11ListenerSetINS_14SensorListenerEE5ComboEE6removeEii;2A.;insert::(8,425)=#(8,406),(0,6),(8,410),(0,3),(8,408),(0,6);:_ZN6MAUtil6VectorINS_11ListenerSetINS_14SensorListenerEE5ComboEE6insertEiS4_;2A.;size::(8,426)=#(8,406),(0,3),(8,427)=*(8,416),(0,6);:_ZNK6MAUtil6VectorINS_11ListenerSetINS_14SensorListenerEE5ComboEE4sizeEv;2B.;resize::(8,423):_ZN6MAUtil6VectorINS_11ListenerSetINS_14SensorListenerEE5ComboEE6resizeEi;2A.;reserve::(8,423):_ZN6MAUtil6VectorINS_11ListenerSetINS_14SensorListenerEE5ComboEE7reserveEi;2A.;clear::(8,417):_ZN6MAUtil6VectorINS_11ListenerSetINS_14SensorListenerEE5ComboEE5clearEv;2A.;empty::(8,428)=#(8,406),(0,4),(8,427),(0,6);:_ZNK6MAUtil6VectorINS_11ListenerSetINS_14SensorListenerEE5ComboEE5emptyEv;2B.;capacity::(8,426):_ZNK6MAUtil6VectorINS_11ListenerSetINS_14SensorListenerEE5ComboEE8capacityEv;2B.;begin::(8,429)=#(8,406),(8,407),(8,410),(0,6);:_ZN6MAUtil6VectorINS_11ListenerSetINS_14SensorListenerEE5ComboEE5beginEv;2A.;end::(8,429):_ZN6MAUtil6VectorINS_11ListenerSetINS_14SensorListenerEE5ComboEE3endEv;2A.;begin::(8,430)=#(8,406),(8,412),(8,427),(0,6);:_ZNK6MAUtil6VectorINS_11ListenerSetINS_14SensorListenerEE5ComboEE5beginEv;2B.;end::(8,430):_ZNK6MAUtil6VectorINS_11ListenerSetINS_14SensorListenerEE5ComboEE3endEv;2B.;operator[]::(8,431)=#(8,406),(8,432)=&(8,408),(8,410),(0,3),(0,6);:_ZN6MAUtil6VectorINS_11ListenerSetINS_14SensorListenerEE5ComboEEixEi;2A.(8,433)=#(8,406),(8,421),(8,427),(0,3),(0,6);:_ZNK6MAUtil6VectorINS_11ListenerSetINS_14SensorListenerEE5ComboEEixEi;2B.;pointer::(8,430):_ZNK6MAUtil6VectorINS_11ListenerSetINS_14SensorListenerEE5ComboEE7pointerEv;2B.(8,429):_ZN6MAUtil6VectorINS_11ListenerSetINS_14SensorListenerEE5ComboEE7pointerEv;2A.;;",128,0,95,0
	.stabs	"ListenerSet<MAUtil::SensorListener>:Tt(8,434)=s16mRunning:/0(0,4),0,8;mUpdateRequired:/0(0,4),8,8;mShouldDelete:/0(0,4),16,8;mVec:/0(8,406),32,96;__base_ctor::(8,435)=#(8,434),(0,6),(8,436)=*(8,434),(0,4),(0,6);:_ZN6MAUtil11ListenerSetINS_14SensorListenerEEC2Eb;2A.;__comp_ctor::(8,435):_ZN6MAUtil11ListenerSetINS_14SensorListenerEEC1Eb;2A.;begin::(8,437)=#(8,434),(8,438)=xsiterator:,(8,436),(0,6);:_ZN6MAUtil11ListenerSetINS_14SensorListenerEE5beginEv;2A.;add::(8,439)=#(8,434),(0,6),(8,436),(8,440)=*(8,441)=xsSensorListener:,(0,6);:_ZN6MAUtil11ListenerSetINS_14SensorListenerEE3addEPS1_;2A.;remove::(8,439):_ZN6MAUtil11ListenerSetINS_14SensorListenerEE6removeEPS1_;2A.;contains::(8,442)=#(8,434),(0,4),(8,436),(8,440),(0,6);:_ZN6MAUtil11ListenerSetINS_14SensorListenerEE8containsEPS1_;2A.;setRunning::(8,443)=#(8,434),(0,6),(8,436),(0,4),(0,6);:_ZN6MAUtil11ListenerSetINS_14SensorListenerEE10setRunningEb;2A.;size::(8,444)=#(8,434),(0,3),(8,445)=*(8,446)=k(8,434),(0,6);:_ZNK6MAUtil11ListenerSetINS_14SensorListenerEE4sizeEv;2B.;operator=::(8,447)=#(8,434),(8,448)=&(8,434),(8,436),(8,449)=&(8,446),(0,6);:_ZN6MAUtil11ListenerSetINS_14SensorListenerEEaSERKS2_;2A.;__base_ctor::(8,450)=#(8,434),(0,6),(8,436),(8,449),(0,6);:_ZN6MAUtil11ListenerSetINS_14SensorListenerEEC2ERKS2_;2A.;__comp_ctor::(8,450):_ZN6MAUtil11ListenerSetINS_14SensorListenerEEC1ERKS2_;2A.;__base_dtor::(8,451)=#(8,434),(0,6),(8,436),(0,6);:_ZN6MAUtil11ListenerSetINS_14SensorListenerEED2Ev;2A.;__comp_dtor::(8,451):_ZN6MAUtil11ListenerSetINS_14SensorListenerEED1Ev;2A.;;",128,0,46,0
	.stabn	162,0,0,0
	.stabn	162,0,0,0
	.stabs	"c:/MoSync/include/conprint.h",130,0,0,0
	.stabs	"c:/MoSync/include/maarg.h",130,0,0,0
	.stabs	"__gnuc_va_list:t(10,1)=(0,20)",128,0,34,0
	.stabs	"va_list:t(10,2)=(10,1)",128,0,35,0
	.stabn	162,0,0,0
	.stabn	162,0,0,0
	.stabs	"c:/MoSync/include/NativeUI/Widgets.h",130,0,0,0
	.stabs	"c:/MoSync/include/NativeUI/ActivityIndicator.h",130,0,0,0
	.stabs	"c:/MoSync/include/NativeUI/Widget.h",130,0,0,0
	.stabs	"c:/MoSync/include/MAUtil/Map.h",130,0,0,0
	.stabs	"c:/MoSync/include/MAUtil/Dictionary.h",130,0,0,0
	.stabs	"c:/MoSync/include/kazlib/dict.h",130,0,0,0
	.stabs	"dictcount_t:t(16,1)=(0,16)",128,0,39,0
	.stabs	"dnode_color_t:t(16,2)=ednode_red:0,dnode_black:1,;",128,0,46,0
	.stabs	"dnode_t:Tt(16,3)=s24dict_left:(16,4)=*(16,3),0,32;dict_right:(16,4),32,32;dict_parent:(16,4),64,32;dict_color:(16,2),96,32;dict_key:(16,5)=*(16,6)=k(0,6),128,32;dict_data:(3,9),160,32;operator=::(16,7)=#(16,3),(16,8)=&(16,3),(16,4),(16,9)=&(16,10)=k(16,3),(0,6);:_ZN7dnode_taSERKS_;2A.;__base_ctor::(16,11)=#(16,3),(0,6),(16,4),(16,9),(0,6);:_ZN7dnode_tC2ERKS_;2A.;__comp_ctor::(16,11):_ZN7dnode_tC1ERKS_;2A.;__base_ctor::(16,12)=#(16,3),(0,6),(16,4),(0,6);:_ZN7dnode_tC2Ev;2A.;__comp_ctor::(16,12):_ZN7dnode_tC1Ev;2A.;;",128,0,48,0
	.stabs	"dnode_t:t(16,13)=(16,3)",128,0,59,0
	.stabs	"dict_comp_t:t(16,14)=(16,15)=*(16,16)=f(0,3)",128,0,61,0
	.stabs	"dnode_alloc_t:t(16,17)=(16,18)=*(16,19)=f(16,20)=*(16,13)",128,0,62,0
	.stabs	"dnode_free_t:t(16,21)=(16,22)=*(16,23)=f(0,6)",128,0,63,0
	.stabs	"dict_t:Tt(16,24)=s52dict_nilnode:(16,13),0,192;dict_nodecount:(16,1),192,32;dict_maxcount:(16,1),224,32;dict_compare:(16,14),256,32;dict_allocnode:(16,17),288,32;dict_freenode:(16,21),320,32;dict_context:(3,9),352,32;dict_dupes:(0,3),384,32;operator=::(16,25)=#(16,24),(16,26)=&(16,24),(16,27)=*(16,24),(16,28)=&(16,29)=k(16,24),(0,6);:_ZN6dict_taSERKS_;2A.;__base_ctor::(16,30)=#(16,24),(0,6),(16,27),(16,28),(0,6);:_ZN6dict_tC2ERKS_;2A.;__comp_ctor::(16,30):_ZN6dict_tC1ERKS_;2A.;__base_ctor::(16,31)=#(16,24),(0,6),(16,27),(0,6);:_ZN6dict_tC2Ev;2A.;__comp_ctor::(16,31):_ZN6dict_tC1Ev;2A.;;",128,0,65,0
	.stabs	"dict_t:t(16,32)=(16,24)",128,0,78,0
	.stabs	"dnode_process_t:t(16,33)=(16,34)=*(16,35)=f(0,6)",128,0,80,0
	.stabs	"dict_load_t:Tt(16,36)=s28dict_dictptr:(16,37)=*(16,32),0,32;dict_nilnode:(16,13),32,192;operator=::(16,38)=#(16,36),(16,39)=&(16,36),(16,40)=*(16,36),(16,41)=&(16,42)=k(16,36),(0,6);:_ZN11dict_load_taSERKS_;2A.;__base_ctor::(16,43)=#(16,36),(0,6),(16,40),(16,41),(0,6);:_ZN11dict_load_tC2ERKS_;2A.;__comp_ctor::(16,43):_ZN11dict_load_tC1ERKS_;2A.;__base_ctor::(16,44)=#(16,36),(0,6),(16,40),(0,6);:_ZN11dict_load_tC2Ev;2A.;__comp_ctor::(16,44):_ZN11dict_load_tC1Ev;2A.;;",128,0,82,0
	.stabs	"dict_load_t:t(16,45)=(16,36)",128,0,89,0
	.stabn	162,0,0,0
	.stabn	162,0,0,0
	.stabn	162,0,0,0
	.stabs	"c:/MoSync/include/IX_WIDGET.h",130,0,0,0
	.stabs	"MAWidgetHandle:t(17,1)=(0,3)",128,0,9,0
	.stabs	"MAWidgetEventData:Tt(17,2)=s20eventType:(0,3),0,32;widgetHandle:(17,1),32,32;:(17,3)=u12listItemIndex:(0,3),0,32;:(17,4)=s8sectionIndex:(0,3),0,32;sectionItemIndex:(0,3),32,32;;,0,64;searchBarButton:(0,3),0,32;checked:(0,3),0,32;tabIndex:(0,3),0,32;status:(0,3),0,32;:(17,5)=s8hookType:(0,3),0,32;urlData:(3,10),32,32;;,0,64;:(17,6)=s8fromScreen:(17,1),0,32;toScreen:(17,1),32,32;;,0,64;sliderValue:(0,3),0,32;:(17,7)=s12dayOfMonth:(0,3),0,32;month:(0,3),32,32;year:(0,3),64,32;;,0,96;:(17,8)=s8hour:(0,3),0,32;minute:(0,3),32,32;;,0,64;numberPickerValue:(0,3),0,32;videoViewState:(0,3),0,32;optionDialogButtonIndex:(0,3),0,32;:(17,9)=s8value:(0,9),0,32;fromUser:(0,3),32,32;;,0,64;radioGroupItemHandle:(0,3),0,32;radioButtonState:(0,3),0,32;optionsMenuItem:(0,3),0,32;mapPinIndex:(0,3),0,32;;,64,96;operator=::(17,10)=#(17,2),(17,11)=&(17,2),(17,12)=*(17,2),(17,13)=&(17,14)=k(17,2),(0,6);:_ZN17MAWidgetEventDataaSERKS_;2A.;__base_ctor::(17,15)=#(17,2),(0,6),(17,12),(17,13),(0,6);:_ZN17MAWidgetEventDataC2ERKS_;2A.;__comp_ctor::(17,15):_ZN17MAWidgetEventDataC1ERKS_;2A.;__base_ctor::(17,16)=#(17,2),(0,6),(17,12),(0,6);:_ZN17MAWidgetEventDataC2Ev;2A.;__comp_ctor::(17,16):_ZN17MAWidgetEventDataC1Ev;2A.;;",128,0,4629,0
	.stabs	"MAWidgetEventData:t(17,17)=(17,2)",128,0,4807,0
	.stabn	162,0,0,0
	.stabs	"BasicString<char>:Tt(5,2)=s4sd:/1(13,1)=*(13,2)=xsStringData<char>:,0,32;__base_ctor::(13,3)=#(5,2),(0,6),(13,4)=*(5,2),(0,6);:_ZN6MAUtil11BasicStringIcEC2Ev;2A.;__comp_ctor::(13,3):_ZN6MAUtil11BasicStringIcEC1Ev;2A.;__base_ctor::(13,5)=#(5,2),(0,6),(13,4),(0,3),(0,6);:_ZN6MAUtil11BasicStringIcEC2Ei;2A.;__comp_ctor::(13,5):_ZN6MAUtil11BasicStringIcEC1Ei;2A.;__base_ctor::(13,6)=#(5,2),(0,6),(13,4),(13,7)=*(13,8)=k(0,19),(0,6);:_ZN6MAUtil11BasicStringIcEC2EPKc;2A.;__comp_ctor::(13,6):_ZN6MAUtil11BasicStringIcEC1EPKc;2A.;__base_ctor::(13,9)=#(5,2),(0,6),(13,4),(13,7),(0,3),(0,6);:_ZN6MAUtil11BasicStringIcEC2EPKci;2A.;__comp_ctor::(13,9):_ZN6MAUtil11BasicStringIcEC1EPKci;2A.;__base_ctor::(13,10)=#(5,2),(0,6),(13,4),(13,11)=&(13,12)=k(5,2),(0,6);:_ZN6MAUtil11BasicStringIcEC2ERKS1_;2A.;__comp_ctor::(13,10):_ZN6MAUtil11BasicStringIcEC1ERKS1_;2A.;c_str::(13,13)=#(5,2),(13,7),(13,14)=*(13,12),(0,6);:_ZNK6MAUtil11BasicStringIcE5c_strEv;2B.;operator=::(13,15)=#(5,2),(13,16)=&(5,2),(13,4),(13,11),(0,6);:_ZN6MAUtil11BasicStringIcEaSERKS1_;2A.;operator[]::(13,17)=#(5,2),(13,18)=&(0,19),(13,4),(0,3),(0,6);:_ZN6MAUtil11BasicStringIcEixEi;2A.(13,19)=#(5,2),(13,20)=&(13,8),(13,14),(0,3),(0,6);:_ZNK6MAUtil11BasicStringIcEixEi;2B.;operator==::(13,21)=#(5,2),(0,4),(13,14),(13,11),(0,6);:_ZNK6MAUtil11BasicStringIcEeqERKS1_;2B.;operator!=::(13,21):_ZNK6MAUtil11BasicStringIcEneERKS1_;2B.;operator<::(13,21):_ZNK6MAUtil11BasicStringIcEltERKS1_;2B.;operator>::(13,21):_ZNK6MAUtil11BasicStringIcEgtERKS1_;2B.;operator<=::(13,21):_ZNK6MAUtil11BasicStringIcEleERKS1_;2B.;operator>=::(13,21):_ZNK6MAUtil11BasicStringIcEgeERKS1_;2B.;operator+::(13,22)=#(5,2),(5,2),(13,14),(13,11),(0,6);:_ZNK6MAUtil11BasicStringIcEplERKS1_;2B.;operator+=::(13,15):_ZN6MAUtil11BasicStringIcEpLERKS1_;2A.;operator+::(13,23)=#(5,2),(5,2),(13,14),(0,19),(0,6);:_ZNK6MAUtil11BasicStringIcEplEc;2B.;operator+=::(13,24)=#(5,2),(13,16),(13,4),(0,19),(0,6);:_ZN6MAUtil11BasicStringIcEpLEc;2A.;find::(13,25)=#(5,2),(0,3),(13,14),(13,11),(0,17),(0,6);:_ZNK6MAUtil11BasicStringIcE4findERKS1_j;2B.;findLastOf::(13,26)=#(5,2),(0,3),(13,14),(0,19),(0,6);:_ZNK6MAUtil11BasicStringIcE10findLastOfEc;2B.;findFirstOf::(13,27)=#(5,2),(0,3),(13,14),(0,19),(0,3),(0,6);:_ZNK6MAUtil11BasicStringIcE11findFirstOfEci;2B.;findFirstNotOf::(13,27):_ZNK6MAUtil11BasicStringIcE14findFirstNotOfEci;2B.;insert::(13,28)=#(5,2),(0,6),(13,4),(0,3),(13,11),(0,6);:_ZN6MAUtil11BasicStringIcE6insertEiRKS1_;2A.(13,29)=#(5,2),(0,6),(13,4),(0,3),(0,19),(0,6);:_ZN6MAUtil11BasicStringIcE6insertEic;2A.;remove::(13,30)=#(5,2),(0,6),(13,4),(0,3),(0,3),(0,6);:_ZN6MAUtil11BasicStringIcE6removeEii;2A.;substr::(13,31)=#(5,2),(5,2),(13,14),(0,3),(0,3),(0,6);:_ZNK6MAUtil11BasicStringIcE6substrEii;2B.;capacity::(13,32)=#(5,2),(0,3),(13,14),(0,6);:_ZNK6MAUtil11BasicStringIcE8capacityEv;2B.;size::(13,32):_ZNK6MAUtil11BasicStringIcE4sizeEv;2B.;length::(13,32):_ZNK6MAUtil11BasicStringIcE6lengthEv;2B.;resize::(13,5):_ZN6MAUtil11BasicStringIcE6resizeEi;2A.;reserve::(13,5):_ZN6MAUtil11BasicStringIcE7reserveEi;2A.;clear::(13,3):_ZN6MAUtil11BasicStringIcE5clearEv;2A.;append::(13,9):_ZN6MAUtil11BasicStringIcE6appendEPKci;2A.;setData::(13,33)=#(5,2),(0,6),(13,4),(13,1),(0,6);:_ZN6MAUtil11BasicStringIcE7setDataEPNS_10StringDataIcEE;2A.;pointer::(13,34)=#(5,2),(3,5),(13,4),(0,6);:_ZN6MAUtil11BasicStringIcE7pointerEv;2A.(13,13):_ZNK6MAUtil11BasicStringIcE7pointerEv;2B.;__base_dtor::(13,3):_ZN6MAUtil11BasicStringIcED2Ev;2A.;__comp_dtor::(13,3):_ZN6MAUtil11BasicStringIcED1Ev;2A.;allocStringData::(13,9):_ZN6MAUtil11BasicStringIcE15allocStringDataEPKci;1A.;;",128,0,104,0
	.stabs	"LastError:Tt(13,35)=s8errorCause:(5,1),0,32;errorCode:(0,3),32,32;__base_ctor::(13,36)=#(13,35),(0,6),(13,37)=*(13,35),(13,38)=&(13,39)=k(5,1),(0,3),(0,6);:_ZN8NativeUI9LastErrorC2ERKN6MAUtil11BasicStringIcEEi;2A.;__comp_ctor::(13,36):_ZN8NativeUI9LastErrorC1ERKN6MAUtil11BasicStringIcEEi;2A.;__base_ctor::(13,40)=#(13,35),(0,6),(13,37),(0,6);:_ZN8NativeUI9LastErrorC2Ev;2A.;__comp_ctor::(13,40):_ZN8NativeUI9LastErrorC1Ev;2A.;operator=::(13,41)=#(13,35),(13,42)=&(13,35),(13,37),(13,43)=&(13,44)=k(13,35),(0,6);:_ZN8NativeUI9LastErroraSERKS0_;2A.;__base_ctor::(13,45)=#(13,35),(0,6),(13,37),(13,43),(0,6);:_ZN8NativeUI9LastErrorC2ERKS0_;2A.;__comp_ctor::(13,45):_ZN8NativeUI9LastErrorC1ERKS0_;2A.;__base_dtor::(13,40):_ZN8NativeUI9LastErrorD2Ev;2A.;__comp_dtor::(13,40):_ZN8NativeUI9LastErrorD1Ev;2A.;;",128,0,78,0
	.stabs	"Vector<NativeUI::WidgetEventListener*>:Tt(13,46)=s12mSize:/1(0,3),0,32;mCapacity:/1(0,3),32,32;mData:/1(13,47)=*(13,48)=*(13,49)=xsWidgetEventListener:,64,32;__base_ctor::(13,50)=#(13,46),(0,6),(13,51)=*(13,46),(0,3),(0,6);:_ZN6MAUtil6VectorIPN8NativeUI19WidgetEventListenerEEC2Ei;2A.;__comp_ctor::(13,50):_ZN6MAUtil6VectorIPN8NativeUI19WidgetEventListenerEEC1Ei;2A.;__base_ctor::(13,52)=#(13,46),(0,6),(13,51),(13,53)=*(13,54)=k(13,48),(0,3),(0,6);:_ZN6MAUtil6VectorIPN8NativeUI19WidgetEventListenerEEC2EPKS3_i;2A.;__comp_ctor::(13,52):_ZN6MAUtil6VectorIPN8NativeUI19WidgetEventListenerEEC1EPKS3_i;2A.;__base_ctor::(13,55)=#(13,46),(0,6),(13,51),(13,56)=&(13,57)=k(13,46),(0,6);:_ZN6MAUtil6VectorIPN8NativeUI19WidgetEventListenerEEC2ERKS4_;2A.;__comp_ctor::(13,55):_ZN6MAUtil6VectorIPN8NativeUI19WidgetEventListenerEEC1ERKS4_;2A.;__base_dtor::(13,58)=#(13,46),(0,6),(13,51),(0,6);:_ZN6MAUtil6VectorIPN8NativeUI19WidgetEventListenerEED2Ev;2A.;__comp_dtor::(13,58):_ZN6MAUtil6VectorIPN8NativeUI19WidgetEventListenerEED1Ev;2A.;operator=::(13,59)=#(13,46),(13,60)=&(13,46),(13,51),(13,56),(0,6);:_ZN6MAUtil6VectorIPN8NativeUI19WidgetEventListenerEEaSERKS4_;2A.;add::(13,61)=#(13,46),(0,6),(13,51),(13,62)=&(13,54),(0,6);:_ZN6MAUtil6VectorIPN8NativeUI19WidgetEventListenerEE3addERKS3_;2A.(13,52):_ZN6MAUtil6VectorIPN8NativeUI19WidgetEventListenerEE3addEPKS3_i;2A.;remove::(13,63)=#(13,46),(0,6),(13,51),(13,47),(0,6);:_ZN6MAUtil6VectorIPN8NativeUI19WidgetEventListenerEE6removeEPS3_;2A.(13,64)=#(13,46),(0,6),(13,51),(0,3),(0,6);:_ZN6MAUtil6VectorIPN8NativeUI19WidgetEventListenerEE6removeEi;2A.(13,65)=#(13,46),(0,6),(13,51),(0,3),(0,3),(0,6);:_ZN6MAUtil6VectorIPN8NativeUI19WidgetEventListenerEE6removeEii;2A.;insert::(13,66)=#(13,46),(0,6),(13,51),(0,3),(13,48),(0,6);:_ZN6MAUtil6VectorIPN8NativeUI19WidgetEventListenerEE6insertEiS3_;2A.;size::(13,67)=#(13,46),(0,3),(13,68)=*(13,57),(0,6);:_ZNK6MAUtil6VectorIPN8NativeUI19WidgetEventListenerEE4sizeEv;2B.;resize::(13,64):_ZN6MAUtil6VectorIPN8NativeUI19WidgetEventListenerEE6resizeEi;2A.;reserve::(13,64):_ZN6MAUtil6VectorIPN8NativeUI19WidgetEventListenerEE7reserveEi;2A.;clear::(13,58):_ZN6MAUtil6VectorIPN8NativeUI19WidgetEventListenerEE5clearEv;2A.;empty::(13,69)=#(13,46),(0,4),(13,68),(0,6);:_ZNK6MAUtil6VectorIPN8NativeUI19WidgetEventListenerEE5emptyEv;2B.;capacity::(13,67):_ZNK6MAUtil6VectorIPN8NativeUI19WidgetEventListenerEE8capacityEv;2B.;begin::(13,70)=#(13,46),(13,47),(13,51),(0,6);:_ZN6MAUtil6VectorIPN8NativeUI19WidgetEventListenerEE5beginEv;2A.;end::(13,70):_ZN6MAUtil6VectorIPN8NativeUI19WidgetEventListenerEE3endEv;2A.;begin::(13,71)=#(13,46),(13,53),(13,68),(0,6);:_ZNK6MAUtil6VectorIPN8NativeUI19WidgetEventListenerEE5beginEv;2B.;end::(13,71):_ZNK6MAUtil6VectorIPN8NativeUI19WidgetEventListenerEE3endEv;2B.;operator[]::(13,72)=#(13,46),(13,73)=&(13,48),(13,51),(0,3),(0,6);:_ZN6MAUtil6VectorIPN8NativeUI19WidgetEventListenerEEixEi;2A.(13,74)=#(13,46),(13,62),(13,68),(0,3),(0,6);:_ZNK6MAUtil6VectorIPN8NativeUI19WidgetEventListenerEEixEi;2B.;pointer::(13,71):_ZNK6MAUtil6VectorIPN8NativeUI19WidgetEventListenerEE7pointerEv;2B.(13,70):_ZN6MAUtil6VectorIPN8NativeUI19WidgetEventListenerEE7pointerEv;2A.;;",128,0,95,0
	.stabs	"Vector<NativeUI::Widget*>:Tt(13,75)=s12mSize:/1(0,3),0,32;mCapacity:/1(0,3),32,32;mData:/1(13,76)=*(13,77)=*(13,78)=xsWidget:,64,32;__base_ctor::(13,79)=#(13,75),(0,6),(13,80)=*(13,75),(0,3),(0,6);:_ZN6MAUtil6VectorIPN8NativeUI6WidgetEEC2Ei;2A.;__comp_ctor::(13,79):_ZN6MAUtil6VectorIPN8NativeUI6WidgetEEC1Ei;2A.;__base_ctor::(13,81)=#(13,75),(0,6),(13,80),(13,82)=*(13,83)=k(13,77),(0,3),(0,6);:_ZN6MAUtil6VectorIPN8NativeUI6WidgetEEC2EPKS3_i;2A.;__comp_ctor::(13,81):_ZN6MAUtil6VectorIPN8NativeUI6WidgetEEC1EPKS3_i;2A.;__base_ctor::(13,84)=#(13,75),(0,6),(13,80),(13,85)=&(13,86)=k(13,75),(0,6);:_ZN6MAUtil6VectorIPN8NativeUI6WidgetEEC2ERKS4_;2A.;__comp_ctor::(13,84):_ZN6MAUtil6VectorIPN8NativeUI6WidgetEEC1ERKS4_;2A.;__base_dtor::(13,87)=#(13,75),(0,6),(13,80),(0,6);:_ZN6MAUtil6VectorIPN8NativeUI6WidgetEED2Ev;2A.;__comp_dtor::(13,87):_ZN6MAUtil6VectorIPN8NativeUI6WidgetEED1Ev;2A.;operator=::(13,88)=#(13,75),(13,89)=&(13,75),(13,80),(13,85),(0,6);:_ZN6MAUtil6VectorIPN8NativeUI6WidgetEEaSERKS4_;2A.;add::(13,90)=#(13,75),(0,6),(13,80),(13,91)=&(13,83),(0,6);:_ZN6MAUtil6VectorIPN8NativeUI6WidgetEE3addERKS3_;2A.(13,81):_ZN6MAUtil6VectorIPN8NativeUI6WidgetEE3addEPKS3_i;2A.;remove::(13,92)=#(13,75),(0,6),(13,80),(13,76),(0,6);:_ZN6MAUtil6VectorIPN8NativeUI6WidgetEE6removeEPS3_;2A.(13,93)=#(13,75),(0,6),(13,80),(0,3),(0,6);:_ZN6MAUtil6VectorIPN8NativeUI6WidgetEE6removeEi;2A.(13,94)=#(13,75),(0,6),(13,80),(0,3),(0,3),(0,6);:_ZN6MAUtil6VectorIPN8NativeUI6WidgetEE6removeEii;2A.;insert::(13,95)=#(13,75),(0,6),(13,80),(0,3),(13,77),(0,6);:_ZN6MAUtil6VectorIPN8NativeUI6WidgetEE6insertEiS3_;2A.;size::(13,96)=#(13,75),(0,3),(13,97)=*(13,86),(0,6);:_ZNK6MAUtil6VectorIPN8NativeUI6WidgetEE4sizeEv;2B.;resize::(13,93):_ZN6MAUtil6VectorIPN8NativeUI6WidgetEE6resizeEi;2A.;reserve::(13,93):_ZN6MAUtil6VectorIPN8NativeUI6WidgetEE7reserveEi;2A.;clear::(13,87):_ZN6MAUtil6VectorIPN8NativeUI6WidgetEE5clearEv;2A.;empty::(13,98)=#(13,75),(0,4),(13,97),(0,6);:_ZNK6MAUtil6VectorIPN8NativeUI6WidgetEE5emptyEv;2B.;capacity::(13,96):_ZNK6MAUtil6VectorIPN8NativeUI6WidgetEE8capacityEv;2B.;begin::(13,99)=#(13,75),(13,76),(13,80),(0,6);:_ZN6MAUtil6VectorIPN8NativeUI6WidgetEE5beginEv;2A.;end::(13,99):_ZN6MAUtil6VectorIPN8NativeUI6WidgetEE3endEv;2A.;begin::(13,100)=#(13,75),(13,82),(13,97),(0,6);:_ZNK6MAUtil6VectorIPN8NativeUI6WidgetEE5beginEv;2B.;end::(13,100):_ZNK6MAUtil6VectorIPN8NativeUI6WidgetEE3endEv;2B.;operator[]::(13,101)=#(13,75),(13,102)=&(13,77),(13,80),(0,3),(0,6);:_ZN6MAUtil6VectorIPN8NativeUI6WidgetEEixEi;2A.(13,103)=#(13,75),(13,91),(13,97),(0,3),(0,6);:_ZNK6MAUtil6VectorIPN8NativeUI6WidgetEEixEi;2B.;pointer::(13,100):_ZNK6MAUtil6VectorIPN8NativeUI6WidgetEE7pointerEv;2B.(13,99):_ZN6MAUtil6VectorIPN8NativeUI6WidgetEE7pointerEv;2A.;;",128,0,95,0
	.stabn	162,0,0,0
	.stabn	162,0,0,0
	.stabs	"c:/MoSync/include/NativeUI/Button.h",130,0,0,0
	.stabs	"c:/MoSync/include/NativeUI/TextWidget.h",130,0,0,0
	.stabn	162,0,0,0
	.stabs	"Vector<NativeUI::ButtonListener*>:Tt(18,1)=s12mSize:/1(0,3),0,32;mCapacity:/1(0,3),32,32;mData:/1(18,2)=*(18,3)=*(18,4)=xsButtonListener:,64,32;__base_ctor::(18,5)=#(18,1),(0,6),(18,6)=*(18,1),(0,3),(0,6);:_ZN6MAUtil6VectorIPN8NativeUI14ButtonListenerEEC2Ei;2A.;__comp_ctor::(18,5):_ZN6MAUtil6VectorIPN8NativeUI14ButtonListenerEEC1Ei;2A.;__base_ctor::(18,7)=#(18,1),(0,6),(18,6),(18,8)=*(18,9)=k(18,3),(0,3),(0,6);:_ZN6MAUtil6VectorIPN8NativeUI14ButtonListenerEEC2EPKS3_i;2A.;__comp_ctor::(18,7):_ZN6MAUtil6VectorIPN8NativeUI14ButtonListenerEEC1EPKS3_i;2A.;__base_ctor::(18,10)=#(18,1),(0,6),(18,6),(18,11)=&(18,12)=k(18,1),(0,6);:_ZN6MAUtil6VectorIPN8NativeUI14ButtonListenerEEC2ERKS4_;2A.;__comp_ctor::(18,10):_ZN6MAUtil6VectorIPN8NativeUI14ButtonListenerEEC1ERKS4_;2A.;__base_dtor::(18,13)=#(18,1),(0,6),(18,6),(0,6);:_ZN6MAUtil6VectorIPN8NativeUI14ButtonListenerEED2Ev;2A.;__comp_dtor::(18,13):_ZN6MAUtil6VectorIPN8NativeUI14ButtonListenerEED1Ev;2A.;operator=::(18,14)=#(18,1),(18,15)=&(18,1),(18,6),(18,11),(0,6);:_ZN6MAUtil6VectorIPN8NativeUI14ButtonListenerEEaSERKS4_;2A.;add::(18,16)=#(18,1),(0,6),(18,6),(18,17)=&(18,9),(0,6);:_ZN6MAUtil6VectorIPN8NativeUI14ButtonListenerEE3addERKS3_;2A.(18,7):_ZN6MAUtil6VectorIPN8NativeUI14ButtonListenerEE3addEPKS3_i;2A.;remove::(18,18)=#(18,1),(0,6),(18,6),(18,2),(0,6);:_ZN6MAUtil6VectorIPN8NativeUI14ButtonListenerEE6removeEPS3_;2A.(18,19)=#(18,1),(0,6),(18,6),(0,3),(0,6);:_ZN6MAUtil6VectorIPN8NativeUI14ButtonListenerEE6removeEi;2A.(18,20)=#(18,1),(0,6),(18,6),(0,3),(0,3),(0,6);:_ZN6MAUtil6VectorIPN8NativeUI14ButtonListenerEE6removeEii;2A.;insert::(18,21)=#(18,1),(0,6),(18,6),(0,3),(18,3),(0,6);:_ZN6MAUtil6VectorIPN8NativeUI14ButtonListenerEE6insertEiS3_;2A.;size::(18,22)=#(18,1),(0,3),(18,23)=*(18,12),(0,6);:_ZNK6MAUtil6VectorIPN8NativeUI14ButtonListenerEE4sizeEv;2B.;resize::(18,19):_ZN6MAUtil6VectorIPN8NativeUI14ButtonListenerEE6resizeEi;2A.;reserve::(18,19):_ZN6MAUtil6VectorIPN8NativeUI14ButtonListenerEE7reserveEi;2A.;clear::(18,13):_ZN6MAUtil6VectorIPN8NativeUI14ButtonListenerEE5clearEv;2A.;empty::(18,24)=#(18,1),(0,4),(18,23),(0,6);:_ZNK6MAUtil6VectorIPN8NativeUI14ButtonListenerEE5emptyEv;2B.;capacity::(18,22):_ZNK6MAUtil6VectorIPN8NativeUI14ButtonListenerEE8capacityEv;2B.;begin::(18,25)=#(18,1),(18,2),(18,6),(0,6);:_ZN6MAUtil6VectorIPN8NativeUI14ButtonListenerEE5beginEv;2A.;end::(18,25):_ZN6MAUtil6VectorIPN8NativeUI14ButtonListenerEE3endEv;2A.;begin::(18,26)=#(18,1),(18,8),(18,23),(0,6);:_ZNK6MAUtil6VectorIPN8NativeUI14ButtonListenerEE5beginEv;2B.;end::(18,26):_ZNK6MAUtil6VectorIPN8NativeUI14ButtonListenerEE3endEv;2B.;operator[]::(18,27)=#(18,1),(18,28)=&(18,3),(18,6),(0,3),(0,6);:_ZN6MAUtil6VectorIPN8NativeUI14ButtonListenerEEixEi;2A.(18,29)=#(18,1),(18,17),(18,23),(0,3),(0,6);:_ZNK6MAUtil6VectorIPN8NativeUI14ButtonListenerEEixEi;2B.;pointer::(18,26):_ZNK6MAUtil6VectorIPN8NativeUI14ButtonListenerEE7pointerEv;2B.(18,25):_ZN6MAUtil6VectorIPN8NativeUI14ButtonListenerEE7pointerEv;2A.;;",128,0,95,0
	.stabn	162,0,0,0
	.stabs	"c:/MoSync/include/NativeUI/ButtonListener.h",130,0,0,0
	.stabn	162,0,0,0
	.stabs	"c:/MoSync/include/NativeUI/CameraPreview.h",130,0,0,0
	.stabn	162,0,0,0
	.stabs	"c:/MoSync/include/NativeUI/CheckBox.h",130,0,0,0
	.stabs	"Vector<NativeUI::CheckBoxListener*>:Tt(22,1)=s12mSize:/1(0,3),0,32;mCapacity:/1(0,3),32,32;mData:/1(22,2)=*(22,3)=*(22,4)=xsCheckBoxListener:,64,32;__base_ctor::(22,5)=#(22,1),(0,6),(22,6)=*(22,1),(0,3),(0,6);:_ZN6MAUtil6VectorIPN8NativeUI16CheckBoxListenerEEC2Ei;2A.;__comp_ctor::(22,5):_ZN6MAUtil6VectorIPN8NativeUI16CheckBoxListenerEEC1Ei;2A.;__base_ctor::(22,7)=#(22,1),(0,6),(22,6),(22,8)=*(22,9)=k(22,3),(0,3),(0,6);:_ZN6MAUtil6VectorIPN8NativeUI16CheckBoxListenerEEC2EPKS3_i;2A.;__comp_ctor::(22,7):_ZN6MAUtil6VectorIPN8NativeUI16CheckBoxListenerEEC1EPKS3_i;2A.;__base_ctor::(22,10)=#(22,1),(0,6),(22,6),(22,11)=&(22,12)=k(22,1),(0,6);:_ZN6MAUtil6VectorIPN8NativeUI16CheckBoxListenerEEC2ERKS4_;2A.;__comp_ctor::(22,10):_ZN6MAUtil6VectorIPN8NativeUI16CheckBoxListenerEEC1ERKS4_;2A.;__base_dtor::(22,13)=#(22,1),(0,6),(22,6),(0,6);:_ZN6MAUtil6VectorIPN8NativeUI16CheckBoxListenerEED2Ev;2A.;__comp_dtor::(22,13):_ZN6MAUtil6VectorIPN8NativeUI16CheckBoxListenerEED1Ev;2A.;operator=::(22,14)=#(22,1),(22,15)=&(22,1),(22,6),(22,11),(0,6);:_ZN6MAUtil6VectorIPN8NativeUI16CheckBoxListenerEEaSERKS4_;2A.;add::(22,16)=#(22,1),(0,6),(22,6),(22,17)=&(22,9),(0,6);:_ZN6MAUtil6VectorIPN8NativeUI16CheckBoxListenerEE3addERKS3_;2A.(22,7):_ZN6MAUtil6VectorIPN8NativeUI16CheckBoxListenerEE3addEPKS3_i;2A.;remove::(22,18)=#(22,1),(0,6),(22,6),(22,2),(0,6);:_ZN6MAUtil6VectorIPN8NativeUI16CheckBoxListenerEE6removeEPS3_;2A.(22,19)=#(22,1),(0,6),(22,6),(0,3),(0,6);:_ZN6MAUtil6VectorIPN8NativeUI16CheckBoxListenerEE6removeEi;2A.(22,20)=#(22,1),(0,6),(22,6),(0,3),(0,3),(0,6);:_ZN6MAUtil6VectorIPN8NativeUI16CheckBoxListenerEE6removeEii;2A.;insert::(22,21)=#(22,1),(0,6),(22,6),(0,3),(22,3),(0,6);:_ZN6MAUtil6VectorIPN8NativeUI16CheckBoxListenerEE6insertEiS3_;2A.;size::(22,22)=#(22,1),(0,3),(22,23)=*(22,12),(0,6);:_ZNK6MAUtil6VectorIPN8NativeUI16CheckBoxListenerEE4sizeEv;2B.;resize::(22,19):_ZN6MAUtil6VectorIPN8NativeUI16CheckBoxListenerEE6resizeEi;2A.;reserve::(22,19):_ZN6MAUtil6VectorIPN8NativeUI16CheckBoxListenerEE7reserveEi;2A.;clear::(22,13):_ZN6MAUtil6VectorIPN8NativeUI16CheckBoxListenerEE5clearEv;2A.;empty::(22,24)=#(22,1),(0,4),(22,23),(0,6);:_ZNK6MAUtil6VectorIPN8NativeUI16CheckBoxListenerEE5emptyEv;2B.;capacity::(22,22):_ZNK6MAUtil6VectorIPN8NativeUI16CheckBoxListenerEE8capacityEv;2B.;begin::(22,25)=#(22,1),(22,2),(22,6),(0,6);:_ZN6MAUtil6VectorIPN8NativeUI16CheckBoxListenerEE5beginEv;2A.;end::(22,25):_ZN6MAUtil6VectorIPN8NativeUI16CheckBoxListenerEE3endEv;2A.;begin::(22,26)=#(22,1),(22,8),(22,23),(0,6);:_ZNK6MAUtil6VectorIPN8NativeUI16CheckBoxListenerEE5beginEv;2B.;end::(22,26):_ZNK6MAUtil6VectorIPN8NativeUI16CheckBoxListenerEE3endEv;2B.;operator[]::(22,27)=#(22,1),(22,28)=&(22,3),(22,6),(0,3),(0,6);:_ZN6MAUtil6VectorIPN8NativeUI16CheckBoxListenerEEixEi;2A.(22,29)=#(22,1),(22,17),(22,23),(0,3),(0,6);:_ZNK6MAUtil6VectorIPN8NativeUI16CheckBoxListenerEEixEi;2B.;pointer::(22,26):_ZNK6MAUtil6VectorIPN8NativeUI16CheckBoxListenerEE7pointerEv;2B.(22,25):_ZN6MAUtil6VectorIPN8NativeUI16CheckBoxListenerEE7pointerEv;2A.;;",128,0,95,0
	.stabn	162,0,0,0
	.stabs	"c:/MoSync/include/NativeUI/CheckBoxListener.h",130,0,0,0
	.stabn	162,0,0,0
	.stabs	"c:/MoSync/include/NativeUI/DatePicker.h",130,0,0,0
	.stabs	"Date:Tt(24,1)=s12day:(0,3),0,32;month:(0,3),32,32;year:(0,3),64,32;__base_ctor::(24,2)=#(24,1),(0,6),(24,3)=*(24,1),(0,3),(0,3),(0,3),(0,6);:_ZN8NativeUI4DateC2Eiii;2A.;__comp_ctor::(24,2):_ZN8NativeUI4DateC1Eiii;2A.;__base_ctor::(24,4)=#(24,1),(0,6),(24,3),(0,6);:_ZN8NativeUI4DateC2Ev;2A.;__comp_ctor::(24,4):_ZN8NativeUI4DateC1Ev;2A.;operator=::(24,5)=#(24,1),(24,6)=&(24,1),(24,3),(24,7)=&(24,8)=k(24,1),(0,6);:_ZN8NativeUI4DateaSERKS0_;2A.;__base_ctor::(24,9)=#(24,1),(0,6),(24,3),(24,7),(0,6);:_ZN8NativeUI4DateC2ERKS0_;2A.;__comp_ctor::(24,9):_ZN8NativeUI4DateC1ERKS0_;2A.;;",128,0,52,0
	.stabs	"Vector<NativeUI::DatePickerListener*>:Tt(24,10)=s12mSize:/1(0,3),0,32;mCapacity:/1(0,3),32,32;mData:/1(24,11)=*(24,12)=*(24,13)=xsDatePickerListener:,64,32;__base_ctor::(24,14)=#(24,10),(0,6),(24,15)=*(24,10),(0,3),(0,6);:_ZN6MAUtil6VectorIPN8NativeUI18DatePickerListenerEEC2Ei;2A.;__comp_ctor::(24,14):_ZN6MAUtil6VectorIPN8NativeUI18DatePickerListenerEEC1Ei;2A.;__base_ctor::(24,16)=#(24,10),(0,6),(24,15),(24,17)=*(24,18)=k(24,12),(0,3),(0,6);:_ZN6MAUtil6VectorIPN8NativeUI18DatePickerListenerEEC2EPKS3_i;2A.;__comp_ctor::(24,16):_ZN6MAUtil6VectorIPN8NativeUI18DatePickerListenerEEC1EPKS3_i;2A.;__base_ctor::(24,19)=#(24,10),(0,6),(24,15),(24,20)=&(24,21)=k(24,10),(0,6);:_ZN6MAUtil6VectorIPN8NativeUI18DatePickerListenerEEC2ERKS4_;2A.;__comp_ctor::(24,19):_ZN6MAUtil6VectorIPN8NativeUI18DatePickerListenerEEC1ERKS4_;2A.;__base_dtor::(24,22)=#(24,10),(0,6),(24,15),(0,6);:_ZN6MAUtil6VectorIPN8NativeUI18DatePickerListenerEED2Ev;2A.;__comp_dtor::(24,22):_ZN6MAUtil6VectorIPN8NativeUI18DatePickerListenerEED1Ev;2A.;operator=::(24,23)=#(24,10),(24,24)=&(24,10),(24,15),(24,20),(0,6);:_ZN6MAUtil6VectorIPN8NativeUI18DatePickerListenerEEaSERKS4_;2A.;add::(24,25)=#(24,10),(0,6),(24,15),(24,26)=&(24,18),(0,6);:_ZN6MAUtil6VectorIPN8NativeUI18DatePickerListenerEE3addERKS3_;2A.(24,16):_ZN6MAUtil6VectorIPN8NativeUI18DatePickerListenerEE3addEPKS3_i;2A.;remove::(24,27)=#(24,10),(0,6),(24,15),(24,11),(0,6);:_ZN6MAUtil6VectorIPN8NativeUI18DatePickerListenerEE6removeEPS3_;2A.(24,28)=#(24,10),(0,6),(24,15),(0,3),(0,6);:_ZN6MAUtil6VectorIPN8NativeUI18DatePickerListenerEE6removeEi;2A.(24,29)=#(24,10),(0,6),(24,15),(0,3),(0,3),(0,6);:_ZN6MAUtil6VectorIPN8NativeUI18DatePickerListenerEE6removeEii;2A.;insert::(24,30)=#(24,10),(0,6),(24,15),(0,3),(24,12),(0,6);:_ZN6MAUtil6VectorIPN8NativeUI18DatePickerListenerEE6insertEiS3_;2A.;size::(24,31)=#(24,10),(0,3),(24,32)=*(24,21),(0,6);:_ZNK6MAUtil6VectorIPN8NativeUI18DatePickerListenerEE4sizeEv;2B.;resize::(24,28):_ZN6MAUtil6VectorIPN8NativeUI18DatePickerListenerEE6resizeEi;2A.;reserve::(24,28):_ZN6MAUtil6VectorIPN8NativeUI18DatePickerListenerEE7reserveEi;2A.;clear::(24,22):_ZN6MAUtil6VectorIPN8NativeUI18DatePickerListenerEE5clearEv;2A.;empty::(24,33)=#(24,10),(0,4),(24,32),(0,6);:_ZNK6MAUtil6VectorIPN8NativeUI18DatePickerListenerEE5emptyEv;2B.;capacity::(24,31):_ZNK6MAUtil6VectorIPN8NativeUI18DatePickerListenerEE8capacityEv;2B.;begin::(24,34)=#(24,10),(24,11),(24,15),(0,6);:_ZN6MAUtil6VectorIPN8NativeUI18DatePickerListenerEE5beginEv;2A.;end::(24,34):_ZN6MAUtil6VectorIPN8NativeUI18DatePickerListenerEE3endEv;2A.;begin::(24,35)=#(24,10),(24,17),(24,32),(0,6);:_ZNK6MAUtil6VectorIPN8NativeUI18DatePickerListenerEE5beginEv;2B.;end::(24,35):_ZNK6MAUtil6VectorIPN8NativeUI18DatePickerListenerEE3endEv;2B.;operator[]::(24,36)=#(24,10),(24,37)=&(24,12),(24,15),(0,3),(0,6);:_ZN6MAUtil6VectorIPN8NativeUI18DatePickerListenerEEixEi;2A.(24,38)=#(24,10),(24,26),(24,32),(0,3),(0,6);:_ZNK6MAUtil6VectorIPN8NativeUI18DatePickerListenerEEixEi;2B.;pointer::(24,35):_ZNK6MAUtil6VectorIPN8NativeUI18DatePickerListenerEE7pointerEv;2B.(24,34):_ZN6MAUtil6VectorIPN8NativeUI18DatePickerListenerEE7pointerEv;2A.;;",128,0,95,0
	.stabn	162,0,0,0
	.stabs	"c:/MoSync/include/NativeUI/DatePickerListener.h",130,0,0,0
	.stabn	162,0,0,0
	.stabs	"c:/MoSync/include/NativeUI/Dialog.h",130,0,0,0
	.stabs	"Vector<NativeUI::DialogListener*>:Tt(26,1)=s12mSize:/1(0,3),0,32;mCapacity:/1(0,3),32,32;mData:/1(26,2)=*(26,3)=*(26,4)=xsDialogListener:,64,32;__base_ctor::(26,5)=#(26,1),(0,6),(26,6)=*(26,1),(0,3),(0,6);:_ZN6MAUtil6VectorIPN8NativeUI14DialogListenerEEC2Ei;2A.;__comp_ctor::(26,5):_ZN6MAUtil6VectorIPN8NativeUI14DialogListenerEEC1Ei;2A.;__base_ctor::(26,7)=#(26,1),(0,6),(26,6),(26,8)=*(26,9)=k(26,3),(0,3),(0,6);:_ZN6MAUtil6VectorIPN8NativeUI14DialogListenerEEC2EPKS3_i;2A.;__comp_ctor::(26,7):_ZN6MAUtil6VectorIPN8NativeUI14DialogListenerEEC1EPKS3_i;2A.;__base_ctor::(26,10)=#(26,1),(0,6),(26,6),(26,11)=&(26,12)=k(26,1),(0,6);:_ZN6MAUtil6VectorIPN8NativeUI14DialogListenerEEC2ERKS4_;2A.;__comp_ctor::(26,10):_ZN6MAUtil6VectorIPN8NativeUI14DialogListenerEEC1ERKS4_;2A.;__base_dtor::(26,13)=#(26,1),(0,6),(26,6),(0,6);:_ZN6MAUtil6VectorIPN8NativeUI14DialogListenerEED2Ev;2A.;__comp_dtor::(26,13):_ZN6MAUtil6VectorIPN8NativeUI14DialogListenerEED1Ev;2A.;operator=::(26,14)=#(26,1),(26,15)=&(26,1),(26,6),(26,11),(0,6);:_ZN6MAUtil6VectorIPN8NativeUI14DialogListenerEEaSERKS4_;2A.;add::(26,16)=#(26,1),(0,6),(26,6),(26,17)=&(26,9),(0,6);:_ZN6MAUtil6VectorIPN8NativeUI14DialogListenerEE3addERKS3_;2A.(26,7):_ZN6MAUtil6VectorIPN8NativeUI14DialogListenerEE3addEPKS3_i;2A.;remove::(26,18)=#(26,1),(0,6),(26,6),(26,2),(0,6);:_ZN6MAUtil6VectorIPN8NativeUI14DialogListenerEE6removeEPS3_;2A.(26,19)=#(26,1),(0,6),(26,6),(0,3),(0,6);:_ZN6MAUtil6VectorIPN8NativeUI14DialogListenerEE6removeEi;2A.(26,20)=#(26,1),(0,6),(26,6),(0,3),(0,3),(0,6);:_ZN6MAUtil6VectorIPN8NativeUI14DialogListenerEE6removeEii;2A.;insert::(26,21)=#(26,1),(0,6),(26,6),(0,3),(26,3),(0,6);:_ZN6MAUtil6VectorIPN8NativeUI14DialogListenerEE6insertEiS3_;2A.;size::(26,22)=#(26,1),(0,3),(26,23)=*(26,12),(0,6);:_ZNK6MAUtil6VectorIPN8NativeUI14DialogListenerEE4sizeEv;2B.;resize::(26,19):_ZN6MAUtil6VectorIPN8NativeUI14DialogListenerEE6resizeEi;2A.;reserve::(26,19):_ZN6MAUtil6VectorIPN8NativeUI14DialogListenerEE7reserveEi;2A.;clear::(26,13):_ZN6MAUtil6VectorIPN8NativeUI14DialogListenerEE5clearEv;2A.;empty::(26,24)=#(26,1),(0,4),(26,23),(0,6);:_ZNK6MAUtil6VectorIPN8NativeUI14DialogListenerEE5emptyEv;2B.;capacity::(26,22):_ZNK6MAUtil6VectorIPN8NativeUI14DialogListenerEE8capacityEv;2B.;begin::(26,25)=#(26,1),(26,2),(26,6),(0,6);:_ZN6MAUtil6VectorIPN8NativeUI14DialogListenerEE5beginEv;2A.;end::(26,25):_ZN6MAUtil6VectorIPN8NativeUI14DialogListenerEE3endEv;2A.;begin::(26,26)=#(26,1),(26,8),(26,23),(0,6);:_ZNK6MAUtil6VectorIPN8NativeUI14DialogListenerEE5beginEv;2B.;end::(26,26):_ZNK6MAUtil6VectorIPN8NativeUI14DialogListenerEE3endEv;2B.;operator[]::(26,27)=#(26,1),(26,28)=&(26,3),(26,6),(0,3),(0,6);:_ZN6MAUtil6VectorIPN8NativeUI14DialogListenerEEixEi;2A.(26,29)=#(26,1),(26,17),(26,23),(0,3),(0,6);:_ZNK6MAUtil6VectorIPN8NativeUI14DialogListenerEEixEi;2B.;pointer::(26,26):_ZNK6MAUtil6VectorIPN8NativeUI14DialogListenerEE7pointerEv;2B.(26,25):_ZN6MAUtil6VectorIPN8NativeUI14DialogListenerEE7pointerEv;2A.;;",128,0,95,0
	.stabn	162,0,0,0
	.stabs	"c:/MoSync/include/NativeUI/DialogListener.h",130,0,0,0
	.stabn	162,0,0,0
	.stabs	"c:/MoSync/include/NativeUI/EditBox.h",130,0,0,0
	.stabs	"EditBoxMode:t(28,1)=eEDIT_BOX_MODE_TEXT:0,EDIT_BOX_MODE_PASSWORD:1,;",128,0,53,0
	.stabs	"EditBoxInputMode:t(28,2)=eEDIT_BOX_INPUT_MODE_ANY:0,EDIT_BOX_INPUT_MODE_EMAILADDR:1,EDIT_BOX_INPUT_MODE_NUMERIC:2,EDIT_BOX_INPUT_MODE_PHONENUMBER:3,EDIT_BOX_INPUT_MODE_URL:4,EDIT_BOX_INPUT_MODE_DECIMAL:5,EDIT_BOX_INPUT_MODE_SINGLE_LINE:6,;",128,0,63,0
	.stabs	"EditBoxInputFlag:t(28,3)=eEDIT_BOX_INPUT_FLAG_PASSWORD:0,EDIT_BOX_INPUT_FLAG_SENSITIVE:1,EDIT_BOX_INPUT_FLAG_INITIAL_CAPS_WORD:2,EDIT_BOX_INPUT_FLAG_INITIAL_CAPS_SENTENCE:3,EDIT_BOX_INPUT_GLAG_INITIAL_CAPS_ALL_CHARACTERS:4,;",128,0,99,0
	.stabs	"EditBoxAutocorrectionType:t(28,4)=eEDIT_BOX_AUTOCORRECTION_TYPE_DEFAULT:0,EDIT_BOX_AUTOCORRECTION_TYPE_ENABLE:1,EDIT_BOX_AUTOCORRECTION_TYPE_DISABLE:2,;",128,0,133,0
	.stabs	"EditBoxCategory:t(28,5)=eEDIT_BOX_SINGLE_LINE:0,EDIT_BOX_MULTI_LINE:1,;",128,0,157,0
	.stabs	"Vector<NativeUI::EditBoxListener*>:Tt(28,6)=s12mSize:/1(0,3),0,32;mCapacity:/1(0,3),32,32;mData:/1(28,7)=*(28,8)=*(28,9)=xsEditBoxListener:,64,32;__base_ctor::(28,10)=#(28,6),(0,6),(28,11)=*(28,6),(0,3),(0,6);:_ZN6MAUtil6VectorIPN8NativeUI15EditBoxListenerEEC2Ei;2A.;__comp_ctor::(28,10):_ZN6MAUtil6VectorIPN8NativeUI15EditBoxListenerEEC1Ei;2A.;__base_ctor::(28,12)=#(28,6),(0,6),(28,11),(28,13)=*(28,14)=k(28,8),(0,3),(0,6);:_ZN6MAUtil6VectorIPN8NativeUI15EditBoxListenerEEC2EPKS3_i;2A.;__comp_ctor::(28,12):_ZN6MAUtil6VectorIPN8NativeUI15EditBoxListenerEEC1EPKS3_i;2A.;__base_ctor::(28,15)=#(28,6),(0,6),(28,11),(28,16)=&(28,17)=k(28,6),(0,6);:_ZN6MAUtil6VectorIPN8NativeUI15EditBoxListenerEEC2ERKS4_;2A.;__comp_ctor::(28,15):_ZN6MAUtil6VectorIPN8NativeUI15EditBoxListenerEEC1ERKS4_;2A.;__base_dtor::(28,18)=#(28,6),(0,6),(28,11),(0,6);:_ZN6MAUtil6VectorIPN8NativeUI15EditBoxListenerEED2Ev;2A.;__comp_dtor::(28,18):_ZN6MAUtil6VectorIPN8NativeUI15EditBoxListenerEED1Ev;2A.;operator=::(28,19)=#(28,6),(28,20)=&(28,6),(28,11),(28,16),(0,6);:_ZN6MAUtil6VectorIPN8NativeUI15EditBoxListenerEEaSERKS4_;2A.;add::(28,21)=#(28,6),(0,6),(28,11),(28,22)=&(28,14),(0,6);:_ZN6MAUtil6VectorIPN8NativeUI15EditBoxListenerEE3addERKS3_;2A.(28,12):_ZN6MAUtil6VectorIPN8NativeUI15EditBoxListenerEE3addEPKS3_i;2A.;remove::(28,23)=#(28,6),(0,6),(28,11),(28,7),(0,6);:_ZN6MAUtil6VectorIPN8NativeUI15EditBoxListenerEE6removeEPS3_;2A.(28,24)=#(28,6),(0,6),(28,11),(0,3),(0,6);:_ZN6MAUtil6VectorIPN8NativeUI15EditBoxListenerEE6removeEi;2A.(28,25)=#(28,6),(0,6),(28,11),(0,3),(0,3),(0,6);:_ZN6MAUtil6VectorIPN8NativeUI15EditBoxListenerEE6removeEii;2A.;insert::(28,26)=#(28,6),(0,6),(28,11),(0,3),(28,8),(0,6);:_ZN6MAUtil6VectorIPN8NativeUI15EditBoxListenerEE6insertEiS3_;2A.;size::(28,27)=#(28,6),(0,3),(28,28)=*(28,17),(0,6);:_ZNK6MAUtil6VectorIPN8NativeUI15EditBoxListenerEE4sizeEv;2B.;resize::(28,24):_ZN6MAUtil6VectorIPN8NativeUI15EditBoxListenerEE6resizeEi;2A.;reserve::(28,24):_ZN6MAUtil6VectorIPN8NativeUI15EditBoxListenerEE7reserveEi;2A.;clear::(28,18):_ZN6MAUtil6VectorIPN8NativeUI15EditBoxListenerEE5clearEv;2A.;empty::(28,29)=#(28,6),(0,4),(28,28),(0,6);:_ZNK6MAUtil6VectorIPN8NativeUI15EditBoxListenerEE5emptyEv;2B.;capacity::(28,27):_ZNK6MAUtil6VectorIPN8NativeUI15EditBoxListenerEE8capacityEv;2B.;begin::(28,30)=#(28,6),(28,7),(28,11),(0,6);:_ZN6MAUtil6VectorIPN8NativeUI15EditBoxListenerEE5beginEv;2A.;end::(28,30):_ZN6MAUtil6VectorIPN8NativeUI15EditBoxListenerEE3endEv;2A.;begin::(28,31)=#(28,6),(28,13),(28,28),(0,6);:_ZNK6MAUtil6VectorIPN8NativeUI15EditBoxListenerEE5beginEv;2B.;end::(28,31):_ZNK6MAUtil6VectorIPN8NativeUI15EditBoxListenerEE3endEv;2B.;operator[]::(28,32)=#(28,6),(28,33)=&(28,8),(28,11),(0,3),(0,6);:_ZN6MAUtil6VectorIPN8NativeUI15EditBoxListenerEEixEi;2A.(28,34)=#(28,6),(28,22),(28,28),(0,3),(0,6);:_ZNK6MAUtil6VectorIPN8NativeUI15EditBoxListenerEEixEi;2B.;pointer::(28,31):_ZNK6MAUtil6VectorIPN8NativeUI15EditBoxListenerEE7pointerEv;2B.(28,30):_ZN6MAUtil6VectorIPN8NativeUI15EditBoxListenerEE7pointerEv;2A.;;",128,0,95,0
	.stabn	162,0,0,0
	.stabs	"c:/MoSync/include/NativeUI/EditBoxListener.h",130,0,0,0
	.stabn	162,0,0,0
	.stabs	"c:/MoSync/include/NativeUI/GLView.h",130,0,0,0
	.stabs	"Vector<NativeUI::GLViewListener*>:Tt(30,1)=s12mSize:/1(0,3),0,32;mCapacity:/1(0,3),32,32;mData:/1(30,2)=*(30,3)=*(30,4)=xsGLViewListener:,64,32;__base_ctor::(30,5)=#(30,1),(0,6),(30,6)=*(30,1),(0,3),(0,6);:_ZN6MAUtil6VectorIPN8NativeUI14GLViewListenerEEC2Ei;2A.;__comp_ctor::(30,5):_ZN6MAUtil6VectorIPN8NativeUI14GLViewListenerEEC1Ei;2A.;__base_ctor::(30,7)=#(30,1),(0,6),(30,6),(30,8)=*(30,9)=k(30,3),(0,3),(0,6);:_ZN6MAUtil6VectorIPN8NativeUI14GLViewListenerEEC2EPKS3_i;2A.;__comp_ctor::(30,7):_ZN6MAUtil6VectorIPN8NativeUI14GLViewListenerEEC1EPKS3_i;2A.;__base_ctor::(30,10)=#(30,1),(0,6),(30,6),(30,11)=&(30,12)=k(30,1),(0,6);:_ZN6MAUtil6VectorIPN8NativeUI14GLViewListenerEEC2ERKS4_;2A.;__comp_ctor::(30,10):_ZN6MAUtil6VectorIPN8NativeUI14GLViewListenerEEC1ERKS4_;2A.;__base_dtor::(30,13)=#(30,1),(0,6),(30,6),(0,6);:_ZN6MAUtil6VectorIPN8NativeUI14GLViewListenerEED2Ev;2A.;__comp_dtor::(30,13):_ZN6MAUtil6VectorIPN8NativeUI14GLViewListenerEED1Ev;2A.;operator=::(30,14)=#(30,1),(30,15)=&(30,1),(30,6),(30,11),(0,6);:_ZN6MAUtil6VectorIPN8NativeUI14GLViewListenerEEaSERKS4_;2A.;add::(30,16)=#(30,1),(0,6),(30,6),(30,17)=&(30,9),(0,6);:_ZN6MAUtil6VectorIPN8NativeUI14GLViewListenerEE3addERKS3_;2A.(30,7):_ZN6MAUtil6VectorIPN8NativeUI14GLViewListenerEE3addEPKS3_i;2A.;remove::(30,18)=#(30,1),(0,6),(30,6),(30,2),(0,6);:_ZN6MAUtil6VectorIPN8NativeUI14GLViewListenerEE6removeEPS3_;2A.(30,19)=#(30,1),(0,6),(30,6),(0,3),(0,6);:_ZN6MAUtil6VectorIPN8NativeUI14GLViewListenerEE6removeEi;2A.(30,20)=#(30,1),(0,6),(30,6),(0,3),(0,3),(0,6);:_ZN6MAUtil6VectorIPN8NativeUI14GLViewListenerEE6removeEii;2A.;insert::(30,21)=#(30,1),(0,6),(30,6),(0,3),(30,3),(0,6);:_ZN6MAUtil6VectorIPN8NativeUI14GLViewListenerEE6insertEiS3_;2A.;size::(30,22)=#(30,1),(0,3),(30,23)=*(30,12),(0,6);:_ZNK6MAUtil6VectorIPN8NativeUI14GLViewListenerEE4sizeEv;2B.;resize::(30,19):_ZN6MAUtil6VectorIPN8NativeUI14GLViewListenerEE6resizeEi;2A.;reserve::(30,19):_ZN6MAUtil6VectorIPN8NativeUI14GLViewListenerEE7reserveEi;2A.;clear::(30,13):_ZN6MAUtil6VectorIPN8NativeUI14GLViewListenerEE5clearEv;2A.;empty::(30,24)=#(30,1),(0,4),(30,23),(0,6);:_ZNK6MAUtil6VectorIPN8NativeUI14GLViewListenerEE5emptyEv;2B.;capacity::(30,22):_ZNK6MAUtil6VectorIPN8NativeUI14GLViewListenerEE8capacityEv;2B.;begin::(30,25)=#(30,1),(30,2),(30,6),(0,6);:_ZN6MAUtil6VectorIPN8NativeUI14GLViewListenerEE5beginEv;2A.;end::(30,25):_ZN6MAUtil6VectorIPN8NativeUI14GLViewListenerEE3endEv;2A.;begin::(30,26)=#(30,1),(30,8),(30,23),(0,6);:_ZNK6MAUtil6VectorIPN8NativeUI14GLViewListenerEE5beginEv;2B.;end::(30,26):_ZNK6MAUtil6VectorIPN8NativeUI14GLViewListenerEE3endEv;2B.;operator[]::(30,27)=#(30,1),(30,28)=&(30,3),(30,6),(0,3),(0,6);:_ZN6MAUtil6VectorIPN8NativeUI14GLViewListenerEEixEi;2A.(30,29)=#(30,1),(30,17),(30,23),(0,3),(0,6);:_ZNK6MAUtil6VectorIPN8NativeUI14GLViewListenerEEixEi;2B.;pointer::(30,26):_ZNK6MAUtil6VectorIPN8NativeUI14GLViewListenerEE7pointerEv;2B.(30,25):_ZN6MAUtil6VectorIPN8NativeUI14GLViewListenerEE7pointerEv;2A.;;",128,0,95,0
	.stabn	162,0,0,0
	.stabs	"c:/MoSync/include/NativeUI/GLViewListener.h",130,0,0,0
	.stabn	162,0,0,0
	.stabs	"c:/MoSync/include/NativeUI/HorizontalLayout.h",130,0,0,0
	.stabs	"c:/MoSync/include/NativeUI/Layout.h",130,0,0,0
	.stabs	"c:/MoSync/include/Ads/Banner.h",130,0,0,0
	.stabs	"BannerSize:t(34,1)=eBANNER_SIZE_DEFAULT:0,BANNER_SIZE_RECT:1,BANNER_SIZE_IAB:2,BANNER_SIZE_LEADERBOARD:3,BANNER_SIZE_WP7_XLARGE:4,BANNER_SIZE_WP7_XXLARGE:5,;",128,0,62,0
	.lcomm	__ZN3Ads13TEST_EMULATORE, 4 ; size=4
	.stabs	"Vector<Ads::BannerListener*>:Tt(34,2)=s12mSize:/1(0,3),0,32;mCapacity:/1(0,3),32,32;mData:/1(34,3)=*(34,4)=*(34,5)=xsBannerListener:,64,32;__base_ctor::(34,6)=#(34,2),(0,6),(34,7)=*(34,2),(0,3),(0,6);:_ZN6MAUtil6VectorIPN3Ads14BannerListenerEEC2Ei;2A.;__comp_ctor::(34,6):_ZN6MAUtil6VectorIPN3Ads14BannerListenerEEC1Ei;2A.;__base_ctor::(34,8)=#(34,2),(0,6),(34,7),(34,9)=*(34,10)=k(34,4),(0,3),(0,6);:_ZN6MAUtil6VectorIPN3Ads14BannerListenerEEC2EPKS3_i;2A.;__comp_ctor::(34,8):_ZN6MAUtil6VectorIPN3Ads14BannerListenerEEC1EPKS3_i;2A.;__base_ctor::(34,11)=#(34,2),(0,6),(34,7),(34,12)=&(34,13)=k(34,2),(0,6);:_ZN6MAUtil6VectorIPN3Ads14BannerListenerEEC2ERKS4_;2A.;__comp_ctor::(34,11):_ZN6MAUtil6VectorIPN3Ads14BannerListenerEEC1ERKS4_;2A.;__base_dtor::(34,14)=#(34,2),(0,6),(34,7),(0,6);:_ZN6MAUtil6VectorIPN3Ads14BannerListenerEED2Ev;2A.;__comp_dtor::(34,14):_ZN6MAUtil6VectorIPN3Ads14BannerListenerEED1Ev;2A.;operator=::(34,15)=#(34,2),(34,16)=&(34,2),(34,7),(34,12),(0,6);:_ZN6MAUtil6VectorIPN3Ads14BannerListenerEEaSERKS4_;2A.;add::(34,17)=#(34,2),(0,6),(34,7),(34,18)=&(34,10),(0,6);:_ZN6MAUtil6VectorIPN3Ads14BannerListenerEE3addERKS3_;2A.(34,8):_ZN6MAUtil6VectorIPN3Ads14BannerListenerEE3addEPKS3_i;2A.;remove::(34,19)=#(34,2),(0,6),(34,7),(34,3),(0,6);:_ZN6MAUtil6VectorIPN3Ads14BannerListenerEE6removeEPS3_;2A.(34,20)=#(34,2),(0,6),(34,7),(0,3),(0,6);:_ZN6MAUtil6VectorIPN3Ads14BannerListenerEE6removeEi;2A.(34,21)=#(34,2),(0,6),(34,7),(0,3),(0,3),(0,6);:_ZN6MAUtil6VectorIPN3Ads14BannerListenerEE6removeEii;2A.;insert::(34,22)=#(34,2),(0,6),(34,7),(0,3),(34,4),(0,6);:_ZN6MAUtil6VectorIPN3Ads14BannerListenerEE6insertEiS3_;2A.;size::(34,23)=#(34,2),(0,3),(34,24)=*(34,13),(0,6);:_ZNK6MAUtil6VectorIPN3Ads14BannerListenerEE4sizeEv;2B.;resize::(34,20):_ZN6MAUtil6VectorIPN3Ads14BannerListenerEE6resizeEi;2A.;reserve::(34,20):_ZN6MAUtil6VectorIPN3Ads14BannerListenerEE7reserveEi;2A.;clear::(34,14):_ZN6MAUtil6VectorIPN3Ads14BannerListenerEE5clearEv;2A.;empty::(34,25)=#(34,2),(0,4),(34,24),(0,6);:_ZNK6MAUtil6VectorIPN3Ads14BannerListenerEE5emptyEv;2B.;capacity::(34,23):_ZNK6MAUtil6VectorIPN3Ads14BannerListenerEE8capacityEv;2B.;begin::(34,26)=#(34,2),(34,3),(34,7),(0,6);:_ZN6MAUtil6VectorIPN3Ads14BannerListenerEE5beginEv;2A.;end::(34,26):_ZN6MAUtil6VectorIPN3Ads14BannerListenerEE3endEv;2A.;begin::(34,27)=#(34,2),(34,9),(34,24),(0,6);:_ZNK6MAUtil6VectorIPN3Ads14BannerListenerEE5beginEv;2B.;end::(34,27):_ZNK6MAUtil6VectorIPN3Ads14BannerListenerEE3endEv;2B.;operator[]::(34,28)=#(34,2),(34,29)=&(34,4),(34,7),(0,3),(0,6);:_ZN6MAUtil6VectorIPN3Ads14BannerListenerEEixEi;2A.(34,30)=#(34,2),(34,18),(34,24),(0,3),(0,6);:_ZNK6MAUtil6VectorIPN3Ads14BannerListenerEEixEi;2B.;pointer::(34,27):_ZNK6MAUtil6VectorIPN3Ads14BannerListenerEE7pointerEv;2B.(34,26):_ZN6MAUtil6VectorIPN3Ads14BannerListenerEE7pointerEv;2A.;;",128,0,95,0
	.stabn	162,0,0,0
	.stabs	"Vector<Ads::Banner*>:Tt(33,1)=s12mSize:/1(0,3),0,32;mCapacity:/1(0,3),32,32;mData:/1(33,2)=*(33,3)=*(33,4)=xsBanner:,64,32;__base_ctor::(33,5)=#(33,1),(0,6),(33,6)=*(33,1),(0,3),(0,6);:_ZN6MAUtil6VectorIPN3Ads6BannerEEC2Ei;2A.;__comp_ctor::(33,5):_ZN6MAUtil6VectorIPN3Ads6BannerEEC1Ei;2A.;__base_ctor::(33,7)=#(33,1),(0,6),(33,6),(33,8)=*(33,9)=k(33,3),(0,3),(0,6);:_ZN6MAUtil6VectorIPN3Ads6BannerEEC2EPKS3_i;2A.;__comp_ctor::(33,7):_ZN6MAUtil6VectorIPN3Ads6BannerEEC1EPKS3_i;2A.;__base_ctor::(33,10)=#(33,1),(0,6),(33,6),(33,11)=&(33,12)=k(33,1),(0,6);:_ZN6MAUtil6VectorIPN3Ads6BannerEEC2ERKS4_;2A.;__comp_ctor::(33,10):_ZN6MAUtil6VectorIPN3Ads6BannerEEC1ERKS4_;2A.;__base_dtor::(33,13)=#(33,1),(0,6),(33,6),(0,6);:_ZN6MAUtil6VectorIPN3Ads6BannerEED2Ev;2A.;__comp_dtor::(33,13):_ZN6MAUtil6VectorIPN3Ads6BannerEED1Ev;2A.;operator=::(33,14)=#(33,1),(33,15)=&(33,1),(33,6),(33,11),(0,6);:_ZN6MAUtil6VectorIPN3Ads6BannerEEaSERKS4_;2A.;add::(33,16)=#(33,1),(0,6),(33,6),(33,17)=&(33,9),(0,6);:_ZN6MAUtil6VectorIPN3Ads6BannerEE3addERKS3_;2A.(33,7):_ZN6MAUtil6VectorIPN3Ads6BannerEE3addEPKS3_i;2A.;remove::(33,18)=#(33,1),(0,6),(33,6),(33,2),(0,6);:_ZN6MAUtil6VectorIPN3Ads6BannerEE6removeEPS3_;2A.(33,19)=#(33,1),(0,6),(33,6),(0,3),(0,6);:_ZN6MAUtil6VectorIPN3Ads6BannerEE6removeEi;2A.(33,20)=#(33,1),(0,6),(33,6),(0,3),(0,3),(0,6);:_ZN6MAUtil6VectorIPN3Ads6BannerEE6removeEii;2A.;insert::(33,21)=#(33,1),(0,6),(33,6),(0,3),(33,3),(0,6);:_ZN6MAUtil6VectorIPN3Ads6BannerEE6insertEiS3_;2A.;size::(33,22)=#(33,1),(0,3),(33,23)=*(33,12),(0,6);:_ZNK6MAUtil6VectorIPN3Ads6BannerEE4sizeEv;2B.;resize::(33,19):_ZN6MAUtil6VectorIPN3Ads6BannerEE6resizeEi;2A.;reserve::(33,19):_ZN6MAUtil6VectorIPN3Ads6BannerEE7reserveEi;2A.;clear::(33,13):_ZN6MAUtil6VectorIPN3Ads6BannerEE5clearEv;2A.;empty::(33,24)=#(33,1),(0,4),(33,23),(0,6);:_ZNK6MAUtil6VectorIPN3Ads6BannerEE5emptyEv;2B.;capacity::(33,22):_ZNK6MAUtil6VectorIPN3Ads6BannerEE8capacityEv;2B.;begin::(33,25)=#(33,1),(33,2),(33,6),(0,6);:_ZN6MAUtil6VectorIPN3Ads6BannerEE5beginEv;2A.;end::(33,25):_ZN6MAUtil6VectorIPN3Ads6BannerEE3endEv;2A.;begin::(33,26)=#(33,1),(33,8),(33,23),(0,6);:_ZNK6MAUtil6VectorIPN3Ads6BannerEE5beginEv;2B.;end::(33,26):_ZNK6MAUtil6VectorIPN3Ads6BannerEE3endEv;2B.;operator[]::(33,27)=#(33,1),(33,28)=&(33,3),(33,6),(0,3),(0,6);:_ZN6MAUtil6VectorIPN3Ads6BannerEEixEi;2A.(33,29)=#(33,1),(33,17),(33,23),(0,3),(0,6);:_ZNK6MAUtil6VectorIPN3Ads6BannerEEixEi;2B.;pointer::(33,26):_ZNK6MAUtil6VectorIPN3Ads6BannerEE7pointerEv;2B.(33,25):_ZN6MAUtil6VectorIPN3Ads6BannerEE7pointerEv;2A.;;",128,0,95,0
	.stabn	162,0,0,0
	.stabn	162,0,0,0
	.stabs	"c:/MoSync/include/NativeUI/Image.h",130,0,0,0
	.stabs	"ImageScaleMode:t(35,1)=eIMAGE_SCALE_NONE:0,IMAGE_SCALE_XY:1,IMAGE_SCALE_PRESERVE_ASPECT:2,;",128,0,47,0
	.stabn	162,0,0,0
	.stabs	"c:/MoSync/include/NativeUI/ImageButton.h",130,0,0,0
	.stabn	162,0,0,0
	.stabs	"c:/MoSync/include/NativeUI/Label.h",130,0,0,0
	.stabn	162,0,0,0
	.stabs	"c:/MoSync/include/NativeUI/ListView.h",130,0,0,0
	.stabs	"ListViewType:t(38,1)=eLIST_VIEW_TYPE_DEFAULT:0,LIST_VIEW_TYPE_ALPHABETICAL:1,LIST_VIEW_TYPE_SEGMENTED:2,;",128,0,49,0
	.stabs	"ListViewMode:t(38,2)=eLIST_VIEW_MODE_DISPLAY:0,LIST_VIEW_MODE_EDIT:1,;",128,0,71,0
	.stabs	"ListViewStyle:t(38,3)=eLIST_VIEW_STYLE_SUBTITLE:0,LIST_VIEW_STYLE_NO_SUBTITLE:1,;",128,0,88,0
	.stabs	"Vector<NativeUI::ListViewListener*>:Tt(38,4)=s12mSize:/1(0,3),0,32;mCapacity:/1(0,3),32,32;mData:/1(38,5)=*(38,6)=*(38,7)=xsListViewListener:,64,32;__base_ctor::(38,8)=#(38,4),(0,6),(38,9)=*(38,4),(0,3),(0,6);:_ZN6MAUtil6VectorIPN8NativeUI16ListViewListenerEEC2Ei;2A.;__comp_ctor::(38,8):_ZN6MAUtil6VectorIPN8NativeUI16ListViewListenerEEC1Ei;2A.;__base_ctor::(38,10)=#(38,4),(0,6),(38,9),(38,11)=*(38,12)=k(38,6),(0,3),(0,6);:_ZN6MAUtil6VectorIPN8NativeUI16ListViewListenerEEC2EPKS3_i;2A.;__comp_ctor::(38,10):_ZN6MAUtil6VectorIPN8NativeUI16ListViewListenerEEC1EPKS3_i;2A.;__base_ctor::(38,13)=#(38,4),(0,6),(38,9),(38,14)=&(38,15)=k(38,4),(0,6);:_ZN6MAUtil6VectorIPN8NativeUI16ListViewListenerEEC2ERKS4_;2A.;__comp_ctor::(38,13):_ZN6MAUtil6VectorIPN8NativeUI16ListViewListenerEEC1ERKS4_;2A.;__base_dtor::(38,16)=#(38,4),(0,6),(38,9),(0,6);:_ZN6MAUtil6VectorIPN8NativeUI16ListViewListenerEED2Ev;2A.;__comp_dtor::(38,16):_ZN6MAUtil6VectorIPN8NativeUI16ListViewListenerEED1Ev;2A.;operator=::(38,17)=#(38,4),(38,18)=&(38,4),(38,9),(38,14),(0,6);:_ZN6MAUtil6VectorIPN8NativeUI16ListViewListenerEEaSERKS4_;2A.;add::(38,19)=#(38,4),(0,6),(38,9),(38,20)=&(38,12),(0,6);:_ZN6MAUtil6VectorIPN8NativeUI16ListViewListenerEE3addERKS3_;2A.(38,10):_ZN6MAUtil6VectorIPN8NativeUI16ListViewListenerEE3addEPKS3_i;2A.;remove::(38,21)=#(38,4),(0,6),(38,9),(38,5),(0,6);:_ZN6MAUtil6VectorIPN8NativeUI16ListViewListenerEE6removeEPS3_;2A.(38,22)=#(38,4),(0,6),(38,9),(0,3),(0,6);:_ZN6MAUtil6VectorIPN8NativeUI16ListViewListenerEE6removeEi;2A.(38,23)=#(38,4),(0,6),(38,9),(0,3),(0,3),(0,6);:_ZN6MAUtil6VectorIPN8NativeUI16ListViewListenerEE6removeEii;2A.;insert::(38,24)=#(38,4),(0,6),(38,9),(0,3),(38,6),(0,6);:_ZN6MAUtil6VectorIPN8NativeUI16ListViewListenerEE6insertEiS3_;2A.;size::(38,25)=#(38,4),(0,3),(38,26)=*(38,15),(0,6);:_ZNK6MAUtil6VectorIPN8NativeUI16ListViewListenerEE4sizeEv;2B.;resize::(38,22):_ZN6MAUtil6VectorIPN8NativeUI16ListViewListenerEE6resizeEi;2A.;reserve::(38,22):_ZN6MAUtil6VectorIPN8NativeUI16ListViewListenerEE7reserveEi;2A.;clear::(38,16):_ZN6MAUtil6VectorIPN8NativeUI16ListViewListenerEE5clearEv;2A.;empty::(38,27)=#(38,4),(0,4),(38,26),(0,6);:_ZNK6MAUtil6VectorIPN8NativeUI16ListViewListenerEE5emptyEv;2B.;capacity::(38,25):_ZNK6MAUtil6VectorIPN8NativeUI16ListViewListenerEE8capacityEv;2B.;begin::(38,28)=#(38,4),(38,5),(38,9),(0,6);:_ZN6MAUtil6VectorIPN8NativeUI16ListViewListenerEE5beginEv;2A.;end::(38,28):_ZN6MAUtil6VectorIPN8NativeUI16ListViewListenerEE3endEv;2A.;begin::(38,29)=#(38,4),(38,11),(38,26),(0,6);:_ZNK6MAUtil6VectorIPN8NativeUI16ListViewListenerEE5beginEv;2B.;end::(38,29):_ZNK6MAUtil6VectorIPN8NativeUI16ListViewListenerEE3endEv;2B.;operator[]::(38,30)=#(38,4),(38,31)=&(38,6),(38,9),(0,3),(0,6);:_ZN6MAUtil6VectorIPN8NativeUI16ListViewListenerEEixEi;2A.(38,32)=#(38,4),(38,20),(38,26),(0,3),(0,6);:_ZNK6MAUtil6VectorIPN8NativeUI16ListViewListenerEEixEi;2B.;pointer::(38,29):_ZNK6MAUtil6VectorIPN8NativeUI16ListViewListenerEE7pointerEv;2B.(38,28):_ZN6MAUtil6VectorIPN8NativeUI16ListViewListenerEE7pointerEv;2A.;;",128,0,95,0
	.stabn	162,0,0,0
	.stabs	"c:/MoSync/include/NativeUI/ListViewItem.h",130,0,0,0
	.stabs	"ListViewItemAccessory:t(39,1)=eLIST_VIEW_ITEM_ACCESSORY_NONE:0,LIST_VIEW_ITEM_ACCESSORY_DISCLOSURE:1,LIST_VIEW_ITEM_ACCESSORY_DETAIL:2,LIST_VIEW_ITEM_ACCESSORY_CHECKMARK:3,;",128,0,49,0
	.stabs	"ListViewItemEditStyle:t(39,2)=eLIST_VIEW_ITEM_EDIT_STYLE_NONE:0,LIST_VIEW_ITEM_EDIT_STYLE_DELETE:1,LIST_VIEW_ITEM_EDIT_STYLE_INSERT:2,;",128,0,57,0
	.stabs	"ListViewItemSelectionStyle:t(39,3)=eLIST_VIEW_ITEM_SELECTION_STYLE_NONE:0,LIST_VIEW_ITEM_SELECTION_STYLE_BLUE:1,LIST_VIEW_ITEM_SELECTION_STYLE_GRAY:2,;",128,0,79,0
	.stabn	162,0,0,0
	.stabs	"c:/MoSync/include/NativeUI/ListViewSection.h",130,0,0,0
	.stabs	"ListViewSectionType:t(40,1)=eLIST_VIEW_SECTION_TYPE_ALPHABETICAL:0,LIST_VIEW_SECTION_TYPE_SEGMENTED:1,;",128,0,50,0
	.stabn	162,0,0,0
	.stabs	"c:/MoSync/include/NativeUI/ListViewListener.h",130,0,0,0
	.stabn	162,0,0,0
	.stabs	"c:/MoSync/include/NativeUI/Map.h",130,0,0,0
	.stabs	"c:/MoSync/include/NativeUI/MapLocation.h",130,0,0,0
	.stabs	"c:/MoSync/include/NativeUI/Location.h",130,0,0,0
	.stabs	"Location:Tt(44,1)=s16mLatitude:/1(0,8),0,64;mLongitude:/1(0,8),64,64;__base_ctor::(44,2)=#(44,1),(0,6),(44,3)=*(44,1),(0,6);:_ZN8NativeUI8LocationC2Ev;2A.;__comp_ctor::(44,2):_ZN8NativeUI8LocationC1Ev;2A.;__base_ctor::(44,4)=#(44,1),(0,6),(44,3),(0,8),(0,8),(0,6);:_ZN8NativeUI8LocationC2Edd;2A.;__comp_ctor::(44,4):_ZN8NativeUI8LocationC1Edd;2A.;__base_dtor::(44,2):_ZN8NativeUI8LocationD2Ev;2A.;__comp_dtor::(44,2):_ZN8NativeUI8LocationD1Ev;2A.;setLatitude::(44,5)=#(44,1),(0,6),(44,3),(0,8),(0,6);:_ZN8NativeUI8Location11setLatitudeEd;2A.;getLatitude::(44,6)=#(44,1),(0,8),(44,7)=*(44,8)=k(44,1),(0,6);:_ZNK8NativeUI8Location11getLatitudeEv;2B.;setLongitude::(44,5):_ZN8NativeUI8Location12setLongitudeEd;2A.;getLongitude::(44,6):_ZNK8NativeUI8Location12getLongitudeEv;2B.;operator=::(44,9)=#(44,1),(44,10)=&(44,1),(44,3),(44,11)=&(44,8),(0,6);:_ZN8NativeUI8LocationaSERKS0_;2A.;__base_ctor::(44,12)=#(44,1),(0,6),(44,3),(44,11),(0,6);:_ZN8NativeUI8LocationC2ERKS0_;2A.;__comp_ctor::(44,12):_ZN8NativeUI8LocationC1ERKS0_;2A.;;",128,0,41,0
	.stabn	162,0,0,0
	.stabs	"MapLocation:Tt(43,1)=s20!1,020,(44,1);mZoomLevel:/0(0,3),128,32;__base_ctor::(43,2)=#(43,1),(0,6),(43,3)=*(43,1),(0,6);:_ZN8NativeUI11MapLocationC2Ev;2A.;__comp_ctor::(43,2):_ZN8NativeUI11MapLocationC1Ev;2A.;__base_ctor::(43,4)=#(43,1),(0,6),(43,3),(0,8),(0,8),(0,6);:_ZN8NativeUI11MapLocationC2Edd;2A.;__comp_ctor::(43,4):_ZN8NativeUI11MapLocationC1Edd;2A.;__base_ctor::(43,5)=#(43,1),(0,6),(43,3),(0,8),(0,8),(0,3),(0,6);:_ZN8NativeUI11MapLocationC2Eddi;2A.;__comp_ctor::(43,5):_ZN8NativeUI11MapLocationC1Eddi;2A.;__base_dtor::(43,2):_ZN8NativeUI11MapLocationD2Ev;2A.;__comp_dtor::(43,2):_ZN8NativeUI11MapLocationD1Ev;2A.;setZoomLevel::(43,6)=#(43,1),(0,6),(43,3),(0,3),(0,6);:_ZN8NativeUI11MapLocation12setZoomLevelEi;2A.;getZoomLevel::(43,7)=#(43,1),(0,3),(43,8)=*(43,9)=k(43,1),(0,6);:_ZNK8NativeUI11MapLocation12getZoomLevelEv;2B.;setLocation::(43,10)=#(43,1),(0,6),(43,3),(44,3),(0,6);:_ZN8NativeUI11MapLocation11setLocationEPNS_8LocationE;2A.;operator=::(43,11)=#(43,1),(43,12)=&(43,1),(43,3),(43,13)=&(43,9),(0,6);:_ZN8NativeUI11MapLocationaSERKS0_;2A.;__base_ctor::(43,14)=#(43,1),(0,6),(43,3),(43,13),(0,6);:_ZN8NativeUI11MapLocationC2ERKS0_;2A.;__comp_ctor::(43,14):_ZN8NativeUI11MapLocationC1ERKS0_;2A.;;",128,0,43,0
	.stabn	162,0,0,0
	.stabs	"c:/MoSync/include/NativeUI/MapPin.h",130,0,0,0
	.stabs	"c:/MoSync/include/NativeUI/MapPinListener.h",130,0,0,0
	.stabn	162,0,0,0
	.stabs	"Vector<NativeUI::MapPinListener*>:Tt(45,1)=s12mSize:/1(0,3),0,32;mCapacity:/1(0,3),32,32;mData:/1(45,2)=*(45,3)=*(45,4)=xsMapPinListener:,64,32;__base_ctor::(45,5)=#(45,1),(0,6),(45,6)=*(45,1),(0,3),(0,6);:_ZN6MAUtil6VectorIPN8NativeUI14MapPinListenerEEC2Ei;2A.;__comp_ctor::(45,5):_ZN6MAUtil6VectorIPN8NativeUI14MapPinListenerEEC1Ei;2A.;__base_ctor::(45,7)=#(45,1),(0,6),(45,6),(45,8)=*(45,9)=k(45,3),(0,3),(0,6);:_ZN6MAUtil6VectorIPN8NativeUI14MapPinListenerEEC2EPKS3_i;2A.;__comp_ctor::(45,7):_ZN6MAUtil6VectorIPN8NativeUI14MapPinListenerEEC1EPKS3_i;2A.;__base_ctor::(45,10)=#(45,1),(0,6),(45,6),(45,11)=&(45,12)=k(45,1),(0,6);:_ZN6MAUtil6VectorIPN8NativeUI14MapPinListenerEEC2ERKS4_;2A.;__comp_ctor::(45,10):_ZN6MAUtil6VectorIPN8NativeUI14MapPinListenerEEC1ERKS4_;2A.;__base_dtor::(45,13)=#(45,1),(0,6),(45,6),(0,6);:_ZN6MAUtil6VectorIPN8NativeUI14MapPinListenerEED2Ev;2A.;__comp_dtor::(45,13):_ZN6MAUtil6VectorIPN8NativeUI14MapPinListenerEED1Ev;2A.;operator=::(45,14)=#(45,1),(45,15)=&(45,1),(45,6),(45,11),(0,6);:_ZN6MAUtil6VectorIPN8NativeUI14MapPinListenerEEaSERKS4_;2A.;add::(45,16)=#(45,1),(0,6),(45,6),(45,17)=&(45,9),(0,6);:_ZN6MAUtil6VectorIPN8NativeUI14MapPinListenerEE3addERKS3_;2A.(45,7):_ZN6MAUtil6VectorIPN8NativeUI14MapPinListenerEE3addEPKS3_i;2A.;remove::(45,18)=#(45,1),(0,6),(45,6),(45,2),(0,6);:_ZN6MAUtil6VectorIPN8NativeUI14MapPinListenerEE6removeEPS3_;2A.(45,19)=#(45,1),(0,6),(45,6),(0,3),(0,6);:_ZN6MAUtil6VectorIPN8NativeUI14MapPinListenerEE6removeEi;2A.(45,20)=#(45,1),(0,6),(45,6),(0,3),(0,3),(0,6);:_ZN6MAUtil6VectorIPN8NativeUI14MapPinListenerEE6removeEii;2A.;insert::(45,21)=#(45,1),(0,6),(45,6),(0,3),(45,3),(0,6);:_ZN6MAUtil6VectorIPN8NativeUI14MapPinListenerEE6insertEiS3_;2A.;size::(45,22)=#(45,1),(0,3),(45,23)=*(45,12),(0,6);:_ZNK6MAUtil6VectorIPN8NativeUI14MapPinListenerEE4sizeEv;2B.;resize::(45,19):_ZN6MAUtil6VectorIPN8NativeUI14MapPinListenerEE6resizeEi;2A.;reserve::(45,19):_ZN6MAUtil6VectorIPN8NativeUI14MapPinListenerEE7reserveEi;2A.;clear::(45,13):_ZN6MAUtil6VectorIPN8NativeUI14MapPinListenerEE5clearEv;2A.;empty::(45,24)=#(45,1),(0,4),(45,23),(0,6);:_ZNK6MAUtil6VectorIPN8NativeUI14MapPinListenerEE5emptyEv;2B.;capacity::(45,22):_ZNK6MAUtil6VectorIPN8NativeUI14MapPinListenerEE8capacityEv;2B.;begin::(45,25)=#(45,1),(45,2),(45,6),(0,6);:_ZN6MAUtil6VectorIPN8NativeUI14MapPinListenerEE5beginEv;2A.;end::(45,25):_ZN6MAUtil6VectorIPN8NativeUI14MapPinListenerEE3endEv;2A.;begin::(45,26)=#(45,1),(45,8),(45,23),(0,6);:_ZNK6MAUtil6VectorIPN8NativeUI14MapPinListenerEE5beginEv;2B.;end::(45,26):_ZNK6MAUtil6VectorIPN8NativeUI14MapPinListenerEE3endEv;2B.;operator[]::(45,27)=#(45,1),(45,28)=&(45,3),(45,6),(0,3),(0,6);:_ZN6MAUtil6VectorIPN8NativeUI14MapPinListenerEEixEi;2A.(45,29)=#(45,1),(45,17),(45,23),(0,3),(0,6);:_ZNK6MAUtil6VectorIPN8NativeUI14MapPinListenerEEixEi;2B.;pointer::(45,26):_ZNK6MAUtil6VectorIPN8NativeUI14MapPinListenerEE7pointerEv;2B.(45,25):_ZN6MAUtil6VectorIPN8NativeUI14MapPinListenerEE7pointerEv;2A.;;",128,0,95,0
	.stabn	162,0,0,0
	.stabs	"c:/MoSync/include/NativeUI/MapRegion.h",130,0,0,0
	.stabs	"MapRegion:Tt(47,1)=s8mUpperLeftCorner:/0(44,3),0,32;mLowerRightCorner:/0(44,3),32,32;__base_ctor::(47,2)=#(47,1),(0,6),(47,3)=*(47,1),(0,6);:_ZN8NativeUI9MapRegionC2Ev;2A.;__comp_ctor::(47,2):_ZN8NativeUI9MapRegionC1Ev;2A.;__base_ctor::(47,4)=#(47,1),(0,6),(47,3),(44,1),(44,1),(0,6);:_ZN8NativeUI9MapRegionC2ENS_8LocationES1_;2A.;__comp_ctor::(47,4):_ZN8NativeUI9MapRegionC1ENS_8LocationES1_;2A.;__base_dtor::(47,2):_ZN8NativeUI9MapRegionD2Ev;2A.;__comp_dtor::(47,2):_ZN8NativeUI9MapRegionD1Ev;2A.;setUpperLeftCorner::(47,5)=#(47,1),(0,6),(47,3),(44,3),(0,6);:_ZN8NativeUI9MapRegion18setUpperLeftCornerEPNS_8LocationE;2A.;getUpperLeftCorner::(47,6)=#(47,1),(44,10),(47,7)=*(47,8)=k(47,1),(0,6);:_ZNK8NativeUI9MapRegion18getUpperLeftCornerEv;2B.;setLowerRightCorner::(47,5):_ZN8NativeUI9MapRegion19setLowerRightCornerEPNS_8LocationE;2A.;getLowerRightCorner::(47,6):_ZNK8NativeUI9MapRegion19getLowerRightCornerEv;2B.;operator=::(47,9)=#(47,1),(47,10)=&(47,1),(47,3),(47,11)=&(47,8),(0,6);:_ZN8NativeUI9MapRegionaSERKS0_;2A.;__base_ctor::(47,12)=#(47,1),(0,6),(47,3),(47,11),(0,6);:_ZN8NativeUI9MapRegionC2ERKS0_;2A.;__comp_ctor::(47,12):_ZN8NativeUI9MapRegionC1ERKS0_;2A.;;",128,0,43,0
	.stabn	162,0,0,0
	.stabs	"MapType:t(42,1)=eMAP_TYPE_ROAD:0,MAP_TYPE_SATELLITE:1,;",128,0,60,0
	.stabs	"Vector<NativeUI::MapListener*>:Tt(42,2)=s12mSize:/1(0,3),0,32;mCapacity:/1(0,3),32,32;mData:/1(42,3)=*(42,4)=*(42,5)=xsMapListener:,64,32;__base_ctor::(42,6)=#(42,2),(0,6),(42,7)=*(42,2),(0,3),(0,6);:_ZN6MAUtil6VectorIPN8NativeUI11MapListenerEEC2Ei;2A.;__comp_ctor::(42,6):_ZN6MAUtil6VectorIPN8NativeUI11MapListenerEEC1Ei;2A.;__base_ctor::(42,8)=#(42,2),(0,6),(42,7),(42,9)=*(42,10)=k(42,4),(0,3),(0,6);:_ZN6MAUtil6VectorIPN8NativeUI11MapListenerEEC2EPKS3_i;2A.;__comp_ctor::(42,8):_ZN6MAUtil6VectorIPN8NativeUI11MapListenerEEC1EPKS3_i;2A.;__base_ctor::(42,11)=#(42,2),(0,6),(42,7),(42,12)=&(42,13)=k(42,2),(0,6);:_ZN6MAUtil6VectorIPN8NativeUI11MapListenerEEC2ERKS4_;2A.;__comp_ctor::(42,11):_ZN6MAUtil6VectorIPN8NativeUI11MapListenerEEC1ERKS4_;2A.;__base_dtor::(42,14)=#(42,2),(0,6),(42,7),(0,6);:_ZN6MAUtil6VectorIPN8NativeUI11MapListenerEED2Ev;2A.;__comp_dtor::(42,14):_ZN6MAUtil6VectorIPN8NativeUI11MapListenerEED1Ev;2A.;operator=::(42,15)=#(42,2),(42,16)=&(42,2),(42,7),(42,12),(0,6);:_ZN6MAUtil6VectorIPN8NativeUI11MapListenerEEaSERKS4_;2A.;add::(42,17)=#(42,2),(0,6),(42,7),(42,18)=&(42,10),(0,6);:_ZN6MAUtil6VectorIPN8NativeUI11MapListenerEE3addERKS3_;2A.(42,8):_ZN6MAUtil6VectorIPN8NativeUI11MapListenerEE3addEPKS3_i;2A.;remove::(42,19)=#(42,2),(0,6),(42,7),(42,3),(0,6);:_ZN6MAUtil6VectorIPN8NativeUI11MapListenerEE6removeEPS3_;2A.(42,20)=#(42,2),(0,6),(42,7),(0,3),(0,6);:_ZN6MAUtil6VectorIPN8NativeUI11MapListenerEE6removeEi;2A.(42,21)=#(42,2),(0,6),(42,7),(0,3),(0,3),(0,6);:_ZN6MAUtil6VectorIPN8NativeUI11MapListenerEE6removeEii;2A.;insert::(42,22)=#(42,2),(0,6),(42,7),(0,3),(42,4),(0,6);:_ZN6MAUtil6VectorIPN8NativeUI11MapListenerEE6insertEiS3_;2A.;size::(42,23)=#(42,2),(0,3),(42,24)=*(42,13),(0,6);:_ZNK6MAUtil6VectorIPN8NativeUI11MapListenerEE4sizeEv;2B.;resize::(42,20):_ZN6MAUtil6VectorIPN8NativeUI11MapListenerEE6resizeEi;2A.;reserve::(42,20):_ZN6MAUtil6VectorIPN8NativeUI11MapListenerEE7reserveEi;2A.;clear::(42,14):_ZN6MAUtil6VectorIPN8NativeUI11MapListenerEE5clearEv;2A.;empty::(42,25)=#(42,2),(0,4),(42,24),(0,6);:_ZNK6MAUtil6VectorIPN8NativeUI11MapListenerEE5emptyEv;2B.;capacity::(42,23):_ZNK6MAUtil6VectorIPN8NativeUI11MapListenerEE8capacityEv;2B.;begin::(42,26)=#(42,2),(42,3),(42,7),(0,6);:_ZN6MAUtil6VectorIPN8NativeUI11MapListenerEE5beginEv;2A.;end::(42,26):_ZN6MAUtil6VectorIPN8NativeUI11MapListenerEE3endEv;2A.;begin::(42,27)=#(42,2),(42,9),(42,24),(0,6);:_ZNK6MAUtil6VectorIPN8NativeUI11MapListenerEE5beginEv;2B.;end::(42,27):_ZNK6MAUtil6VectorIPN8NativeUI11MapListenerEE3endEv;2B.;operator[]::(42,28)=#(42,2),(42,29)=&(42,4),(42,7),(0,3),(0,6);:_ZN6MAUtil6VectorIPN8NativeUI11MapListenerEEixEi;2A.(42,30)=#(42,2),(42,18),(42,24),(0,3),(0,6);:_ZNK6MAUtil6VectorIPN8NativeUI11MapListenerEEixEi;2B.;pointer::(42,27):_ZNK6MAUtil6VectorIPN8NativeUI11MapListenerEE7pointerEv;2B.(42,26):_ZN6MAUtil6VectorIPN8NativeUI11MapListenerEE7pointerEv;2A.;;",128,0,95,0
	.stabn	162,0,0,0
	.stabs	"c:/MoSync/include/NativeUI/MapListener.h",130,0,0,0
	.stabn	162,0,0,0
	.stabs	"c:/MoSync/include/NativeUI/NavigationBar.h",130,0,0,0
	.stabs	"Vector<NativeUI::NavigationBarListener*>:Tt(49,1)=s12mSize:/1(0,3),0,32;mCapacity:/1(0,3),32,32;mData:/1(49,2)=*(49,3)=*(49,4)=xsNavigationBarListener:,64,32;__base_ctor::(49,5)=#(49,1),(0,6),(49,6)=*(49,1),(0,3),(0,6);:_ZN6MAUtil6VectorIPN8NativeUI21NavigationBarListenerEEC2Ei;2A.;__comp_ctor::(49,5):_ZN6MAUtil6VectorIPN8NativeUI21NavigationBarListenerEEC1Ei;2A.;__base_ctor::(49,7)=#(49,1),(0,6),(49,6),(49,8)=*(49,9)=k(49,3),(0,3),(0,6);:_ZN6MAUtil6VectorIPN8NativeUI21NavigationBarListenerEEC2EPKS3_i;2A.;__comp_ctor::(49,7):_ZN6MAUtil6VectorIPN8NativeUI21NavigationBarListenerEEC1EPKS3_i;2A.;__base_ctor::(49,10)=#(49,1),(0,6),(49,6),(49,11)=&(49,12)=k(49,1),(0,6);:_ZN6MAUtil6VectorIPN8NativeUI21NavigationBarListenerEEC2ERKS4_;2A.;__comp_ctor::(49,10):_ZN6MAUtil6VectorIPN8NativeUI21NavigationBarListenerEEC1ERKS4_;2A.;__base_dtor::(49,13)=#(49,1),(0,6),(49,6),(0,6);:_ZN6MAUtil6VectorIPN8NativeUI21NavigationBarListenerEED2Ev;2A.;__comp_dtor::(49,13):_ZN6MAUtil6VectorIPN8NativeUI21NavigationBarListenerEED1Ev;2A.;operator=::(49,14)=#(49,1),(49,15)=&(49,1),(49,6),(49,11),(0,6);:_ZN6MAUtil6VectorIPN8NativeUI21NavigationBarListenerEEaSERKS4_;2A.;add::(49,16)=#(49,1),(0,6),(49,6),(49,17)=&(49,9),(0,6);:_ZN6MAUtil6VectorIPN8NativeUI21NavigationBarListenerEE3addERKS3_;2A.(49,7):_ZN6MAUtil6VectorIPN8NativeUI21NavigationBarListenerEE3addEPKS3_i;2A.;remove::(49,18)=#(49,1),(0,6),(49,6),(49,2),(0,6);:_ZN6MAUtil6VectorIPN8NativeUI21NavigationBarListenerEE6removeEPS3_;2A.(49,19)=#(49,1),(0,6),(49,6),(0,3),(0,6);:_ZN6MAUtil6VectorIPN8NativeUI21NavigationBarListenerEE6removeEi;2A.(49,20)=#(49,1),(0,6),(49,6),(0,3),(0,3),(0,6);:_ZN6MAUtil6VectorIPN8NativeUI21NavigationBarListenerEE6removeEii;2A.;insert::(49,21)=#(49,1),(0,6),(49,6),(0,3),(49,3),(0,6);:_ZN6MAUtil6VectorIPN8NativeUI21NavigationBarListenerEE6insertEiS3_;2A.;size::(49,22)=#(49,1),(0,3),(49,23)=*(49,12),(0,6);:_ZNK6MAUtil6VectorIPN8NativeUI21NavigationBarListenerEE4sizeEv;2B.;resize::(49,19):_ZN6MAUtil6VectorIPN8NativeUI21NavigationBarListenerEE6resizeEi;2A.;reserve::(49,19):_ZN6MAUtil6VectorIPN8NativeUI21NavigationBarListenerEE7reserveEi;2A.;clear::(49,13):_ZN6MAUtil6VectorIPN8NativeUI21NavigationBarListenerEE5clearEv;2A.;empty::(49,24)=#(49,1),(0,4),(49,23),(0,6);:_ZNK6MAUtil6VectorIPN8NativeUI21NavigationBarListenerEE5emptyEv;2B.;capacity::(49,22):_ZNK6MAUtil6VectorIPN8NativeUI21NavigationBarListenerEE8capacityEv;2B.;begin::(49,25)=#(49,1),(49,2),(49,6),(0,6);:_ZN6MAUtil6VectorIPN8NativeUI21NavigationBarListenerEE5beginEv;2A.;end::(49,25):_ZN6MAUtil6VectorIPN8NativeUI21NavigationBarListenerEE3endEv;2A.;begin::(49,26)=#(49,1),(49,8),(49,23),(0,6);:_ZNK6MAUtil6VectorIPN8NativeUI21NavigationBarListenerEE5beginEv;2B.;end::(49,26):_ZNK6MAUtil6VectorIPN8NativeUI21NavigationBarListenerEE3endEv;2B.;operator[]::(49,27)=#(49,1),(49,28)=&(49,3),(49,6),(0,3),(0,6);:_ZN6MAUtil6VectorIPN8NativeUI21NavigationBarListenerEEixEi;2A.(49,29)=#(49,1),(49,17),(49,23),(0,3),(0,6);:_ZNK6MAUtil6VectorIPN8NativeUI21NavigationBarListenerEEixEi;2B.;pointer::(49,26):_ZNK6MAUtil6VectorIPN8NativeUI21NavigationBarListenerEE7pointerEv;2B.(49,25):_ZN6MAUtil6VectorIPN8NativeUI21NavigationBarListenerEE7pointerEv;2A.;;",128,0,95,0
	.stabn	162,0,0,0
	.stabs	"c:/MoSync/include/NativeUI/NavigationBarListener.h",130,0,0,0
	.stabn	162,0,0,0
	.stabs	"c:/MoSync/include/NativeUI/NumberPicker.h",130,0,0,0
	.stabs	"Vector<NativeUI::NumberPickerListener*>:Tt(51,1)=s12mSize:/1(0,3),0,32;mCapacity:/1(0,3),32,32;mData:/1(51,2)=*(51,3)=*(51,4)=xsNumberPickerListener:,64,32;__base_ctor::(51,5)=#(51,1),(0,6),(51,6)=*(51,1),(0,3),(0,6);:_ZN6MAUtil6VectorIPN8NativeUI20NumberPickerListenerEEC2Ei;2A.;__comp_ctor::(51,5):_ZN6MAUtil6VectorIPN8NativeUI20NumberPickerListenerEEC1Ei;2A.;__base_ctor::(51,7)=#(51,1),(0,6),(51,6),(51,8)=*(51,9)=k(51,3),(0,3),(0,6);:_ZN6MAUtil6VectorIPN8NativeUI20NumberPickerListenerEEC2EPKS3_i;2A.;__comp_ctor::(51,7):_ZN6MAUtil6VectorIPN8NativeUI20NumberPickerListenerEEC1EPKS3_i;2A.;__base_ctor::(51,10)=#(51,1),(0,6),(51,6),(51,11)=&(51,12)=k(51,1),(0,6);:_ZN6MAUtil6VectorIPN8NativeUI20NumberPickerListenerEEC2ERKS4_;2A.;__comp_ctor::(51,10):_ZN6MAUtil6VectorIPN8NativeUI20NumberPickerListenerEEC1ERKS4_;2A.;__base_dtor::(51,13)=#(51,1),(0,6),(51,6),(0,6);:_ZN6MAUtil6VectorIPN8NativeUI20NumberPickerListenerEED2Ev;2A.;__comp_dtor::(51,13):_ZN6MAUtil6VectorIPN8NativeUI20NumberPickerListenerEED1Ev;2A.;operator=::(51,14)=#(51,1),(51,15)=&(51,1),(51,6),(51,11),(0,6);:_ZN6MAUtil6VectorIPN8NativeUI20NumberPickerListenerEEaSERKS4_;2A.;add::(51,16)=#(51,1),(0,6),(51,6),(51,17)=&(51,9),(0,6);:_ZN6MAUtil6VectorIPN8NativeUI20NumberPickerListenerEE3addERKS3_;2A.(51,7):_ZN6MAUtil6VectorIPN8NativeUI20NumberPickerListenerEE3addEPKS3_i;2A.;remove::(51,18)=#(51,1),(0,6),(51,6),(51,2),(0,6);:_ZN6MAUtil6VectorIPN8NativeUI20NumberPickerListenerEE6removeEPS3_;2A.(51,19)=#(51,1),(0,6),(51,6),(0,3),(0,6);:_ZN6MAUtil6VectorIPN8NativeUI20NumberPickerListenerEE6removeEi;2A.(51,20)=#(51,1),(0,6),(51,6),(0,3),(0,3),(0,6);:_ZN6MAUtil6VectorIPN8NativeUI20NumberPickerListenerEE6removeEii;2A.;insert::(51,21)=#(51,1),(0,6),(51,6),(0,3),(51,3),(0,6);:_ZN6MAUtil6VectorIPN8NativeUI20NumberPickerListenerEE6insertEiS3_;2A.;size::(51,22)=#(51,1),(0,3),(51,23)=*(51,12),(0,6);:_ZNK6MAUtil6VectorIPN8NativeUI20NumberPickerListenerEE4sizeEv;2B.;resize::(51,19):_ZN6MAUtil6VectorIPN8NativeUI20NumberPickerListenerEE6resizeEi;2A.;reserve::(51,19):_ZN6MAUtil6VectorIPN8NativeUI20NumberPickerListenerEE7reserveEi;2A.;clear::(51,13):_ZN6MAUtil6VectorIPN8NativeUI20NumberPickerListenerEE5clearEv;2A.;empty::(51,24)=#(51,1),(0,4),(51,23),(0,6);:_ZNK6MAUtil6VectorIPN8NativeUI20NumberPickerListenerEE5emptyEv;2B.;capacity::(51,22):_ZNK6MAUtil6VectorIPN8NativeUI20NumberPickerListenerEE8capacityEv;2B.;begin::(51,25)=#(51,1),(51,2),(51,6),(0,6);:_ZN6MAUtil6VectorIPN8NativeUI20NumberPickerListenerEE5beginEv;2A.;end::(51,25):_ZN6MAUtil6VectorIPN8NativeUI20NumberPickerListenerEE3endEv;2A.;begin::(51,26)=#(51,1),(51,8),(51,23),(0,6);:_ZNK6MAUtil6VectorIPN8NativeUI20NumberPickerListenerEE5beginEv;2B.;end::(51,26):_ZNK6MAUtil6VectorIPN8NativeUI20NumberPickerListenerEE3endEv;2B.;operator[]::(51,27)=#(51,1),(51,28)=&(51,3),(51,6),(0,3),(0,6);:_ZN6MAUtil6VectorIPN8NativeUI20NumberPickerListenerEEixEi;2A.(51,29)=#(51,1),(51,17),(51,23),(0,3),(0,6);:_ZNK6MAUtil6VectorIPN8NativeUI20NumberPickerListenerEEixEi;2B.;pointer::(51,26):_ZNK6MAUtil6VectorIPN8NativeUI20NumberPickerListenerEE7pointerEv;2B.(51,25):_ZN6MAUtil6VectorIPN8NativeUI20NumberPickerListenerEE7pointerEv;2A.;;",128,0,95,0
	.stabn	162,0,0,0
	.stabs	"c:/MoSync/include/NativeUI/NumberPickerListener.h",130,0,0,0
	.stabn	162,0,0,0
	.stabs	"c:/MoSync/include/NativeUI/PanoramaView.h",130,0,0,0
	.stabs	"c:/MoSync/include/NativeUI/Screen.h",130,0,0,0
	.stabs	"Vector<NativeUI::ScreenListener*>:Tt(54,1)=s12mSize:/1(0,3),0,32;mCapacity:/1(0,3),32,32;mData:/1(54,2)=*(54,3)=*(54,4)=xsScreenListener:,64,32;__base_ctor::(54,5)=#(54,1),(0,6),(54,6)=*(54,1),(0,3),(0,6);:_ZN6MAUtil6VectorIPN8NativeUI14ScreenListenerEEC2Ei;2A.;__comp_ctor::(54,5):_ZN6MAUtil6VectorIPN8NativeUI14ScreenListenerEEC1Ei;2A.;__base_ctor::(54,7)=#(54,1),(0,6),(54,6),(54,8)=*(54,9)=k(54,3),(0,3),(0,6);:_ZN6MAUtil6VectorIPN8NativeUI14ScreenListenerEEC2EPKS3_i;2A.;__comp_ctor::(54,7):_ZN6MAUtil6VectorIPN8NativeUI14ScreenListenerEEC1EPKS3_i;2A.;__base_ctor::(54,10)=#(54,1),(0,6),(54,6),(54,11)=&(54,12)=k(54,1),(0,6);:_ZN6MAUtil6VectorIPN8NativeUI14ScreenListenerEEC2ERKS4_;2A.;__comp_ctor::(54,10):_ZN6MAUtil6VectorIPN8NativeUI14ScreenListenerEEC1ERKS4_;2A.;__base_dtor::(54,13)=#(54,1),(0,6),(54,6),(0,6);:_ZN6MAUtil6VectorIPN8NativeUI14ScreenListenerEED2Ev;2A.;__comp_dtor::(54,13):_ZN6MAUtil6VectorIPN8NativeUI14ScreenListenerEED1Ev;2A.;operator=::(54,14)=#(54,1),(54,15)=&(54,1),(54,6),(54,11),(0,6);:_ZN6MAUtil6VectorIPN8NativeUI14ScreenListenerEEaSERKS4_;2A.;add::(54,16)=#(54,1),(0,6),(54,6),(54,17)=&(54,9),(0,6);:_ZN6MAUtil6VectorIPN8NativeUI14ScreenListenerEE3addERKS3_;2A.(54,7):_ZN6MAUtil6VectorIPN8NativeUI14ScreenListenerEE3addEPKS3_i;2A.;remove::(54,18)=#(54,1),(0,6),(54,6),(54,2),(0,6);:_ZN6MAUtil6VectorIPN8NativeUI14ScreenListenerEE6removeEPS3_;2A.(54,19)=#(54,1),(0,6),(54,6),(0,3),(0,6);:_ZN6MAUtil6VectorIPN8NativeUI14ScreenListenerEE6removeEi;2A.(54,20)=#(54,1),(0,6),(54,6),(0,3),(0,3),(0,6);:_ZN6MAUtil6VectorIPN8NativeUI14ScreenListenerEE6removeEii;2A.;insert::(54,21)=#(54,1),(0,6),(54,6),(0,3),(54,3),(0,6);:_ZN6MAUtil6VectorIPN8NativeUI14ScreenListenerEE6insertEiS3_;2A.;size::(54,22)=#(54,1),(0,3),(54,23)=*(54,12),(0,6);:_ZNK6MAUtil6VectorIPN8NativeUI14ScreenListenerEE4sizeEv;2B.;resize::(54,19):_ZN6MAUtil6VectorIPN8NativeUI14ScreenListenerEE6resizeEi;2A.;reserve::(54,19):_ZN6MAUtil6VectorIPN8NativeUI14ScreenListenerEE7reserveEi;2A.;clear::(54,13):_ZN6MAUtil6VectorIPN8NativeUI14ScreenListenerEE5clearEv;2A.;empty::(54,24)=#(54,1),(0,4),(54,23),(0,6);:_ZNK6MAUtil6VectorIPN8NativeUI14ScreenListenerEE5emptyEv;2B.;capacity::(54,22):_ZNK6MAUtil6VectorIPN8NativeUI14ScreenListenerEE8capacityEv;2B.;begin::(54,25)=#(54,1),(54,2),(54,6),(0,6);:_ZN6MAUtil6VectorIPN8NativeUI14ScreenListenerEE5beginEv;2A.;end::(54,25):_ZN6MAUtil6VectorIPN8NativeUI14ScreenListenerEE3endEv;2A.;begin::(54,26)=#(54,1),(54,8),(54,23),(0,6);:_ZNK6MAUtil6VectorIPN8NativeUI14ScreenListenerEE5beginEv;2B.;end::(54,26):_ZNK6MAUtil6VectorIPN8NativeUI14ScreenListenerEE3endEv;2B.;operator[]::(54,27)=#(54,1),(54,28)=&(54,3),(54,6),(0,3),(0,6);:_ZN6MAUtil6VectorIPN8NativeUI14ScreenListenerEEixEi;2A.(54,29)=#(54,1),(54,17),(54,23),(0,3),(0,6);:_ZNK6MAUtil6VectorIPN8NativeUI14ScreenListenerEEixEi;2B.;pointer::(54,26):_ZNK6MAUtil6VectorIPN8NativeUI14ScreenListenerEE7pointerEv;2B.(54,25):_ZN6MAUtil6VectorIPN8NativeUI14ScreenListenerEE7pointerEv;2A.;;",128,0,95,0
	.stabn	162,0,0,0
	.stabn	162,0,0,0
	.stabs	"c:/MoSync/include/NativeUI/ProgressBar.h",130,0,0,0
	.stabn	162,0,0,0
	.stabs	"c:/MoSync/include/NativeUI/RadioButton.h",130,0,0,0
	.stabs	"Vector<NativeUI::RadioButtonListener*>:Tt(56,1)=s12mSize:/1(0,3),0,32;mCapacity:/1(0,3),32,32;mData:/1(56,2)=*(56,3)=*(56,4)=xsRadioButtonListener:,64,32;__base_ctor::(56,5)=#(56,1),(0,6),(56,6)=*(56,1),(0,3),(0,6);:_ZN6MAUtil6VectorIPN8NativeUI19RadioButtonListenerEEC2Ei;2A.;__comp_ctor::(56,5):_ZN6MAUtil6VectorIPN8NativeUI19RadioButtonListenerEEC1Ei;2A.;__base_ctor::(56,7)=#(56,1),(0,6),(56,6),(56,8)=*(56,9)=k(56,3),(0,3),(0,6);:_ZN6MAUtil6VectorIPN8NativeUI19RadioButtonListenerEEC2EPKS3_i;2A.;__comp_ctor::(56,7):_ZN6MAUtil6VectorIPN8NativeUI19RadioButtonListenerEEC1EPKS3_i;2A.;__base_ctor::(56,10)=#(56,1),(0,6),(56,6),(56,11)=&(56,12)=k(56,1),(0,6);:_ZN6MAUtil6VectorIPN8NativeUI19RadioButtonListenerEEC2ERKS4_;2A.;__comp_ctor::(56,10):_ZN6MAUtil6VectorIPN8NativeUI19RadioButtonListenerEEC1ERKS4_;2A.;__base_dtor::(56,13)=#(56,1),(0,6),(56,6),(0,6);:_ZN6MAUtil6VectorIPN8NativeUI19RadioButtonListenerEED2Ev;2A.;__comp_dtor::(56,13):_ZN6MAUtil6VectorIPN8NativeUI19RadioButtonListenerEED1Ev;2A.;operator=::(56,14)=#(56,1),(56,15)=&(56,1),(56,6),(56,11),(0,6);:_ZN6MAUtil6VectorIPN8NativeUI19RadioButtonListenerEEaSERKS4_;2A.;add::(56,16)=#(56,1),(0,6),(56,6),(56,17)=&(56,9),(0,6);:_ZN6MAUtil6VectorIPN8NativeUI19RadioButtonListenerEE3addERKS3_;2A.(56,7):_ZN6MAUtil6VectorIPN8NativeUI19RadioButtonListenerEE3addEPKS3_i;2A.;remove::(56,18)=#(56,1),(0,6),(56,6),(56,2),(0,6);:_ZN6MAUtil6VectorIPN8NativeUI19RadioButtonListenerEE6removeEPS3_;2A.(56,19)=#(56,1),(0,6),(56,6),(0,3),(0,6);:_ZN6MAUtil6VectorIPN8NativeUI19RadioButtonListenerEE6removeEi;2A.(56,20)=#(56,1),(0,6),(56,6),(0,3),(0,3),(0,6);:_ZN6MAUtil6VectorIPN8NativeUI19RadioButtonListenerEE6removeEii;2A.;insert::(56,21)=#(56,1),(0,6),(56,6),(0,3),(56,3),(0,6);:_ZN6MAUtil6VectorIPN8NativeUI19RadioButtonListenerEE6insertEiS3_;2A.;size::(56,22)=#(56,1),(0,3),(56,23)=*(56,12),(0,6);:_ZNK6MAUtil6VectorIPN8NativeUI19RadioButtonListenerEE4sizeEv;2B.;resize::(56,19):_ZN6MAUtil6VectorIPN8NativeUI19RadioButtonListenerEE6resizeEi;2A.;reserve::(56,19):_ZN6MAUtil6VectorIPN8NativeUI19RadioButtonListenerEE7reserveEi;2A.;clear::(56,13):_ZN6MAUtil6VectorIPN8NativeUI19RadioButtonListenerEE5clearEv;2A.;empty::(56,24)=#(56,1),(0,4),(56,23),(0,6);:_ZNK6MAUtil6VectorIPN8NativeUI19RadioButtonListenerEE5emptyEv;2B.;capacity::(56,22):_ZNK6MAUtil6VectorIPN8NativeUI19RadioButtonListenerEE8capacityEv;2B.;begin::(56,25)=#(56,1),(56,2),(56,6),(0,6);:_ZN6MAUtil6VectorIPN8NativeUI19RadioButtonListenerEE5beginEv;2A.;end::(56,25):_ZN6MAUtil6VectorIPN8NativeUI19RadioButtonListenerEE3endEv;2A.;begin::(56,26)=#(56,1),(56,8),(56,23),(0,6);:_ZNK6MAUtil6VectorIPN8NativeUI19RadioButtonListenerEE5beginEv;2B.;end::(56,26):_ZNK6MAUtil6VectorIPN8NativeUI19RadioButtonListenerEE3endEv;2B.;operator[]::(56,27)=#(56,1),(56,28)=&(56,3),(56,6),(0,3),(0,6);:_ZN6MAUtil6VectorIPN8NativeUI19RadioButtonListenerEEixEi;2A.(56,29)=#(56,1),(56,17),(56,23),(0,3),(0,6);:_ZNK6MAUtil6VectorIPN8NativeUI19RadioButtonListenerEEixEi;2B.;pointer::(56,26):_ZNK6MAUtil6VectorIPN8NativeUI19RadioButtonListenerEE7pointerEv;2B.(56,25):_ZN6MAUtil6VectorIPN8NativeUI19RadioButtonListenerEE7pointerEv;2A.;;",128,0,95,0
	.stabn	162,0,0,0
	.stabs	"c:/MoSync/include/NativeUI/RadioButtonListener.h",130,0,0,0
	.stabn	162,0,0,0
	.stabs	"c:/MoSync/include/NativeUI/RadioGroup.h",130,0,0,0
	.stabs	"Vector<NativeUI::RadioGroupListener*>:Tt(58,1)=s12mSize:/1(0,3),0,32;mCapacity:/1(0,3),32,32;mData:/1(58,2)=*(58,3)=*(58,4)=xsRadioGroupListener:,64,32;__base_ctor::(58,5)=#(58,1),(0,6),(58,6)=*(58,1),(0,3),(0,6);:_ZN6MAUtil6VectorIPN8NativeUI18RadioGroupListenerEEC2Ei;2A.;__comp_ctor::(58,5):_ZN6MAUtil6VectorIPN8NativeUI18RadioGroupListenerEEC1Ei;2A.;__base_ctor::(58,7)=#(58,1),(0,6),(58,6),(58,8)=*(58,9)=k(58,3),(0,3),(0,6);:_ZN6MAUtil6VectorIPN8NativeUI18RadioGroupListenerEEC2EPKS3_i;2A.;__comp_ctor::(58,7):_ZN6MAUtil6VectorIPN8NativeUI18RadioGroupListenerEEC1EPKS3_i;2A.;__base_ctor::(58,10)=#(58,1),(0,6),(58,6),(58,11)=&(58,12)=k(58,1),(0,6);:_ZN6MAUtil6VectorIPN8NativeUI18RadioGroupListenerEEC2ERKS4_;2A.;__comp_ctor::(58,10):_ZN6MAUtil6VectorIPN8NativeUI18RadioGroupListenerEEC1ERKS4_;2A.;__base_dtor::(58,13)=#(58,1),(0,6),(58,6),(0,6);:_ZN6MAUtil6VectorIPN8NativeUI18RadioGroupListenerEED2Ev;2A.;__comp_dtor::(58,13):_ZN6MAUtil6VectorIPN8NativeUI18RadioGroupListenerEED1Ev;2A.;operator=::(58,14)=#(58,1),(58,15)=&(58,1),(58,6),(58,11),(0,6);:_ZN6MAUtil6VectorIPN8NativeUI18RadioGroupListenerEEaSERKS4_;2A.;add::(58,16)=#(58,1),(0,6),(58,6),(58,17)=&(58,9),(0,6);:_ZN6MAUtil6VectorIPN8NativeUI18RadioGroupListenerEE3addERKS3_;2A.(58,7):_ZN6MAUtil6VectorIPN8NativeUI18RadioGroupListenerEE3addEPKS3_i;2A.;remove::(58,18)=#(58,1),(0,6),(58,6),(58,2),(0,6);:_ZN6MAUtil6VectorIPN8NativeUI18RadioGroupListenerEE6removeEPS3_;2A.(58,19)=#(58,1),(0,6),(58,6),(0,3),(0,6);:_ZN6MAUtil6VectorIPN8NativeUI18RadioGroupListenerEE6removeEi;2A.(58,20)=#(58,1),(0,6),(58,6),(0,3),(0,3),(0,6);:_ZN6MAUtil6VectorIPN8NativeUI18RadioGroupListenerEE6removeEii;2A.;insert::(58,21)=#(58,1),(0,6),(58,6),(0,3),(58,3),(0,6);:_ZN6MAUtil6VectorIPN8NativeUI18RadioGroupListenerEE6insertEiS3_;2A.;size::(58,22)=#(58,1),(0,3),(58,23)=*(58,12),(0,6);:_ZNK6MAUtil6VectorIPN8NativeUI18RadioGroupListenerEE4sizeEv;2B.;resize::(58,19):_ZN6MAUtil6VectorIPN8NativeUI18RadioGroupListenerEE6resizeEi;2A.;reserve::(58,19):_ZN6MAUtil6VectorIPN8NativeUI18RadioGroupListenerEE7reserveEi;2A.;clear::(58,13):_ZN6MAUtil6VectorIPN8NativeUI18RadioGroupListenerEE5clearEv;2A.;empty::(58,24)=#(58,1),(0,4),(58,23),(0,6);:_ZNK6MAUtil6VectorIPN8NativeUI18RadioGroupListenerEE5emptyEv;2B.;capacity::(58,22):_ZNK6MAUtil6VectorIPN8NativeUI18RadioGroupListenerEE8capacityEv;2B.;begin::(58,25)=#(58,1),(58,2),(58,6),(0,6);:_ZN6MAUtil6VectorIPN8NativeUI18RadioGroupListenerEE5beginEv;2A.;end::(58,25):_ZN6MAUtil6VectorIPN8NativeUI18RadioGroupListenerEE3endEv;2A.;begin::(58,26)=#(58,1),(58,8),(58,23),(0,6);:_ZNK6MAUtil6VectorIPN8NativeUI18RadioGroupListenerEE5beginEv;2B.;end::(58,26):_ZNK6MAUtil6VectorIPN8NativeUI18RadioGroupListenerEE3endEv;2B.;operator[]::(58,27)=#(58,1),(58,28)=&(58,3),(58,6),(0,3),(0,6);:_ZN6MAUtil6VectorIPN8NativeUI18RadioGroupListenerEEixEi;2A.(58,29)=#(58,1),(58,17),(58,23),(0,3),(0,6);:_ZNK6MAUtil6VectorIPN8NativeUI18RadioGroupListenerEEixEi;2B.;pointer::(58,26):_ZNK6MAUtil6VectorIPN8NativeUI18RadioGroupListenerEE7pointerEv;2B.(58,25):_ZN6MAUtil6VectorIPN8NativeUI18RadioGroupListenerEE7pointerEv;2A.;;",128,0,95,0
	.stabs	"Vector<NativeUI::RadioButton*>:Tt(58,30)=s12mSize:/1(0,3),0,32;mCapacity:/1(0,3),32,32;mData:/1(58,31)=*(58,32)=*(58,33)=xsRadioButton:,64,32;__base_ctor::(58,34)=#(58,30),(0,6),(58,35)=*(58,30),(0,3),(0,6);:_ZN6MAUtil6VectorIPN8NativeUI11RadioButtonEEC2Ei;2A.;__comp_ctor::(58,34):_ZN6MAUtil6VectorIPN8NativeUI11RadioButtonEEC1Ei;2A.;__base_ctor::(58,36)=#(58,30),(0,6),(58,35),(58,37)=*(58,38)=k(58,32),(0,3),(0,6);:_ZN6MAUtil6VectorIPN8NativeUI11RadioButtonEEC2EPKS3_i;2A.;__comp_ctor::(58,36):_ZN6MAUtil6VectorIPN8NativeUI11RadioButtonEEC1EPKS3_i;2A.;__base_ctor::(58,39)=#(58,30),(0,6),(58,35),(58,40)=&(58,41)=k(58,30),(0,6);:_ZN6MAUtil6VectorIPN8NativeUI11RadioButtonEEC2ERKS4_;2A.;__comp_ctor::(58,39):_ZN6MAUtil6VectorIPN8NativeUI11RadioButtonEEC1ERKS4_;2A.;__base_dtor::(58,42)=#(58,30),(0,6),(58,35),(0,6);:_ZN6MAUtil6VectorIPN8NativeUI11RadioButtonEED2Ev;2A.;__comp_dtor::(58,42):_ZN6MAUtil6VectorIPN8NativeUI11RadioButtonEED1Ev;2A.;operator=::(58,43)=#(58,30),(58,44)=&(58,30),(58,35),(58,40),(0,6);:_ZN6MAUtil6VectorIPN8NativeUI11RadioButtonEEaSERKS4_;2A.;add::(58,45)=#(58,30),(0,6),(58,35),(58,46)=&(58,38),(0,6);:_ZN6MAUtil6VectorIPN8NativeUI11RadioButtonEE3addERKS3_;2A.(58,36):_ZN6MAUtil6VectorIPN8NativeUI11RadioButtonEE3addEPKS3_i;2A.;remove::(58,47)=#(58,30),(0,6),(58,35),(58,31),(0,6);:_ZN6MAUtil6VectorIPN8NativeUI11RadioButtonEE6removeEPS3_;2A.(58,48)=#(58,30),(0,6),(58,35),(0,3),(0,6);:_ZN6MAUtil6VectorIPN8NativeUI11RadioButtonEE6removeEi;2A.(58,49)=#(58,30),(0,6),(58,35),(0,3),(0,3),(0,6);:_ZN6MAUtil6VectorIPN8NativeUI11RadioButtonEE6removeEii;2A.;insert::(58,50)=#(58,30),(0,6),(58,35),(0,3),(58,32),(0,6);:_ZN6MAUtil6VectorIPN8NativeUI11RadioButtonEE6insertEiS3_;2A.;size::(58,51)=#(58,30),(0,3),(58,52)=*(58,41),(0,6);:_ZNK6MAUtil6VectorIPN8NativeUI11RadioButtonEE4sizeEv;2B.;resize::(58,48):_ZN6MAUtil6VectorIPN8NativeUI11RadioButtonEE6resizeEi;2A.;reserve::(58,48):_ZN6MAUtil6VectorIPN8NativeUI11RadioButtonEE7reserveEi;2A.;clear::(58,42):_ZN6MAUtil6VectorIPN8NativeUI11RadioButtonEE5clearEv;2A.;empty::(58,53)=#(58,30),(0,4),(58,52),(0,6);:_ZNK6MAUtil6VectorIPN8NativeUI11RadioButtonEE5emptyEv;2B.;capacity::(58,51):_ZNK6MAUtil6VectorIPN8NativeUI11RadioButtonEE8capacityEv;2B.;begin::(58,54)=#(58,30),(58,31),(58,35),(0,6);:_ZN6MAUtil6VectorIPN8NativeUI11RadioButtonEE5beginEv;2A.;end::(58,54):_ZN6MAUtil6VectorIPN8NativeUI11RadioButtonEE3endEv;2A.;begin::(58,55)=#(58,30),(58,37),(58,52),(0,6);:_ZNK6MAUtil6VectorIPN8NativeUI11RadioButtonEE5beginEv;2B.;end::(58,55):_ZNK6MAUtil6VectorIPN8NativeUI11RadioButtonEE3endEv;2B.;operator[]::(58,56)=#(58,30),(58,57)=&(58,32),(58,35),(0,3),(0,6);:_ZN6MAUtil6VectorIPN8NativeUI11RadioButtonEEixEi;2A.(58,58)=#(58,30),(58,46),(58,52),(0,3),(0,6);:_ZNK6MAUtil6VectorIPN8NativeUI11RadioButtonEEixEi;2B.;pointer::(58,55):_ZNK6MAUtil6VectorIPN8NativeUI11RadioButtonEE7pointerEv;2B.(58,54):_ZN6MAUtil6VectorIPN8NativeUI11RadioButtonEE7pointerEv;2A.;;",128,0,95,0
	.stabn	162,0,0,0
	.stabs	"c:/MoSync/include/NativeUI/RadioGroupListener.h",130,0,0,0
	.stabn	162,0,0,0
	.stabs	"c:/MoSync/include/NativeUI/RatingBar.h",130,0,0,0
	.stabs	"Vector<NativeUI::RatingBarListener*>:Tt(60,1)=s12mSize:/1(0,3),0,32;mCapacity:/1(0,3),32,32;mData:/1(60,2)=*(60,3)=*(60,4)=xsRatingBarListener:,64,32;__base_ctor::(60,5)=#(60,1),(0,6),(60,6)=*(60,1),(0,3),(0,6);:_ZN6MAUtil6VectorIPN8NativeUI17RatingBarListenerEEC2Ei;2A.;__comp_ctor::(60,5):_ZN6MAUtil6VectorIPN8NativeUI17RatingBarListenerEEC1Ei;2A.;__base_ctor::(60,7)=#(60,1),(0,6),(60,6),(60,8)=*(60,9)=k(60,3),(0,3),(0,6);:_ZN6MAUtil6VectorIPN8NativeUI17RatingBarListenerEEC2EPKS3_i;2A.;__comp_ctor::(60,7):_ZN6MAUtil6VectorIPN8NativeUI17RatingBarListenerEEC1EPKS3_i;2A.;__base_ctor::(60,10)=#(60,1),(0,6),(60,6),(60,11)=&(60,12)=k(60,1),(0,6);:_ZN6MAUtil6VectorIPN8NativeUI17RatingBarListenerEEC2ERKS4_;2A.;__comp_ctor::(60,10):_ZN6MAUtil6VectorIPN8NativeUI17RatingBarListenerEEC1ERKS4_;2A.;__base_dtor::(60,13)=#(60,1),(0,6),(60,6),(0,6);:_ZN6MAUtil6VectorIPN8NativeUI17RatingBarListenerEED2Ev;2A.;__comp_dtor::(60,13):_ZN6MAUtil6VectorIPN8NativeUI17RatingBarListenerEED1Ev;2A.;operator=::(60,14)=#(60,1),(60,15)=&(60,1),(60,6),(60,11),(0,6);:_ZN6MAUtil6VectorIPN8NativeUI17RatingBarListenerEEaSERKS4_;2A.;add::(60,16)=#(60,1),(0,6),(60,6),(60,17)=&(60,9),(0,6);:_ZN6MAUtil6VectorIPN8NativeUI17RatingBarListenerEE3addERKS3_;2A.(60,7):_ZN6MAUtil6VectorIPN8NativeUI17RatingBarListenerEE3addEPKS3_i;2A.;remove::(60,18)=#(60,1),(0,6),(60,6),(60,2),(0,6);:_ZN6MAUtil6VectorIPN8NativeUI17RatingBarListenerEE6removeEPS3_;2A.(60,19)=#(60,1),(0,6),(60,6),(0,3),(0,6);:_ZN6MAUtil6VectorIPN8NativeUI17RatingBarListenerEE6removeEi;2A.(60,20)=#(60,1),(0,6),(60,6),(0,3),(0,3),(0,6);:_ZN6MAUtil6VectorIPN8NativeUI17RatingBarListenerEE6removeEii;2A.;insert::(60,21)=#(60,1),(0,6),(60,6),(0,3),(60,3),(0,6);:_ZN6MAUtil6VectorIPN8NativeUI17RatingBarListenerEE6insertEiS3_;2A.;size::(60,22)=#(60,1),(0,3),(60,23)=*(60,12),(0,6);:_ZNK6MAUtil6VectorIPN8NativeUI17RatingBarListenerEE4sizeEv;2B.;resize::(60,19):_ZN6MAUtil6VectorIPN8NativeUI17RatingBarListenerEE6resizeEi;2A.;reserve::(60,19):_ZN6MAUtil6VectorIPN8NativeUI17RatingBarListenerEE7reserveEi;2A.;clear::(60,13):_ZN6MAUtil6VectorIPN8NativeUI17RatingBarListenerEE5clearEv;2A.;empty::(60,24)=#(60,1),(0,4),(60,23),(0,6);:_ZNK6MAUtil6VectorIPN8NativeUI17RatingBarListenerEE5emptyEv;2B.;capacity::(60,22):_ZNK6MAUtil6VectorIPN8NativeUI17RatingBarListenerEE8capacityEv;2B.;begin::(60,25)=#(60,1),(60,2),(60,6),(0,6);:_ZN6MAUtil6VectorIPN8NativeUI17RatingBarListenerEE5beginEv;2A.;end::(60,25):_ZN6MAUtil6VectorIPN8NativeUI17RatingBarListenerEE3endEv;2A.;begin::(60,26)=#(60,1),(60,8),(60,23),(0,6);:_ZNK6MAUtil6VectorIPN8NativeUI17RatingBarListenerEE5beginEv;2B.;end::(60,26):_ZNK6MAUtil6VectorIPN8NativeUI17RatingBarListenerEE3endEv;2B.;operator[]::(60,27)=#(60,1),(60,28)=&(60,3),(60,6),(0,3),(0,6);:_ZN6MAUtil6VectorIPN8NativeUI17RatingBarListenerEEixEi;2A.(60,29)=#(60,1),(60,17),(60,23),(0,3),(0,6);:_ZNK6MAUtil6VectorIPN8NativeUI17RatingBarListenerEEixEi;2B.;pointer::(60,26):_ZNK6MAUtil6VectorIPN8NativeUI17RatingBarListenerEE7pointerEv;2B.(60,25):_ZN6MAUtil6VectorIPN8NativeUI17RatingBarListenerEE7pointerEv;2A.;;",128,0,95,0
	.stabn	162,0,0,0
	.stabs	"c:/MoSync/include/NativeUI/RatingBarListener.h",130,0,0,0
	.stabn	162,0,0,0
	.stabs	"c:/MoSync/include/NativeUI/RelativeLayout.h",130,0,0,0
	.stabn	162,0,0,0
	.stabs	"c:/MoSync/include/NativeUI/ScreenListener.h",130,0,0,0
	.stabn	162,0,0,0
	.stabs	"c:/MoSync/include/NativeUI/SearchBar.h",130,0,0,0
	.stabs	"Vector<NativeUI::SearchBarListener*>:Tt(64,1)=s12mSize:/1(0,3),0,32;mCapacity:/1(0,3),32,32;mData:/1(64,2)=*(64,3)=*(64,4)=xsSearchBarListener:,64,32;__base_ctor::(64,5)=#(64,1),(0,6),(64,6)=*(64,1),(0,3),(0,6);:_ZN6MAUtil6VectorIPN8NativeUI17SearchBarListenerEEC2Ei;2A.;__comp_ctor::(64,5):_ZN6MAUtil6VectorIPN8NativeUI17SearchBarListenerEEC1Ei;2A.;__base_ctor::(64,7)=#(64,1),(0,6),(64,6),(64,8)=*(64,9)=k(64,3),(0,3),(0,6);:_ZN6MAUtil6VectorIPN8NativeUI17SearchBarListenerEEC2EPKS3_i;2A.;__comp_ctor::(64,7):_ZN6MAUtil6VectorIPN8NativeUI17SearchBarListenerEEC1EPKS3_i;2A.;__base_ctor::(64,10)=#(64,1),(0,6),(64,6),(64,11)=&(64,12)=k(64,1),(0,6);:_ZN6MAUtil6VectorIPN8NativeUI17SearchBarListenerEEC2ERKS4_;2A.;__comp_ctor::(64,10):_ZN6MAUtil6VectorIPN8NativeUI17SearchBarListenerEEC1ERKS4_;2A.;__base_dtor::(64,13)=#(64,1),(0,6),(64,6),(0,6);:_ZN6MAUtil6VectorIPN8NativeUI17SearchBarListenerEED2Ev;2A.;__comp_dtor::(64,13):_ZN6MAUtil6VectorIPN8NativeUI17SearchBarListenerEED1Ev;2A.;operator=::(64,14)=#(64,1),(64,15)=&(64,1),(64,6),(64,11),(0,6);:_ZN6MAUtil6VectorIPN8NativeUI17SearchBarListenerEEaSERKS4_;2A.;add::(64,16)=#(64,1),(0,6),(64,6),(64,17)=&(64,9),(0,6);:_ZN6MAUtil6VectorIPN8NativeUI17SearchBarListenerEE3addERKS3_;2A.(64,7):_ZN6MAUtil6VectorIPN8NativeUI17SearchBarListenerEE3addEPKS3_i;2A.;remove::(64,18)=#(64,1),(0,6),(64,6),(64,2),(0,6);:_ZN6MAUtil6VectorIPN8NativeUI17SearchBarListenerEE6removeEPS3_;2A.(64,19)=#(64,1),(0,6),(64,6),(0,3),(0,6);:_ZN6MAUtil6VectorIPN8NativeUI17SearchBarListenerEE6removeEi;2A.(64,20)=#(64,1),(0,6),(64,6),(0,3),(0,3),(0,6);:_ZN6MAUtil6VectorIPN8NativeUI17SearchBarListenerEE6removeEii;2A.;insert::(64,21)=#(64,1),(0,6),(64,6),(0,3),(64,3),(0,6);:_ZN6MAUtil6VectorIPN8NativeUI17SearchBarListenerEE6insertEiS3_;2A.;size::(64,22)=#(64,1),(0,3),(64,23)=*(64,12),(0,6);:_ZNK6MAUtil6VectorIPN8NativeUI17SearchBarListenerEE4sizeEv;2B.;resize::(64,19):_ZN6MAUtil6VectorIPN8NativeUI17SearchBarListenerEE6resizeEi;2A.;reserve::(64,19):_ZN6MAUtil6VectorIPN8NativeUI17SearchBarListenerEE7reserveEi;2A.;clear::(64,13):_ZN6MAUtil6VectorIPN8NativeUI17SearchBarListenerEE5clearEv;2A.;empty::(64,24)=#(64,1),(0,4),(64,23),(0,6);:_ZNK6MAUtil6VectorIPN8NativeUI17SearchBarListenerEE5emptyEv;2B.;capacity::(64,22):_ZNK6MAUtil6VectorIPN8NativeUI17SearchBarListenerEE8capacityEv;2B.;begin::(64,25)=#(64,1),(64,2),(64,6),(0,6);:_ZN6MAUtil6VectorIPN8NativeUI17SearchBarListenerEE5beginEv;2A.;end::(64,25):_ZN6MAUtil6VectorIPN8NativeUI17SearchBarListenerEE3endEv;2A.;begin::(64,26)=#(64,1),(64,8),(64,23),(0,6);:_ZNK6MAUtil6VectorIPN8NativeUI17SearchBarListenerEE5beginEv;2B.;end::(64,26):_ZNK6MAUtil6VectorIPN8NativeUI17SearchBarListenerEE3endEv;2B.;operator[]::(64,27)=#(64,1),(64,28)=&(64,3),(64,6),(0,3),(0,6);:_ZN6MAUtil6VectorIPN8NativeUI17SearchBarListenerEEixEi;2A.(64,29)=#(64,1),(64,17),(64,23),(0,3),(0,6);:_ZNK6MAUtil6VectorIPN8NativeUI17SearchBarListenerEEixEi;2B.;pointer::(64,26):_ZNK6MAUtil6VectorIPN8NativeUI17SearchBarListenerEE7pointerEv;2B.(64,25):_ZN6MAUtil6VectorIPN8NativeUI17SearchBarListenerEE7pointerEv;2A.;;",128,0,95,0
	.stabn	162,0,0,0
	.stabs	"c:/MoSync/include/NativeUI/SearchBarListener.h",130,0,0,0
	.stabn	162,0,0,0
	.stabs	"c:/MoSync/include/NativeUI/Slider.h",130,0,0,0
	.stabs	"Vector<NativeUI::SliderListener*>:Tt(66,1)=s12mSize:/1(0,3),0,32;mCapacity:/1(0,3),32,32;mData:/1(66,2)=*(66,3)=*(66,4)=xsSliderListener:,64,32;__base_ctor::(66,5)=#(66,1),(0,6),(66,6)=*(66,1),(0,3),(0,6);:_ZN6MAUtil6VectorIPN8NativeUI14SliderListenerEEC2Ei;2A.;__comp_ctor::(66,5):_ZN6MAUtil6VectorIPN8NativeUI14SliderListenerEEC1Ei;2A.;__base_ctor::(66,7)=#(66,1),(0,6),(66,6),(66,8)=*(66,9)=k(66,3),(0,3),(0,6);:_ZN6MAUtil6VectorIPN8NativeUI14SliderListenerEEC2EPKS3_i;2A.;__comp_ctor::(66,7):_ZN6MAUtil6VectorIPN8NativeUI14SliderListenerEEC1EPKS3_i;2A.;__base_ctor::(66,10)=#(66,1),(0,6),(66,6),(66,11)=&(66,12)=k(66,1),(0,6);:_ZN6MAUtil6VectorIPN8NativeUI14SliderListenerEEC2ERKS4_;2A.;__comp_ctor::(66,10):_ZN6MAUtil6VectorIPN8NativeUI14SliderListenerEEC1ERKS4_;2A.;__base_dtor::(66,13)=#(66,1),(0,6),(66,6),(0,6);:_ZN6MAUtil6VectorIPN8NativeUI14SliderListenerEED2Ev;2A.;__comp_dtor::(66,13):_ZN6MAUtil6VectorIPN8NativeUI14SliderListenerEED1Ev;2A.;operator=::(66,14)=#(66,1),(66,15)=&(66,1),(66,6),(66,11),(0,6);:_ZN6MAUtil6VectorIPN8NativeUI14SliderListenerEEaSERKS4_;2A.;add::(66,16)=#(66,1),(0,6),(66,6),(66,17)=&(66,9),(0,6);:_ZN6MAUtil6VectorIPN8NativeUI14SliderListenerEE3addERKS3_;2A.(66,7):_ZN6MAUtil6VectorIPN8NativeUI14SliderListenerEE3addEPKS3_i;2A.;remove::(66,18)=#(66,1),(0,6),(66,6),(66,2),(0,6);:_ZN6MAUtil6VectorIPN8NativeUI14SliderListenerEE6removeEPS3_;2A.(66,19)=#(66,1),(0,6),(66,6),(0,3),(0,6);:_ZN6MAUtil6VectorIPN8NativeUI14SliderListenerEE6removeEi;2A.(66,20)=#(66,1),(0,6),(66,6),(0,3),(0,3),(0,6);:_ZN6MAUtil6VectorIPN8NativeUI14SliderListenerEE6removeEii;2A.;insert::(66,21)=#(66,1),(0,6),(66,6),(0,3),(66,3),(0,6);:_ZN6MAUtil6VectorIPN8NativeUI14SliderListenerEE6insertEiS3_;2A.;size::(66,22)=#(66,1),(0,3),(66,23)=*(66,12),(0,6);:_ZNK6MAUtil6VectorIPN8NativeUI14SliderListenerEE4sizeEv;2B.;resize::(66,19):_ZN6MAUtil6VectorIPN8NativeUI14SliderListenerEE6resizeEi;2A.;reserve::(66,19):_ZN6MAUtil6VectorIPN8NativeUI14SliderListenerEE7reserveEi;2A.;clear::(66,13):_ZN6MAUtil6VectorIPN8NativeUI14SliderListenerEE5clearEv;2A.;empty::(66,24)=#(66,1),(0,4),(66,23),(0,6);:_ZNK6MAUtil6VectorIPN8NativeUI14SliderListenerEE5emptyEv;2B.;capacity::(66,22):_ZNK6MAUtil6VectorIPN8NativeUI14SliderListenerEE8capacityEv;2B.;begin::(66,25)=#(66,1),(66,2),(66,6),(0,6);:_ZN6MAUtil6VectorIPN8NativeUI14SliderListenerEE5beginEv;2A.;end::(66,25):_ZN6MAUtil6VectorIPN8NativeUI14SliderListenerEE3endEv;2A.;begin::(66,26)=#(66,1),(66,8),(66,23),(0,6);:_ZNK6MAUtil6VectorIPN8NativeUI14SliderListenerEE5beginEv;2B.;end::(66,26):_ZNK6MAUtil6VectorIPN8NativeUI14SliderListenerEE3endEv;2B.;operator[]::(66,27)=#(66,1),(66,28)=&(66,3),(66,6),(0,3),(0,6);:_ZN6MAUtil6VectorIPN8NativeUI14SliderListenerEEixEi;2A.(66,29)=#(66,1),(66,17),(66,23),(0,3),(0,6);:_ZNK6MAUtil6VectorIPN8NativeUI14SliderListenerEEixEi;2B.;pointer::(66,26):_ZNK6MAUtil6VectorIPN8NativeUI14SliderListenerEE7pointerEv;2B.(66,25):_ZN6MAUtil6VectorIPN8NativeUI14SliderListenerEE7pointerEv;2A.;;",128,0,95,0
	.stabn	162,0,0,0
	.stabs	"c:/MoSync/include/NativeUI/SliderListener.h",130,0,0,0
	.stabn	162,0,0,0
	.stabs	"c:/MoSync/include/NativeUI/StackScreen.h",130,0,0,0
	.stabs	"Vector<NativeUI::StackScreenListener*>:Tt(68,1)=s12mSize:/1(0,3),0,32;mCapacity:/1(0,3),32,32;mData:/1(68,2)=*(68,3)=*(68,4)=xsStackScreenListener:,64,32;__base_ctor::(68,5)=#(68,1),(0,6),(68,6)=*(68,1),(0,3),(0,6);:_ZN6MAUtil6VectorIPN8NativeUI19StackScreenListenerEEC2Ei;2A.;__comp_ctor::(68,5):_ZN6MAUtil6VectorIPN8NativeUI19StackScreenListenerEEC1Ei;2A.;__base_ctor::(68,7)=#(68,1),(0,6),(68,6),(68,8)=*(68,9)=k(68,3),(0,3),(0,6);:_ZN6MAUtil6VectorIPN8NativeUI19StackScreenListenerEEC2EPKS3_i;2A.;__comp_ctor::(68,7):_ZN6MAUtil6VectorIPN8NativeUI19StackScreenListenerEEC1EPKS3_i;2A.;__base_ctor::(68,10)=#(68,1),(0,6),(68,6),(68,11)=&(68,12)=k(68,1),(0,6);:_ZN6MAUtil6VectorIPN8NativeUI19StackScreenListenerEEC2ERKS4_;2A.;__comp_ctor::(68,10):_ZN6MAUtil6VectorIPN8NativeUI19StackScreenListenerEEC1ERKS4_;2A.;__base_dtor::(68,13)=#(68,1),(0,6),(68,6),(0,6);:_ZN6MAUtil6VectorIPN8NativeUI19StackScreenListenerEED2Ev;2A.;__comp_dtor::(68,13):_ZN6MAUtil6VectorIPN8NativeUI19StackScreenListenerEED1Ev;2A.;operator=::(68,14)=#(68,1),(68,15)=&(68,1),(68,6),(68,11),(0,6);:_ZN6MAUtil6VectorIPN8NativeUI19StackScreenListenerEEaSERKS4_;2A.;add::(68,16)=#(68,1),(0,6),(68,6),(68,17)=&(68,9),(0,6);:_ZN6MAUtil6VectorIPN8NativeUI19StackScreenListenerEE3addERKS3_;2A.(68,7):_ZN6MAUtil6VectorIPN8NativeUI19StackScreenListenerEE3addEPKS3_i;2A.;remove::(68,18)=#(68,1),(0,6),(68,6),(68,2),(0,6);:_ZN6MAUtil6VectorIPN8NativeUI19StackScreenListenerEE6removeEPS3_;2A.(68,19)=#(68,1),(0,6),(68,6),(0,3),(0,6);:_ZN6MAUtil6VectorIPN8NativeUI19StackScreenListenerEE6removeEi;2A.(68,20)=#(68,1),(0,6),(68,6),(0,3),(0,3),(0,6);:_ZN6MAUtil6VectorIPN8NativeUI19StackScreenListenerEE6removeEii;2A.;insert::(68,21)=#(68,1),(0,6),(68,6),(0,3),(68,3),(0,6);:_ZN6MAUtil6VectorIPN8NativeUI19StackScreenListenerEE6insertEiS3_;2A.;size::(68,22)=#(68,1),(0,3),(68,23)=*(68,12),(0,6);:_ZNK6MAUtil6VectorIPN8NativeUI19StackScreenListenerEE4sizeEv;2B.;resize::(68,19):_ZN6MAUtil6VectorIPN8NativeUI19StackScreenListenerEE6resizeEi;2A.;reserve::(68,19):_ZN6MAUtil6VectorIPN8NativeUI19StackScreenListenerEE7reserveEi;2A.;clear::(68,13):_ZN6MAUtil6VectorIPN8NativeUI19StackScreenListenerEE5clearEv;2A.;empty::(68,24)=#(68,1),(0,4),(68,23),(0,6);:_ZNK6MAUtil6VectorIPN8NativeUI19StackScreenListenerEE5emptyEv;2B.;capacity::(68,22):_ZNK6MAUtil6VectorIPN8NativeUI19StackScreenListenerEE8capacityEv;2B.;begin::(68,25)=#(68,1),(68,2),(68,6),(0,6);:_ZN6MAUtil6VectorIPN8NativeUI19StackScreenListenerEE5beginEv;2A.;end::(68,25):_ZN6MAUtil6VectorIPN8NativeUI19StackScreenListenerEE3endEv;2A.;begin::(68,26)=#(68,1),(68,8),(68,23),(0,6);:_ZNK6MAUtil6VectorIPN8NativeUI19StackScreenListenerEE5beginEv;2B.;end::(68,26):_ZNK6MAUtil6VectorIPN8NativeUI19StackScreenListenerEE3endEv;2B.;operator[]::(68,27)=#(68,1),(68,28)=&(68,3),(68,6),(0,3),(0,6);:_ZN6MAUtil6VectorIPN8NativeUI19StackScreenListenerEEixEi;2A.(68,29)=#(68,1),(68,17),(68,23),(0,3),(0,6);:_ZNK6MAUtil6VectorIPN8NativeUI19StackScreenListenerEEixEi;2B.;pointer::(68,26):_ZNK6MAUtil6VectorIPN8NativeUI19StackScreenListenerEE7pointerEv;2B.(68,25):_ZN6MAUtil6VectorIPN8NativeUI19StackScreenListenerEE7pointerEv;2A.;;",128,0,95,0
	.stabs	"Vector<NativeUI::Screen*>:Tt(68,30)=s12mSize:/1(0,3),0,32;mCapacity:/1(0,3),32,32;mData:/1(68,31)=*(68,32)=*(68,33)=xsScreen:,64,32;__base_ctor::(68,34)=#(68,30),(0,6),(68,35)=*(68,30),(0,3),(0,6);:_ZN6MAUtil6VectorIPN8NativeUI6ScreenEEC2Ei;2A.;__comp_ctor::(68,34):_ZN6MAUtil6VectorIPN8NativeUI6ScreenEEC1Ei;2A.;__base_ctor::(68,36)=#(68,30),(0,6),(68,35),(68,37)=*(68,38)=k(68,32),(0,3),(0,6);:_ZN6MAUtil6VectorIPN8NativeUI6ScreenEEC2EPKS3_i;2A.;__comp_ctor::(68,36):_ZN6MAUtil6VectorIPN8NativeUI6ScreenEEC1EPKS3_i;2A.;__base_ctor::(68,39)=#(68,30),(0,6),(68,35),(68,40)=&(68,41)=k(68,30),(0,6);:_ZN6MAUtil6VectorIPN8NativeUI6ScreenEEC2ERKS4_;2A.;__comp_ctor::(68,39):_ZN6MAUtil6VectorIPN8NativeUI6ScreenEEC1ERKS4_;2A.;__base_dtor::(68,42)=#(68,30),(0,6),(68,35),(0,6);:_ZN6MAUtil6VectorIPN8NativeUI6ScreenEED2Ev;2A.;__comp_dtor::(68,42):_ZN6MAUtil6VectorIPN8NativeUI6ScreenEED1Ev;2A.;operator=::(68,43)=#(68,30),(68,44)=&(68,30),(68,35),(68,40),(0,6);:_ZN6MAUtil6VectorIPN8NativeUI6ScreenEEaSERKS4_;2A.;add::(68,45)=#(68,30),(0,6),(68,35),(68,46)=&(68,38),(0,6);:_ZN6MAUtil6VectorIPN8NativeUI6ScreenEE3addERKS3_;2A.(68,36):_ZN6MAUtil6VectorIPN8NativeUI6ScreenEE3addEPKS3_i;2A.;remove::(68,47)=#(68,30),(0,6),(68,35),(68,31),(0,6);:_ZN6MAUtil6VectorIPN8NativeUI6ScreenEE6removeEPS3_;2A.(68,48)=#(68,30),(0,6),(68,35),(0,3),(0,6);:_ZN6MAUtil6VectorIPN8NativeUI6ScreenEE6removeEi;2A.(68,49)=#(68,30),(0,6),(68,35),(0,3),(0,3),(0,6);:_ZN6MAUtil6VectorIPN8NativeUI6ScreenEE6removeEii;2A.;insert::(68,50)=#(68,30),(0,6),(68,35),(0,3),(68,32),(0,6);:_ZN6MAUtil6VectorIPN8NativeUI6ScreenEE6insertEiS3_;2A.;size::(68,51)=#(68,30),(0,3),(68,52)=*(68,41),(0,6);:_ZNK6MAUtil6VectorIPN8NativeUI6ScreenEE4sizeEv;2B.;resize::(68,48):_ZN6MAUtil6VectorIPN8NativeUI6ScreenEE6resizeEi;2A.;reserve::(68,48):_ZN6MAUtil6VectorIPN8NativeUI6ScreenEE7reserveEi;2A.;clear::(68,42):_ZN6MAUtil6VectorIPN8NativeUI6ScreenEE5clearEv;2A.;empty::(68,53)=#(68,30),(0,4),(68,52),(0,6);:_ZNK6MAUtil6VectorIPN8NativeUI6ScreenEE5emptyEv;2B.;capacity::(68,51):_ZNK6MAUtil6VectorIPN8NativeUI6ScreenEE8capacityEv;2B.;begin::(68,54)=#(68,30),(68,31),(68,35),(0,6);:_ZN6MAUtil6VectorIPN8NativeUI6ScreenEE5beginEv;2A.;end::(68,54):_ZN6MAUtil6VectorIPN8NativeUI6ScreenEE3endEv;2A.;begin::(68,55)=#(68,30),(68,37),(68,52),(0,6);:_ZNK6MAUtil6VectorIPN8NativeUI6ScreenEE5beginEv;2B.;end::(68,55):_ZNK6MAUtil6VectorIPN8NativeUI6ScreenEE3endEv;2B.;operator[]::(68,56)=#(68,30),(68,57)=&(68,32),(68,35),(0,3),(0,6);:_ZN6MAUtil6VectorIPN8NativeUI6ScreenEEixEi;2A.(68,58)=#(68,30),(68,46),(68,52),(0,3),(0,6);:_ZNK6MAUtil6VectorIPN8NativeUI6ScreenEEixEi;2B.;pointer::(68,55):_ZNK6MAUtil6VectorIPN8NativeUI6ScreenEE7pointerEv;2B.(68,54):_ZN6MAUtil6VectorIPN8NativeUI6ScreenEE7pointerEv;2A.;;",128,0,95,0
	.stabn	162,0,0,0
	.stabs	"c:/MoSync/include/NativeUI/StackScreenListener.h",130,0,0,0
	.stabn	162,0,0,0
	.stabs	"c:/MoSync/include/NativeUI/TabScreen.h",130,0,0,0
	.stabs	"Vector<NativeUI::TabScreenListener*>:Tt(70,1)=s12mSize:/1(0,3),0,32;mCapacity:/1(0,3),32,32;mData:/1(70,2)=*(70,3)=*(70,4)=xsTabScreenListener:,64,32;__base_ctor::(70,5)=#(70,1),(0,6),(70,6)=*(70,1),(0,3),(0,6);:_ZN6MAUtil6VectorIPN8NativeUI17TabScreenListenerEEC2Ei;2A.;__comp_ctor::(70,5):_ZN6MAUtil6VectorIPN8NativeUI17TabScreenListenerEEC1Ei;2A.;__base_ctor::(70,7)=#(70,1),(0,6),(70,6),(70,8)=*(70,9)=k(70,3),(0,3),(0,6);:_ZN6MAUtil6VectorIPN8NativeUI17TabScreenListenerEEC2EPKS3_i;2A.;__comp_ctor::(70,7):_ZN6MAUtil6VectorIPN8NativeUI17TabScreenListenerEEC1EPKS3_i;2A.;__base_ctor::(70,10)=#(70,1),(0,6),(70,6),(70,11)=&(70,12)=k(70,1),(0,6);:_ZN6MAUtil6VectorIPN8NativeUI17TabScreenListenerEEC2ERKS4_;2A.;__comp_ctor::(70,10):_ZN6MAUtil6VectorIPN8NativeUI17TabScreenListenerEEC1ERKS4_;2A.;__base_dtor::(70,13)=#(70,1),(0,6),(70,6),(0,6);:_ZN6MAUtil6VectorIPN8NativeUI17TabScreenListenerEED2Ev;2A.;__comp_dtor::(70,13):_ZN6MAUtil6VectorIPN8NativeUI17TabScreenListenerEED1Ev;2A.;operator=::(70,14)=#(70,1),(70,15)=&(70,1),(70,6),(70,11),(0,6);:_ZN6MAUtil6VectorIPN8NativeUI17TabScreenListenerEEaSERKS4_;2A.;add::(70,16)=#(70,1),(0,6),(70,6),(70,17)=&(70,9),(0,6);:_ZN6MAUtil6VectorIPN8NativeUI17TabScreenListenerEE3addERKS3_;2A.(70,7):_ZN6MAUtil6VectorIPN8NativeUI17TabScreenListenerEE3addEPKS3_i;2A.;remove::(70,18)=#(70,1),(0,6),(70,6),(70,2),(0,6);:_ZN6MAUtil6VectorIPN8NativeUI17TabScreenListenerEE6removeEPS3_;2A.(70,19)=#(70,1),(0,6),(70,6),(0,3),(0,6);:_ZN6MAUtil6VectorIPN8NativeUI17TabScreenListenerEE6removeEi;2A.(70,20)=#(70,1),(0,6),(70,6),(0,3),(0,3),(0,6);:_ZN6MAUtil6VectorIPN8NativeUI17TabScreenListenerEE6removeEii;2A.;insert::(70,21)=#(70,1),(0,6),(70,6),(0,3),(70,3),(0,6);:_ZN6MAUtil6VectorIPN8NativeUI17TabScreenListenerEE6insertEiS3_;2A.;size::(70,22)=#(70,1),(0,3),(70,23)=*(70,12),(0,6);:_ZNK6MAUtil6VectorIPN8NativeUI17TabScreenListenerEE4sizeEv;2B.;resize::(70,19):_ZN6MAUtil6VectorIPN8NativeUI17TabScreenListenerEE6resizeEi;2A.;reserve::(70,19):_ZN6MAUtil6VectorIPN8NativeUI17TabScreenListenerEE7reserveEi;2A.;clear::(70,13):_ZN6MAUtil6VectorIPN8NativeUI17TabScreenListenerEE5clearEv;2A.;empty::(70,24)=#(70,1),(0,4),(70,23),(0,6);:_ZNK6MAUtil6VectorIPN8NativeUI17TabScreenListenerEE5emptyEv;2B.;capacity::(70,22):_ZNK6MAUtil6VectorIPN8NativeUI17TabScreenListenerEE8capacityEv;2B.;begin::(70,25)=#(70,1),(70,2),(70,6),(0,6);:_ZN6MAUtil6VectorIPN8NativeUI17TabScreenListenerEE5beginEv;2A.;end::(70,25):_ZN6MAUtil6VectorIPN8NativeUI17TabScreenListenerEE3endEv;2A.;begin::(70,26)=#(70,1),(70,8),(70,23),(0,6);:_ZNK6MAUtil6VectorIPN8NativeUI17TabScreenListenerEE5beginEv;2B.;end::(70,26):_ZNK6MAUtil6VectorIPN8NativeUI17TabScreenListenerEE3endEv;2B.;operator[]::(70,27)=#(70,1),(70,28)=&(70,3),(70,6),(0,3),(0,6);:_ZN6MAUtil6VectorIPN8NativeUI17TabScreenListenerEEixEi;2A.(70,29)=#(70,1),(70,17),(70,23),(0,3),(0,6);:_ZNK6MAUtil6VectorIPN8NativeUI17TabScreenListenerEEixEi;2B.;pointer::(70,26):_ZNK6MAUtil6VectorIPN8NativeUI17TabScreenListenerEE7pointerEv;2B.(70,25):_ZN6MAUtil6VectorIPN8NativeUI17TabScreenListenerEE7pointerEv;2A.;;",128,0,95,0
	.stabn	162,0,0,0
	.stabs	"c:/MoSync/include/NativeUI/TabScreenListener.h",130,0,0,0
	.stabn	162,0,0,0
	.stabs	"c:/MoSync/include/NativeUI/TimePicker.h",130,0,0,0
	.stabs	"Vector<NativeUI::TimePickerListener*>:Tt(72,1)=s12mSize:/1(0,3),0,32;mCapacity:/1(0,3),32,32;mData:/1(72,2)=*(72,3)=*(72,4)=xsTimePickerListener:,64,32;__base_ctor::(72,5)=#(72,1),(0,6),(72,6)=*(72,1),(0,3),(0,6);:_ZN6MAUtil6VectorIPN8NativeUI18TimePickerListenerEEC2Ei;2A.;__comp_ctor::(72,5):_ZN6MAUtil6VectorIPN8NativeUI18TimePickerListenerEEC1Ei;2A.;__base_ctor::(72,7)=#(72,1),(0,6),(72,6),(72,8)=*(72,9)=k(72,3),(0,3),(0,6);:_ZN6MAUtil6VectorIPN8NativeUI18TimePickerListenerEEC2EPKS3_i;2A.;__comp_ctor::(72,7):_ZN6MAUtil6VectorIPN8NativeUI18TimePickerListenerEEC1EPKS3_i;2A.;__base_ctor::(72,10)=#(72,1),(0,6),(72,6),(72,11)=&(72,12)=k(72,1),(0,6);:_ZN6MAUtil6VectorIPN8NativeUI18TimePickerListenerEEC2ERKS4_;2A.;__comp_ctor::(72,10):_ZN6MAUtil6VectorIPN8NativeUI18TimePickerListenerEEC1ERKS4_;2A.;__base_dtor::(72,13)=#(72,1),(0,6),(72,6),(0,6);:_ZN6MAUtil6VectorIPN8NativeUI18TimePickerListenerEED2Ev;2A.;__comp_dtor::(72,13):_ZN6MAUtil6VectorIPN8NativeUI18TimePickerListenerEED1Ev;2A.;operator=::(72,14)=#(72,1),(72,15)=&(72,1),(72,6),(72,11),(0,6);:_ZN6MAUtil6VectorIPN8NativeUI18TimePickerListenerEEaSERKS4_;2A.;add::(72,16)=#(72,1),(0,6),(72,6),(72,17)=&(72,9),(0,6);:_ZN6MAUtil6VectorIPN8NativeUI18TimePickerListenerEE3addERKS3_;2A.(72,7):_ZN6MAUtil6VectorIPN8NativeUI18TimePickerListenerEE3addEPKS3_i;2A.;remove::(72,18)=#(72,1),(0,6),(72,6),(72,2),(0,6);:_ZN6MAUtil6VectorIPN8NativeUI18TimePickerListenerEE6removeEPS3_;2A.(72,19)=#(72,1),(0,6),(72,6),(0,3),(0,6);:_ZN6MAUtil6VectorIPN8NativeUI18TimePickerListenerEE6removeEi;2A.(72,20)=#(72,1),(0,6),(72,6),(0,3),(0,3),(0,6);:_ZN6MAUtil6VectorIPN8NativeUI18TimePickerListenerEE6removeEii;2A.;insert::(72,21)=#(72,1),(0,6),(72,6),(0,3),(72,3),(0,6);:_ZN6MAUtil6VectorIPN8NativeUI18TimePickerListenerEE6insertEiS3_;2A.;size::(72,22)=#(72,1),(0,3),(72,23)=*(72,12),(0,6);:_ZNK6MAUtil6VectorIPN8NativeUI18TimePickerListenerEE4sizeEv;2B.;resize::(72,19):_ZN6MAUtil6VectorIPN8NativeUI18TimePickerListenerEE6resizeEi;2A.;reserve::(72,19):_ZN6MAUtil6VectorIPN8NativeUI18TimePickerListenerEE7reserveEi;2A.;clear::(72,13):_ZN6MAUtil6VectorIPN8NativeUI18TimePickerListenerEE5clearEv;2A.;empty::(72,24)=#(72,1),(0,4),(72,23),(0,6);:_ZNK6MAUtil6VectorIPN8NativeUI18TimePickerListenerEE5emptyEv;2B.;capacity::(72,22):_ZNK6MAUtil6VectorIPN8NativeUI18TimePickerListenerEE8capacityEv;2B.;begin::(72,25)=#(72,1),(72,2),(72,6),(0,6);:_ZN6MAUtil6VectorIPN8NativeUI18TimePickerListenerEE5beginEv;2A.;end::(72,25):_ZN6MAUtil6VectorIPN8NativeUI18TimePickerListenerEE3endEv;2A.;begin::(72,26)=#(72,1),(72,8),(72,23),(0,6);:_ZNK6MAUtil6VectorIPN8NativeUI18TimePickerListenerEE5beginEv;2B.;end::(72,26):_ZNK6MAUtil6VectorIPN8NativeUI18TimePickerListenerEE3endEv;2B.;operator[]::(72,27)=#(72,1),(72,28)=&(72,3),(72,6),(0,3),(0,6);:_ZN6MAUtil6VectorIPN8NativeUI18TimePickerListenerEEixEi;2A.(72,29)=#(72,1),(72,17),(72,23),(0,3),(0,6);:_ZNK6MAUtil6VectorIPN8NativeUI18TimePickerListenerEEixEi;2B.;pointer::(72,26):_ZNK6MAUtil6VectorIPN8NativeUI18TimePickerListenerEE7pointerEv;2B.(72,25):_ZN6MAUtil6VectorIPN8NativeUI18TimePickerListenerEE7pointerEv;2A.;;",128,0,95,0
	.stabn	162,0,0,0
	.stabs	"c:/MoSync/include/NativeUI/TimePickerListener.h",130,0,0,0
	.stabn	162,0,0,0
	.stabs	"c:/MoSync/include/NativeUI/ToggleButton.h",130,0,0,0
	.stabs	"Vector<NativeUI::ToggleButtonListener*>:Tt(74,1)=s12mSize:/1(0,3),0,32;mCapacity:/1(0,3),32,32;mData:/1(74,2)=*(74,3)=*(74,4)=xsToggleButtonListener:,64,32;__base_ctor::(74,5)=#(74,1),(0,6),(74,6)=*(74,1),(0,3),(0,6);:_ZN6MAUtil6VectorIPN8NativeUI20ToggleButtonListenerEEC2Ei;2A.;__comp_ctor::(74,5):_ZN6MAUtil6VectorIPN8NativeUI20ToggleButtonListenerEEC1Ei;2A.;__base_ctor::(74,7)=#(74,1),(0,6),(74,6),(74,8)=*(74,9)=k(74,3),(0,3),(0,6);:_ZN6MAUtil6VectorIPN8NativeUI20ToggleButtonListenerEEC2EPKS3_i;2A.;__comp_ctor::(74,7):_ZN6MAUtil6VectorIPN8NativeUI20ToggleButtonListenerEEC1EPKS3_i;2A.;__base_ctor::(74,10)=#(74,1),(0,6),(74,6),(74,11)=&(74,12)=k(74,1),(0,6);:_ZN6MAUtil6VectorIPN8NativeUI20ToggleButtonListenerEEC2ERKS4_;2A.;__comp_ctor::(74,10):_ZN6MAUtil6VectorIPN8NativeUI20ToggleButtonListenerEEC1ERKS4_;2A.;__base_dtor::(74,13)=#(74,1),(0,6),(74,6),(0,6);:_ZN6MAUtil6VectorIPN8NativeUI20ToggleButtonListenerEED2Ev;2A.;__comp_dtor::(74,13):_ZN6MAUtil6VectorIPN8NativeUI20ToggleButtonListenerEED1Ev;2A.;operator=::(74,14)=#(74,1),(74,15)=&(74,1),(74,6),(74,11),(0,6);:_ZN6MAUtil6VectorIPN8NativeUI20ToggleButtonListenerEEaSERKS4_;2A.;add::(74,16)=#(74,1),(0,6),(74,6),(74,17)=&(74,9),(0,6);:_ZN6MAUtil6VectorIPN8NativeUI20ToggleButtonListenerEE3addERKS3_;2A.(74,7):_ZN6MAUtil6VectorIPN8NativeUI20ToggleButtonListenerEE3addEPKS3_i;2A.;remove::(74,18)=#(74,1),(0,6),(74,6),(74,2),(0,6);:_ZN6MAUtil6VectorIPN8NativeUI20ToggleButtonListenerEE6removeEPS3_;2A.(74,19)=#(74,1),(0,6),(74,6),(0,3),(0,6);:_ZN6MAUtil6VectorIPN8NativeUI20ToggleButtonListenerEE6removeEi;2A.(74,20)=#(74,1),(0,6),(74,6),(0,3),(0,3),(0,6);:_ZN6MAUtil6VectorIPN8NativeUI20ToggleButtonListenerEE6removeEii;2A.;insert::(74,21)=#(74,1),(0,6),(74,6),(0,3),(74,3),(0,6);:_ZN6MAUtil6VectorIPN8NativeUI20ToggleButtonListenerEE6insertEiS3_;2A.;size::(74,22)=#(74,1),(0,3),(74,23)=*(74,12),(0,6);:_ZNK6MAUtil6VectorIPN8NativeUI20ToggleButtonListenerEE4sizeEv;2B.;resize::(74,19):_ZN6MAUtil6VectorIPN8NativeUI20ToggleButtonListenerEE6resizeEi;2A.;reserve::(74,19):_ZN6MAUtil6VectorIPN8NativeUI20ToggleButtonListenerEE7reserveEi;2A.;clear::(74,13):_ZN6MAUtil6VectorIPN8NativeUI20ToggleButtonListenerEE5clearEv;2A.;empty::(74,24)=#(74,1),(0,4),(74,23),(0,6);:_ZNK6MAUtil6VectorIPN8NativeUI20ToggleButtonListenerEE5emptyEv;2B.;capacity::(74,22):_ZNK6MAUtil6VectorIPN8NativeUI20ToggleButtonListenerEE8capacityEv;2B.;begin::(74,25)=#(74,1),(74,2),(74,6),(0,6);:_ZN6MAUtil6VectorIPN8NativeUI20ToggleButtonListenerEE5beginEv;2A.;end::(74,25):_ZN6MAUtil6VectorIPN8NativeUI20ToggleButtonListenerEE3endEv;2A.;begin::(74,26)=#(74,1),(74,8),(74,23),(0,6);:_ZNK6MAUtil6VectorIPN8NativeUI20ToggleButtonListenerEE5beginEv;2B.;end::(74,26):_ZNK6MAUtil6VectorIPN8NativeUI20ToggleButtonListenerEE3endEv;2B.;operator[]::(74,27)=#(74,1),(74,28)=&(74,3),(74,6),(0,3),(0,6);:_ZN6MAUtil6VectorIPN8NativeUI20ToggleButtonListenerEEixEi;2A.(74,29)=#(74,1),(74,17),(74,23),(0,3),(0,6);:_ZNK6MAUtil6VectorIPN8NativeUI20ToggleButtonListenerEEixEi;2B.;pointer::(74,26):_ZNK6MAUtil6VectorIPN8NativeUI20ToggleButtonListenerEE7pointerEv;2B.(74,25):_ZN6MAUtil6VectorIPN8NativeUI20ToggleButtonListenerEE7pointerEv;2A.;;",128,0,95,0
	.stabn	162,0,0,0
	.stabs	"c:/MoSync/include/NativeUI/ToggleButtonListener.h",130,0,0,0
	.stabn	162,0,0,0
	.stabs	"c:/MoSync/include/NativeUI/VerticalLayout.h",130,0,0,0
	.stabn	162,0,0,0
	.stabs	"c:/MoSync/include/NativeUI/VideoView.h",130,0,0,0
	.stabs	"Vector<NativeUI::VideoViewListener*>:Tt(77,1)=s12mSize:/1(0,3),0,32;mCapacity:/1(0,3),32,32;mData:/1(77,2)=*(77,3)=*(77,4)=xsVideoViewListener:,64,32;__base_ctor::(77,5)=#(77,1),(0,6),(77,6)=*(77,1),(0,3),(0,6);:_ZN6MAUtil6VectorIPN8NativeUI17VideoViewListenerEEC2Ei;2A.;__comp_ctor::(77,5):_ZN6MAUtil6VectorIPN8NativeUI17VideoViewListenerEEC1Ei;2A.;__base_ctor::(77,7)=#(77,1),(0,6),(77,6),(77,8)=*(77,9)=k(77,3),(0,3),(0,6);:_ZN6MAUtil6VectorIPN8NativeUI17VideoViewListenerEEC2EPKS3_i;2A.;__comp_ctor::(77,7):_ZN6MAUtil6VectorIPN8NativeUI17VideoViewListenerEEC1EPKS3_i;2A.;__base_ctor::(77,10)=#(77,1),(0,6),(77,6),(77,11)=&(77,12)=k(77,1),(0,6);:_ZN6MAUtil6VectorIPN8NativeUI17VideoViewListenerEEC2ERKS4_;2A.;__comp_ctor::(77,10):_ZN6MAUtil6VectorIPN8NativeUI17VideoViewListenerEEC1ERKS4_;2A.;__base_dtor::(77,13)=#(77,1),(0,6),(77,6),(0,6);:_ZN6MAUtil6VectorIPN8NativeUI17VideoViewListenerEED2Ev;2A.;__comp_dtor::(77,13):_ZN6MAUtil6VectorIPN8NativeUI17VideoViewListenerEED1Ev;2A.;operator=::(77,14)=#(77,1),(77,15)=&(77,1),(77,6),(77,11),(0,6);:_ZN6MAUtil6VectorIPN8NativeUI17VideoViewListenerEEaSERKS4_;2A.;add::(77,16)=#(77,1),(0,6),(77,6),(77,17)=&(77,9),(0,6);:_ZN6MAUtil6VectorIPN8NativeUI17VideoViewListenerEE3addERKS3_;2A.(77,7):_ZN6MAUtil6VectorIPN8NativeUI17VideoViewListenerEE3addEPKS3_i;2A.;remove::(77,18)=#(77,1),(0,6),(77,6),(77,2),(0,6);:_ZN6MAUtil6VectorIPN8NativeUI17VideoViewListenerEE6removeEPS3_;2A.(77,19)=#(77,1),(0,6),(77,6),(0,3),(0,6);:_ZN6MAUtil6VectorIPN8NativeUI17VideoViewListenerEE6removeEi;2A.(77,20)=#(77,1),(0,6),(77,6),(0,3),(0,3),(0,6);:_ZN6MAUtil6VectorIPN8NativeUI17VideoViewListenerEE6removeEii;2A.;insert::(77,21)=#(77,1),(0,6),(77,6),(0,3),(77,3),(0,6);:_ZN6MAUtil6VectorIPN8NativeUI17VideoViewListenerEE6insertEiS3_;2A.;size::(77,22)=#(77,1),(0,3),(77,23)=*(77,12),(0,6);:_ZNK6MAUtil6VectorIPN8NativeUI17VideoViewListenerEE4sizeEv;2B.;resize::(77,19):_ZN6MAUtil6VectorIPN8NativeUI17VideoViewListenerEE6resizeEi;2A.;reserve::(77,19):_ZN6MAUtil6VectorIPN8NativeUI17VideoViewListenerEE7reserveEi;2A.;clear::(77,13):_ZN6MAUtil6VectorIPN8NativeUI17VideoViewListenerEE5clearEv;2A.;empty::(77,24)=#(77,1),(0,4),(77,23),(0,6);:_ZNK6MAUtil6VectorIPN8NativeUI17VideoViewListenerEE5emptyEv;2B.;capacity::(77,22):_ZNK6MAUtil6VectorIPN8NativeUI17VideoViewListenerEE8capacityEv;2B.;begin::(77,25)=#(77,1),(77,2),(77,6),(0,6);:_ZN6MAUtil6VectorIPN8NativeUI17VideoViewListenerEE5beginEv;2A.;end::(77,25):_ZN6MAUtil6VectorIPN8NativeUI17VideoViewListenerEE3endEv;2A.;begin::(77,26)=#(77,1),(77,8),(77,23),(0,6);:_ZNK6MAUtil6VectorIPN8NativeUI17VideoViewListenerEE5beginEv;2B.;end::(77,26):_ZNK6MAUtil6VectorIPN8NativeUI17VideoViewListenerEE3endEv;2B.;operator[]::(77,27)=#(77,1),(77,28)=&(77,3),(77,6),(0,3),(0,6);:_ZN6MAUtil6VectorIPN8NativeUI17VideoViewListenerEEixEi;2A.(77,29)=#(77,1),(77,17),(77,23),(0,3),(0,6);:_ZNK6MAUtil6VectorIPN8NativeUI17VideoViewListenerEEixEi;2B.;pointer::(77,26):_ZNK6MAUtil6VectorIPN8NativeUI17VideoViewListenerEE7pointerEv;2B.(77,25):_ZN6MAUtil6VectorIPN8NativeUI17VideoViewListenerEE7pointerEv;2A.;;",128,0,95,0
	.stabn	162,0,0,0
	.stabs	"c:/MoSync/include/NativeUI/VideoViewListener.h",130,0,0,0
	.stabn	162,0,0,0
	.stabs	"c:/MoSync/include/NativeUI/WebView.h",130,0,0,0
	.stabs	"Vector<NativeUI::WebViewListener*>:Tt(79,1)=s12mSize:/1(0,3),0,32;mCapacity:/1(0,3),32,32;mData:/1(79,2)=*(79,3)=*(79,4)=xsWebViewListener:,64,32;__base_ctor::(79,5)=#(79,1),(0,6),(79,6)=*(79,1),(0,3),(0,6);:_ZN6MAUtil6VectorIPN8NativeUI15WebViewListenerEEC2Ei;2A.;__comp_ctor::(79,5):_ZN6MAUtil6VectorIPN8NativeUI15WebViewListenerEEC1Ei;2A.;__base_ctor::(79,7)=#(79,1),(0,6),(79,6),(79,8)=*(79,9)=k(79,3),(0,3),(0,6);:_ZN6MAUtil6VectorIPN8NativeUI15WebViewListenerEEC2EPKS3_i;2A.;__comp_ctor::(79,7):_ZN6MAUtil6VectorIPN8NativeUI15WebViewListenerEEC1EPKS3_i;2A.;__base_ctor::(79,10)=#(79,1),(0,6),(79,6),(79,11)=&(79,12)=k(79,1),(0,6);:_ZN6MAUtil6VectorIPN8NativeUI15WebViewListenerEEC2ERKS4_;2A.;__comp_ctor::(79,10):_ZN6MAUtil6VectorIPN8NativeUI15WebViewListenerEEC1ERKS4_;2A.;__base_dtor::(79,13)=#(79,1),(0,6),(79,6),(0,6);:_ZN6MAUtil6VectorIPN8NativeUI15WebViewListenerEED2Ev;2A.;__comp_dtor::(79,13):_ZN6MAUtil6VectorIPN8NativeUI15WebViewListenerEED1Ev;2A.;operator=::(79,14)=#(79,1),(79,15)=&(79,1),(79,6),(79,11),(0,6);:_ZN6MAUtil6VectorIPN8NativeUI15WebViewListenerEEaSERKS4_;2A.;add::(79,16)=#(79,1),(0,6),(79,6),(79,17)=&(79,9),(0,6);:_ZN6MAUtil6VectorIPN8NativeUI15WebViewListenerEE3addERKS3_;2A.(79,7):_ZN6MAUtil6VectorIPN8NativeUI15WebViewListenerEE3addEPKS3_i;2A.;remove::(79,18)=#(79,1),(0,6),(79,6),(79,2),(0,6);:_ZN6MAUtil6VectorIPN8NativeUI15WebViewListenerEE6removeEPS3_;2A.(79,19)=#(79,1),(0,6),(79,6),(0,3),(0,6);:_ZN6MAUtil6VectorIPN8NativeUI15WebViewListenerEE6removeEi;2A.(79,20)=#(79,1),(0,6),(79,6),(0,3),(0,3),(0,6);:_ZN6MAUtil6VectorIPN8NativeUI15WebViewListenerEE6removeEii;2A.;insert::(79,21)=#(79,1),(0,6),(79,6),(0,3),(79,3),(0,6);:_ZN6MAUtil6VectorIPN8NativeUI15WebViewListenerEE6insertEiS3_;2A.;size::(79,22)=#(79,1),(0,3),(79,23)=*(79,12),(0,6);:_ZNK6MAUtil6VectorIPN8NativeUI15WebViewListenerEE4sizeEv;2B.;resize::(79,19):_ZN6MAUtil6VectorIPN8NativeUI15WebViewListenerEE6resizeEi;2A.;reserve::(79,19):_ZN6MAUtil6VectorIPN8NativeUI15WebViewListenerEE7reserveEi;2A.;clear::(79,13):_ZN6MAUtil6VectorIPN8NativeUI15WebViewListenerEE5clearEv;2A.;empty::(79,24)=#(79,1),(0,4),(79,23),(0,6);:_ZNK6MAUtil6VectorIPN8NativeUI15WebViewListenerEE5emptyEv;2B.;capacity::(79,22):_ZNK6MAUtil6VectorIPN8NativeUI15WebViewListenerEE8capacityEv;2B.;begin::(79,25)=#(79,1),(79,2),(79,6),(0,6);:_ZN6MAUtil6VectorIPN8NativeUI15WebViewListenerEE5beginEv;2A.;end::(79,25):_ZN6MAUtil6VectorIPN8NativeUI15WebViewListenerEE3endEv;2A.;begin::(79,26)=#(79,1),(79,8),(79,23),(0,6);:_ZNK6MAUtil6VectorIPN8NativeUI15WebViewListenerEE5beginEv;2B.;end::(79,26):_ZNK6MAUtil6VectorIPN8NativeUI15WebViewListenerEE3endEv;2B.;operator[]::(79,27)=#(79,1),(79,28)=&(79,3),(79,6),(0,3),(0,6);:_ZN6MAUtil6VectorIPN8NativeUI15WebViewListenerEEixEi;2A.(79,29)=#(79,1),(79,17),(79,23),(0,3),(0,6);:_ZNK6MAUtil6VectorIPN8NativeUI15WebViewListenerEEixEi;2B.;pointer::(79,26):_ZNK6MAUtil6VectorIPN8NativeUI15WebViewListenerEE7pointerEv;2B.(79,25):_ZN6MAUtil6VectorIPN8NativeUI15WebViewListenerEE7pointerEv;2A.;;",128,0,95,0
	.stabn	162,0,0,0
	.stabs	"c:/MoSync/include/NativeUI/WebViewListener.h",130,0,0,0
	.stabn	162,0,0,0
	.stabs	"c:/MoSync/include/NativeUI/WidgetManager.h",130,0,0,0
	.stabs	"c:/MoSync/include/NativeUI/WidgetEventListener.h",130,0,0,0
	.stabn	162,0,0,0
	.stabs	"Dictionary<const MAHandle,MAUtil::Pair<const MAHandle, NativeUI::Widget*> >:Tt(81,1)=s56mDict:/1(16,32),0,416;mKeyOffset:/1(0,3),416,32;__base_ctor::(81,2)=#(81,1),(0,6),(81,3)=*(81,1),(81,4)=&(81,5)=k(81,1),(0,6);:_ZN6MAUtil10DictionaryIKiNS_4PairIS1_PN8NativeUI6WidgetEEEEC2ERKS7_;2A.;__comp_ctor::(81,2):_ZN6MAUtil10DictionaryIKiNS_4PairIS1_PN8NativeUI6WidgetEEEEC1ERKS7_;2A.;operator=::(81,6)=#(81,1),(81,7)=&(81,1),(81,3),(81,4),(0,6);:_ZN6MAUtil10DictionaryIKiNS_4PairIS1_PN8NativeUI6WidgetEEEEaSERKS7_;2A.;__base_dtor::(81,8)=#(81,1),(0,6),(81,3),(0,6);:_ZN6MAUtil10DictionaryIKiNS_4PairIS1_PN8NativeUI6WidgetEEEED2Ev;2A.;__comp_dtor::(81,8):_ZN6MAUtil10DictionaryIKiNS_4PairIS1_PN8NativeUI6WidgetEEEED1Ev;2A.;find::(81,9)=#(81,1),(81,10)=xsIterator:,(81,3),(81,11)=&(81,12)=k(3,10),(0,6);:_ZN6MAUtil10DictionaryIKiNS_4PairIS1_PN8NativeUI6WidgetEEEE4findERS1_;2A.(81,13)=#(81,1),(81,14)=xsConstIterator:,(81,15)=*(81,5),(81,11),(0,6);:_ZNK6MAUtil10DictionaryIKiNS_4PairIS1_PN8NativeUI6WidgetEEEE4findERS1_;2B.;erase::(81,16)=#(81,1),(0,4),(81,3),(81,11),(0,6);:_ZN6MAUtil10DictionaryIKiNS_4PairIS1_PN8NativeUI6WidgetEEEE5eraseERS1_;2A.(81,17)=#(81,1),(0,6),(81,3),(81,10),(0,6);:_ZN6MAUtil10DictionaryIKiNS_4PairIS1_PN8NativeUI6WidgetEEEE5eraseENS7_8IteratorE;2A.;begin::(81,18)=#(81,1),(81,10),(81,3),(0,6);:_ZN6MAUtil10DictionaryIKiNS_4PairIS1_PN8NativeUI6WidgetEEEE5beginEv;2A.(81,19)=#(81,1),(81,14),(81,15),(0,6);:_ZNK6MAUtil10DictionaryIKiNS_4PairIS1_PN8NativeUI6WidgetEEEE5beginEv;2B.;end::(81,18):_ZN6MAUtil10DictionaryIKiNS_4PairIS1_PN8NativeUI6WidgetEEEE3endEv;2A.(81,19):_ZNK6MAUtil10DictionaryIKiNS_4PairIS1_PN8NativeUI6WidgetEEEE3endEv;2B.;size::(81,20)=#(81,1),(2,1),(81,15),(0,6);:_ZNK6MAUtil10DictionaryIKiNS_4PairIS1_PN8NativeUI6WidgetEEEE4sizeEv;2B.;clear::(81,8):_ZN6MAUtil10DictionaryIKiNS_4PairIS1_PN8NativeUI6WidgetEEEE5clearEv;2A.;init::(81,21)=#(81,1),(0,6),(81,3),(81,22)=*(81,23)=f(0,3),(0,6);:_ZN6MAUtil10DictionaryIKiNS_4PairIS1_PN8NativeUI6WidgetEEEE4initEPFiRS1_S8_E;1A.;alloc::(16,19):_ZN6MAUtil10DictionaryIKiNS_4PairIS1_PN8NativeUI6WidgetEEEE5allocEPv;1A?;free::(16,23):_ZN6MAUtil10DictionaryIKiNS_4PairIS1_PN8NativeUI6WidgetEEEE4freeEP7dnode_tPv;1A?;__base_ctor::(81,24)=#(81,1),(0,6),(81,3),(81,22),(0,3),(0,6);:_ZN6MAUtil10DictionaryIKiNS_4PairIS1_PN8NativeUI6WidgetEEEEC2EPFiRS1_S8_Ei;1A.;__comp_ctor::(81,24):_ZN6MAUtil10DictionaryIKiNS_4PairIS1_PN8NativeUI6WidgetEEEEC1EPFiRS1_S8_Ei;1A.;insert::(81,25)=#(81,1),(81,26)=xsPair<MAUtil::Dictionary<const MAHandle, MAUtil::Pair<const MAHandle, NativeUI::Widget*> >::Iterator,bool>:,(81,3),(81,27)=&(81,28)=k(81,29)=xsPair<const MAHandle,NativeUI::Widget*>:,(0,6);:_ZN6MAUtil10DictionaryIKiNS_4PairIS1_PN8NativeUI6WidgetEEEE6insertERKS6_;1A.;;",128,0,57,0
	.stabs	"Map<MAHandle,NativeUI::Widget*>:Tt(81,30)=s56!1,020,(81,1);__base_ctor::(81,31)=#(81,30),(0,6),(81,32)=*(81,30),(81,22),(0,6);:_ZN6MAUtil3MapIiPN8NativeUI6WidgetEEC2EPFiRKiS6_E;2A.;__comp_ctor::(81,31):_ZN6MAUtil3MapIiPN8NativeUI6WidgetEEC1EPFiRKiS6_E;2A.;insert::(81,33)=#(81,30),(81,26),(81,32),(81,11),(13,91),(0,6);:_ZN6MAUtil3MapIiPN8NativeUI6WidgetEE6insertERKiRKS3_;2A.(81,34)=#(81,30),(81,26),(81,32),(81,35)=&(81,36)=k(81,37)=xsPair<MAHandle,NativeUI::Widget*>:,(0,6);:_ZN6MAUtil3MapIiPN8NativeUI6WidgetEE6insertERKNS_4PairIiS3_EE;2A.;operator[]::(81,38)=#(81,30),(13,102),(81,32),(81,11),(0,6);:_ZN6MAUtil3MapIiPN8NativeUI6WidgetEEixERKi;2A.;operator=::(81,39)=#(81,30),(81,40)=&(81,30),(81,32),(81,41)=&(81,42)=k(81,30),(0,6);:_ZN6MAUtil3MapIiPN8NativeUI6WidgetEEaSERKS4_;2A.;__base_ctor::(81,43)=#(81,30),(0,6),(81,32),(81,41),(0,6);:_ZN6MAUtil3MapIiPN8NativeUI6WidgetEEC2ERKS4_;2A.;__comp_ctor::(81,43):_ZN6MAUtil3MapIiPN8NativeUI6WidgetEEC1ERKS4_;2A.;__base_dtor::(81,44)=#(81,30),(0,6),(81,32),(0,6);:_ZN6MAUtil3MapIiPN8NativeUI6WidgetEED2Ev;2A.;__comp_dtor::(81,44):_ZN6MAUtil3MapIiPN8NativeUI6WidgetEED1Ev;2A.;;",128,0,33,0
	.stabn	162,0,0,0
	.stabn	162,0,0,0
	.stabs	"c:/MoSync/include/MAP/DateTime.h",130,0,0,0
	.stabs	"c:/MoSync/include/matime.h",130,0,0,0
	.stabs	"time_t:t(84,1)=(0,3)",128,0,41,0
	.stabs	"tm:Tt(84,2)=s36tm_sec:(0,3),0,32;tm_min:(0,3),32,32;tm_hour:(0,3),64,32;tm_mday:(0,3),96,32;tm_mon:(0,3),128,32;tm_year:(0,3),160,32;tm_wday:(0,3),192,32;tm_yday:(0,3),224,32;tm_isdst:(0,3),256,32;operator=::(84,3)=#(84,2),(84,4)=&(84,2),(84,5)=*(84,2),(84,6)=&(84,7)=k(84,2),(0,6);:_ZN2tmaSERKS_;2A.;__base_ctor::(84,8)=#(84,2),(0,6),(84,5),(84,6),(0,6);:_ZN2tmC2ERKS_;2A.;__comp_ctor::(84,8):_ZN2tmC1ERKS_;2A.;__base_ctor::(84,9)=#(84,2),(0,6),(84,5),(0,6);:_ZN2tmC2Ev;2A.;__comp_ctor::(84,9):_ZN2tmC1Ev;2A.;;",128,0,47,0
	.stabn	162,0,0,0
	.stabs	"c:/MoSync/include/MAP/TimeSpan.h",130,0,0,0
	.stabs	"TimeSpan:Tt(85,1)=s4mTicks:/0(84,1),0,32;__base_ctor::(85,2)=#(85,1),(0,6),(85,3)=*(85,1),(0,3),(0,6);:_ZN7MAPUtil8TimeSpanC2Ei;2A.;__comp_ctor::(85,2):_ZN7MAPUtil8TimeSpanC1Ei;2A.;__base_ctor::(85,4)=#(85,1),(0,6),(85,3),(0,3),(0,3),(0,3),(0,6);:_ZN7MAPUtil8TimeSpanC2Eiii;2A.;__comp_ctor::(85,4):_ZN7MAPUtil8TimeSpanC1Eiii;2A.;__base_ctor::(85,5)=#(85,1),(0,6),(85,3),(0,3),(0,3),(0,3),(0,3),(0,6);:_ZN7MAPUtil8TimeSpanC2Eiiii;2A.;__comp_ctor::(85,5):_ZN7MAPUtil8TimeSpanC1Eiiii;2A.;maxValue::(85,6)=f(85,1):_ZN7MAPUtil8TimeSpan8maxValueEv;2A?;minValue::(85,6):_ZN7MAPUtil8TimeSpan8minValueEv;2A?;zero::(85,6):_ZN7MAPUtil8TimeSpan4zeroEv;2A?;getTicks::(85,7)=#(85,1),(84,1),(85,8)=*(85,9)=k(85,1),(0,6);:_ZNK7MAPUtil8TimeSpan8getTicksEv;2B.;getDays::(85,10)=#(85,1),(0,3),(85,8),(0,6);:_ZNK7MAPUtil8TimeSpan7getDaysEv;2B.;getHours::(85,10):_ZNK7MAPUtil8TimeSpan8getHoursEv;2B.;getMinutes::(85,10):_ZNK7MAPUtil8TimeSpan10getMinutesEv;2B.;getSeconds::(85,10):_ZNK7MAPUtil8TimeSpan10getSecondsEv;2B.;getTotalDays::(85,11)=#(85,1),(0,8),(85,8),(0,6);:_ZNK7MAPUtil8TimeSpan12getTotalDaysEv;2B.;getTotalHours::(85,11):_ZNK7MAPUtil8TimeSpan13getTotalHoursEv;2B.;getTotalMinutes::(85,11):_ZNK7MAPUtil8TimeSpan15getTotalMinutesEv;2B.;getTotalSeconds::(85,11):_ZNK7MAPUtil8TimeSpan15getTotalSecondsEv;2B.;add::(85,12)=#(85,1),(85,1),(85,8),(85,1),(0,6);:_ZNK7MAPUtil8TimeSpan3addES0_;2B.;duration::(85,13)=#(85,1),(85,1),(85,8),(0,6);:_ZNK7MAPUtil8TimeSpan8durationEv;2B.;negate::(85,13):_ZNK7MAPUtil8TimeSpan6negateEv;2B.;subtract::(85,12):_ZNK7MAPUtil8TimeSpan8subtractES0_;2B.;fromDays::(85,14)=f(85,1):_ZN7MAPUtil8TimeSpan8fromDaysEd;2A?;fromHours::(85,14):_ZN7MAPUtil8TimeSpan9fromHoursEd;2A?;fromMinutes::(85,14):_ZN7MAPUtil8TimeSpan11fromMinutesEd;2A?;fromSeconds::(85,14):_ZN7MAPUtil8TimeSpan11fromSecondsEd;2A?;operator=::(85,15)=#(85,1),(85,16)=&(85,1),(85,3),(85,17)=&(85,9),(0,6);:_ZN7MAPUtil8TimeSpanaSERKS0_;2A.;__base_ctor::(85,18)=#(85,1),(0,6),(85,3),(85,17),(0,6);:_ZN7MAPUtil8TimeSpanC2ERKS0_;2A.;__comp_ctor::(85,18):_ZN7MAPUtil8TimeSpanC1ERKS0_;2A.;;",128,0,37,0
	.stabn	162,0,0,0
	.stabs	"DateTime:Tt(83,1)=s4mTicks:/0(84,1),0,32;__base_ctor::(83,2)=#(83,1),(0,6),(83,3)=*(83,1),(0,6);:_ZN7MAPUtil8DateTimeC2Ev;2A.;__comp_ctor::(83,2):_ZN7MAPUtil8DateTimeC1Ev;2A.;__base_ctor::(83,4)=#(83,1),(0,6),(83,3),(84,1),(0,6);:_ZN7MAPUtil8DateTimeC2Ei;2A.;__comp_ctor::(83,4):_ZN7MAPUtil8DateTimeC1Ei;2A.;__base_ctor::(83,5)=#(83,1),(0,6),(83,3),(84,5),(0,6);:_ZN7MAPUtil8DateTimeC2EP2tm;2A.;__comp_ctor::(83,5):_ZN7MAPUtil8DateTimeC1EP2tm;2A.;__base_ctor::(83,6)=#(83,1),(0,6),(83,3),(0,3),(0,3),(0,3),(0,6);:_ZN7MAPUtil8DateTimeC2Eiii;2A.;__comp_ctor::(83,6):_ZN7MAPUtil8DateTimeC1Eiii;2A.;__base_ctor::(83,7)=#(83,1),(0,6),(83,3),(0,3),(0,3),(0,3),(0,3),(0,3),(0,3),(0,6);:_ZN7MAPUtil8DateTimeC2Eiiiiii;2A.;__comp_ctor::(83,7):_ZN7MAPUtil8DateTimeC1Eiiiiii;2A.;__base_ctor::(83,8)=#(83,1),(0,6),(83,3),(13,7),(0,6);:_ZN7MAPUtil8DateTimeC2EPKc;2A.;__comp_ctor::(83,8):_ZN7MAPUtil8DateTimeC1EPKc;2A.;__base_dtor::(83,2):_ZN7MAPUtil8DateTimeD2Ev;2A.;__comp_dtor::(83,2):_ZN7MAPUtil8DateTimeD1Ev;2A.;maxValue::(83,9)=f(83,1):_ZN7MAPUtil8DateTime8maxValueEv;2A?;minValue::(83,9):_ZN7MAPUtil8DateTime8minValueEv;2A?;now::(83,9):_ZN7MAPUtil8DateTime3nowEv;2A?;today::(83,9):_ZN7MAPUtil8DateTime5todayEv;2A?;timeOfDay::(83,10)=#(83,1),(85,1),(83,11)=*(83,12)=k(83,1),(0,6);:_ZNK7MAPUtil8DateTime9timeOfDayEv;2B.;getTicks::(83,13)=#(83,1),(84,1),(83,11),(0,6);:_ZNK7MAPUtil8DateTime8getTicksEv;2B.;getYear::(83,14)=#(83,1),(0,3),(83,11),(0,6);:_ZNK7MAPUtil8DateTime7getYearEv;2B.;getMonth::(83,14):_ZNK7MAPUtil8DateTime8getMonthEv;2B.;getWeekday::(83,14):_ZNK7MAPUtil8DateTime10getWeekdayEv;2B.;getDay::(83,14):_ZNK7MAPUtil8DateTime6getDayEv;2B.;getHour::(83,14):_ZNK7MAPUtil8DateTime7getHourEv;2B.;getMinute::(83,14):_ZNK7MAPUtil8DateTime9getMinuteEv;2B.;getSecond::(83,14):_ZNK7MAPUtil8DateTime9getSecondEv;2B.;add::(83,15)=#(83,1),(83,1),(83,11),(85,1),(0,6);:_ZNK7MAPUtil8DateTime3addENS_8TimeSpanE;2B.;addYears::(83,16)=#(83,1),(83,1),(83,11),(0,3),(0,6);:_ZNK7MAPUtil8DateTime8addYearsEi;2B.;addMonths::(83,16):_ZNK7MAPUtil8DateTime9addMonthsEi;2B.;addDays::(83,17)=#(83,1),(83,1),(83,11),(0,8),(0,6);:_ZNK7MAPUtil8DateTime7addDaysEd;2B.;addHours::(83,17):_ZNK7MAPUtil8DateTime8addHoursEd;2B.;addMinutes::(83,17):_ZNK7MAPUtil8DateTime10addMinutesEd;2B.;addSeconds::(83,17):_ZNK7MAPUtil8DateTime10addSecondsEd;2B.;addTicks::(83,16):_ZNK7MAPUtil8DateTime8addTicksEi;2B.;subtract::(83,18)=#(83,1),(85,1),(83,11),(83,1),(0,6);:_ZNK7MAPUtil8DateTime8subtractES0_;2B.(83,15):_ZNK7MAPUtil8DateTime8subtractENS_8TimeSpanE;2B.;operator=::(83,19)=#(83,1),(83,20)=&(83,1),(83,3),(83,21)=&(83,12),(0,6);:_ZN7MAPUtil8DateTimeaSERKS0_;2A.;__base_ctor::(83,22)=#(83,1),(0,6),(83,3),(83,21),(0,6);:_ZN7MAPUtil8DateTimeC2ERKS0_;2A.;__comp_ctor::(83,22):_ZN7MAPUtil8DateTimeC1ERKS0_;2A.;;",128,0,41,0
	.stabn	162,0,0,0
	.stabs	"C:\\Users\\gdr\\Documents\\source\\mobile-app\\MobileApp\\/Util.h",130,0,0,0
	.stabs	"platform_code:t(86,1)=eANDROID:0,IOS:1,WINDOWSPHONE7:2,;",128,0,34,0
	.stabs	"eHttp:t(86,2)=eGET:0,POST:1,;",128,0,40,0
.data
LC0:
	.ascii "mosync.device.OS\0"
LC1:
	.ascii "Android\0"
LC2:
	.ascii "iPhone OS\0"
.code
	.stabs	"_Z11getPlatformv:f(0,3)",36,0,50,__Z11getPlatformv

.func __Z11getPlatformv, 0, int
	.stabs	"C:\\Users\\gdr\\Documents\\source\\mobile-app\\MobileApp\\/Util.h",132,0,0,Ltext1
Ltext1:
	.line 50
	push rt,fr
	sub  sp,#0x104
	ld   fr,sp
	add  fr,#0x10c
	.dlab LBB2
	.dlab LBB3
	.line 52
	ld   r14,fr
	add  r14,#0xfffffef8
	ld   i0,#LC0
	ld   i1,r14
	ld   i2,#0x100
	call &_maGetSystemProperty
	.line 54
	ld   r14,fr
	add  r14,#0xfffffef8
	ld   i0,r14
	ld   i1,#LC1
	call &_strcmp
	ld   r0,r14
	ld   r14,#0x0
	jc   ne,r0,r14,#L2
	.line 56
	ld   r14,#0x0
	ld   [fr,-268],r14
	jp   #L1
L2:
	.line 60
	ld   r14,fr
	add  r14,#0xfffffef8
	ld   i0,r14
	ld   i1,#LC2
	call &_strcmp
	ld   r0,r14
	ld   r14,#0x0
	jc   ne,r0,r14,#L3
	.line 61
	ld   r14,#0x1
	ld   [fr,-268],r14
	jp   #L1
L3:
	.line 63
	ld   r14,#0x2
	ld   [fr,-268],r14
L1:
	.dlab LBE3
	.dlab LBE2
	.line 64
	ld   r14,[fr,-268]
	add  sp,#0x104
	pop  rt,fr
	ret
	.stabs	"platform:(86,3)=ar(3,57);0;255;(0,19)",128,0,51,-264
	.stabn	192,0,0,LBB3-__Z11getPlatformv
	.stabn	224,0,0,LBE3-__Z11getPlatformv
Lscope0:
	.stabs	"maGetSystemProperty:f(0,3)",36,0,6017,_maGetSystemProperty
	.stabs	"key:p(13,7)",160,0,6017,-12
	.stabs	"buf:p(3,5)",160,0,6017,-16
	.stabs	"size:p(0,3)",160,0,6017,-20

.func _maGetSystemProperty, 3, int
	.stabs	"c:/MoSync/include/maapi.h",132,0,0,Ltext2
Ltext2:
	.line 6017
	push rt,fr
	sub  sp,#0xc
	ld   fr,sp
	add  fr,#0x14
	ld   [fr,-12],i0
	ld   [fr,-16],i1
	ld   [fr,-20],i2
	.dlab LBB4
	.line 6018
	ld   i0,#0x59
	ld   i1,[fr,-12]
	ld   i2,[fr,-16]
	ld   i3,[fr,-20]
	call &_maIOCtl
	.dlab LBE4
	.line 6019
	add  sp,#0xc
	pop  rt,fr
	ret
Lscope1:
.data
LC3:
	.ascii "\0"
	.space	63	;(ASM_OUTPUT_SKIP)
LC4:
	.ascii "mosync.iso-639-1\0"
LC5:
	.ascii "LANGUAGE : %i: %s\12\0"
LC6:
	.ascii "fr\0"
LC7:
	.ascii " DAns LANGUAGE : %i: %s\12\0"
.code
	.stabs	"_Z17getSystemLanguagev:f(0,3)",36,0,67,__Z17getSystemLanguagev

.func __Z17getSystemLanguagev, 0, int
	.stabs	"C:\\Users\\gdr\\Documents\\source\\mobile-app\\MobileApp\\/Util.h",132,0,0,Ltext3
Ltext3:
	.line 67
	push rt,d0
	sub  sp,#0x58
	ld   fr,sp
	add  fr,#0x64
	.dlab LBB5
	.dlab LBB6
	.line 68
	ld   r14,#0x0
	ld   [fr,-16],r14
	.line 69
	ld.b r14,[&LC3]
	ld.b [fr,-80],r14
	ld   r14,fr
	add  r14,#0xffffffb1
	ld   r0,#0x3f
	ld   i0,r14
	ld   i1,#0x0
	ld   i2,r0
	call &_memset
	.line 70
	ld   r14,fr
	add  r14,#0xffffffb0
	ld   i0,#LC4
	ld   i1,r14
	ld   i2,#0x40
	call &_maGetSystemProperty
	ld   [fr,-84],r14
	.line 71
	ld   r14,[fr,-84]
	ld   [sp],r14
	ld   r14,fr
	add  r14,#0xffffffb0
	ld   [sp,4],r14
	ld   i0,#LC5
	call &_lprintfln
	.line 72
	ld   r14,fr
	add  r14,#0xffffffa8
	ld   r0,fr
	add  r0,#0xffffffb0
	ld   i0,r14
	ld   i1,r0
	call &__ZN6MAUtil11BasicStringIcEC1EPKc
	.line 73
	ld   r14,fr
	add  r14,#0xffffffa4
	ld   i0,r14
	ld   i1,#LC6
	call &__ZN6MAUtil11BasicStringIcEC1EPKc
	ld   r0,fr
	add  r0,#0xffffffa4
	ld   r14,fr
	add  r14,#0xffffffa8
	ld   i0,r14
	ld   i1,r0
	call &__ZNK6MAUtil11BasicStringIcEeqERKS1_
	ld   d0,r14
	ld   r14,fr
	add  r14,#0xffffffa4
	ld   i0,r14
	call &__ZN6MAUtil11BasicStringIcED1Ev
	ld   r0,d0
	and  r0,#0xff  ; zero extend
	ld   r14,#0x0
	jc   eq,r0,r14,#L7
	.line 75
	ld   r14,[fr,-84]
	ld   [sp],r14
	ld   r14,fr
	add  r14,#0xffffffb0
	ld   [sp,4],r14
	ld   i0,#LC7
	call &_lprintfln
	.line 76
	ld   r14,#0x1
	ld   [fr,-16],r14
L7:
	.line 78
	ld   d0,[fr,-16]
	.dlab LBB7
	ld   r14,fr
	add  r14,#0xffffffa8
	ld   i0,r14
	call &__ZN6MAUtil11BasicStringIcED1Ev
	.dlab LBE7
	ld   r14,d0
	.dlab LBE6
	.dlab LBE5
	.line 79
	add  sp,#0x58
	pop  rt,d0
	ret
	.stabs	"language:(0,3)",128,0,68,-16
	.stabs	"buf:(86,4)=ar(3,57);0;63;(0,19)",128,0,69,-80
	.stabs	"res:(0,3)",128,0,70,-84
	.stabs	"tmp:(5,1)",128,0,72,-88
	.stabn	192,0,0,LBB6-__Z17getSystemLanguagev
	.stabn	224,0,0,LBE6-__Z17getSystemLanguagev
Lscope2:
	.stabn	162,0,0,0
	.stabs	"c:/MoSync/include/notification/LocalNotification.h",130,0,0,0
	.stabs	"NotificationFlag:t(87,1)=eNOTIFICATION_FLAG_INSISTENT:4,NOTIFICATION_FLAG_NO_CLEAR:32,NOTIFICATION_FLAG_HIGH_PRIORITY:128,NOTIFICATION_FLAG_AUTO_CANCEL:16,;",128,0,59,0
	.stabs	"NotificationDisplayFlag:t(87,2)=eNOTIFICATION_DISPLAY_DEFAULT:0,NOTIFICATION_DISPLAY_ANYTIME:1,;",128,0,91,0
	.stabs	"NotificationFlashLights:Tt(87,3)=s12ledARGB:(0,3),0,32;ledOnMS:(0,3),32,32;ledOffMS:(0,3),64,32;__base_ctor::(87,4)=#(87,3),(0,6),(87,5)=*(87,3),(0,3),(0,3),(0,3),(0,6);:_ZN12Notification23NotificationFlashLightsC2Eiii;2A.;__comp_ctor::(87,4):_ZN12Notification23NotificationFlashLightsC1Eiii;2A.;__base_ctor::(87,6)=#(87,3),(0,6),(87,5),(0,6);:_ZN12Notification23NotificationFlashLightsC2Ev;2A.;__comp_ctor::(87,6):_ZN12Notification23NotificationFlashLightsC1Ev;2A.;operator=::(87,7)=#(87,3),(87,8)=&(87,3),(87,5),(87,9)=&(87,10)=k(87,3),(0,6);:_ZN12Notification23NotificationFlashLightsaSERKS0_;2A.;__base_ctor::(87,11)=#(87,3),(0,6),(87,5),(87,9),(0,6);:_ZN12Notification23NotificationFlashLightsC2ERKS0_;2A.;__comp_ctor::(87,11):_ZN12Notification23NotificationFlashLightsC1ERKS0_;2A.;;",128,0,115,0
	.stabn	162,0,0,0
	.stabs	"c:/MoSync/include/notification/NotificationManager.h",130,0,0,0
	.stabs	"PushNotificationType:t(88,1)=ePUSH_NOTIFICATION_TYPE_BADGE:1,PUSH_NOTIFICATION_TYPE_SOUND:2,PUSH_NOTIFICATION_TYPE_ALERT:4,;",128,0,60,0
	.lcomm	__ZN12Notification52NOTIFICATIONS_REGISTRATION_ERR_SERVICE_NOT_AVAILABLEE, 4 ; size=4
	.lcomm	__ZN12Notification46NOTIFICATIONS_REGISTRATION_ERR_ACCOUNT_MISSINGE, 4 ; size=4
	.lcomm	__ZN12Notification52NOTIFICATIONS_REGISTRATION_ERR_AUTHENTICATION_FAILEDE, 4 ; size=4
	.lcomm	__ZN12Notification53NOTIFICATIONS_REGISTRATION_ERR_TOO_MANY_REGISTRATIONSE, 4 ; size=4
	.lcomm	__ZN12Notification45NOTIFICATIONS_REGISTRATION_ERR_INVALID_SENDERE, 4 ; size=4
	.stabs	"Dictionary<const MAHandle,MAUtil::Pair<const MAHandle, Notification::LocalNotification*> >:Tt(88,2)=s56mDict:/1(16,32),0,416;mKeyOffset:/1(0,3),416,32;__base_ctor::(88,3)=#(88,2),(0,6),(88,4)=*(88,2),(88,5)=&(88,6)=k(88,2),(0,6);:_ZN6MAUtil10DictionaryIKiNS_4PairIS1_PN12Notification17LocalNotificationEEEEC2ERKS7_;2A.;__comp_ctor::(88,3):_ZN6MAUtil10DictionaryIKiNS_4PairIS1_PN12Notification17LocalNotificationEEEEC1ERKS7_;2A.;operator=::(88,7)=#(88,2),(88,8)=&(88,2),(88,4),(88,5),(0,6);:_ZN6MAUtil10DictionaryIKiNS_4PairIS1_PN12Notification17LocalNotificationEEEEaSERKS7_;2A.;__base_dtor::(88,9)=#(88,2),(0,6),(88,4),(0,6);:_ZN6MAUtil10DictionaryIKiNS_4PairIS1_PN12Notification17LocalNotificationEEEED2Ev;2A.;__comp_dtor::(88,9):_ZN6MAUtil10DictionaryIKiNS_4PairIS1_PN12Notification17LocalNotificationEEEED1Ev;2A.;find::(88,10)=#(88,2),(88,11)=xsIterator:,(88,4),(81,11),(0,6);:_ZN6MAUtil10DictionaryIKiNS_4PairIS1_PN12Notification17LocalNotificationEEEE4findERS1_;2A.(88,12)=#(88,2),(88,13)=xsConstIterator:,(88,14)=*(88,6),(81,11),(0,6);:_ZNK6MAUtil10DictionaryIKiNS_4PairIS1_PN12Notification17LocalNotificationEEEE4findERS1_;2B.;erase::(88,15)=#(88,2),(0,4),(88,4),(81,11),(0,6);:_ZN6MAUtil10DictionaryIKiNS_4PairIS1_PN12Notification17LocalNotificationEEEE5eraseERS1_;2A.(88,16)=#(88,2),(0,6),(88,4),(88,11),(0,6);:_ZN6MAUtil10DictionaryIKiNS_4PairIS1_PN12Notification17LocalNotificationEEEE5eraseENS7_8IteratorE;2A.;begin::(88,17)=#(88,2),(88,11),(88,4),(0,6);:_ZN6MAUtil10DictionaryIKiNS_4PairIS1_PN12Notification17LocalNotificationEEEE5beginEv;2A.(88,18)=#(88,2),(88,13),(88,14),(0,6);:_ZNK6MAUtil10DictionaryIKiNS_4PairIS1_PN12Notification17LocalNotificationEEEE5beginEv;2B.;end::(88,17):_ZN6MAUtil10DictionaryIKiNS_4PairIS1_PN12Notification17LocalNotificationEEEE3endEv;2A.(88,18):_ZNK6MAUtil10DictionaryIKiNS_4PairIS1_PN12Notification17LocalNotificationEEEE3endEv;2B.;size::(88,19)=#(88,2),(2,1),(88,14),(0,6);:_ZNK6MAUtil10DictionaryIKiNS_4PairIS1_PN12Notification17LocalNotificationEEEE4sizeEv;2B.;clear::(88,9):_ZN6MAUtil10DictionaryIKiNS_4PairIS1_PN12Notification17LocalNotificationEEEE5clearEv;2A.;init::(88,20)=#(88,2),(0,6),(88,4),(81,22),(0,6);:_ZN6MAUtil10DictionaryIKiNS_4PairIS1_PN12Notification17LocalNotificationEEEE4initEPFiRS1_S8_E;1A.;alloc::(16,19):_ZN6MAUtil10DictionaryIKiNS_4PairIS1_PN12Notification17LocalNotificationEEEE5allocEPv;1A?;free::(16,23):_ZN6MAUtil10DictionaryIKiNS_4PairIS1_PN12Notification17LocalNotificationEEEE4freeEP7dnode_tPv;1A?;__base_ctor::(88,21)=#(88,2),(0,6),(88,4),(81,22),(0,3),(0,6);:_ZN6MAUtil10DictionaryIKiNS_4PairIS1_PN12Notification17LocalNotificationEEEEC2EPFiRS1_S8_Ei;1A.;__comp_ctor::(88,21):_ZN6MAUtil10DictionaryIKiNS_4PairIS1_PN12Notification17LocalNotificationEEEEC1EPFiRS1_S8_Ei;1A.;insert::(88,22)=#(88,2),(88,23)=xsPair<MAUtil::Dictionary<const MAHandle, MAUtil::Pair<const MAHandle, Notification::LocalNotification*> >::Iterator,bool>:,(88,4),(88,24)=&(88,25)=k(88,26)=xsPair<const MAHandle,Notification::LocalNotification*>:,(0,6);:_ZN6MAUtil10DictionaryIKiNS_4PairIS1_PN12Notification17LocalNotificationEEEE6insertERKS6_;1A.;;",128,0,57,0
	.stabs	"Map<MAHandle,Notification::LocalNotification*>:Tt(88,27)=s56!1,020,(88,2);__base_ctor::(88,28)=#(88,27),(0,6),(88,29)=*(88,27),(81,22),(0,6);:_ZN6MAUtil3MapIiPN12Notification17LocalNotificationEEC2EPFiRKiS6_E;2A.;__comp_ctor::(88,28):_ZN6MAUtil3MapIiPN12Notification17LocalNotificationEEC1EPFiRKiS6_E;2A.;insert::(88,30)=#(88,27),(88,23),(88,29),(81,11),(88,31)=&(88,32)=k(88,33)=*(88,34)=xsLocalNotification:,(0,6);:_ZN6MAUtil3MapIiPN12Notification17LocalNotificationEE6insertERKiRKS3_;2A.(88,35)=#(88,27),(88,23),(88,29),(88,36)=&(88,37)=k(88,38)=xsPair<MAHandle,Notification::LocalNotification*>:,(0,6);:_ZN6MAUtil3MapIiPN12Notification17LocalNotificationEE6insertERKNS_4PairIiS3_EE;2A.;operator[]::(88,39)=#(88,27),(88,40)=&(88,33),(88,29),(81,11),(0,6);:_ZN6MAUtil3MapIiPN12Notification17LocalNotificationEEixERKi;2A.;operator=::(88,41)=#(88,27),(88,42)=&(88,27),(88,29),(88,43)=&(88,44)=k(88,27),(0,6);:_ZN6MAUtil3MapIiPN12Notification17LocalNotificationEEaSERKS4_;2A.;__base_ctor::(88,45)=#(88,27),(0,6),(88,29),(88,43),(0,6);:_ZN6MAUtil3MapIiPN12Notification17LocalNotificationEEC2ERKS4_;2A.;__comp_ctor::(88,45):_ZN6MAUtil3MapIiPN12Notification17LocalNotificationEEC1ERKS4_;2A.;__base_dtor::(88,46)=#(88,27),(0,6),(88,29),(0,6);:_ZN6MAUtil3MapIiPN12Notification17LocalNotificationEED2Ev;2A.;__comp_dtor::(88,46):_ZN6MAUtil3MapIiPN12Notification17LocalNotificationEED1Ev;2A.;;",128,0,33,0
	.stabs	"Vector<Notification::LocalNotificationListener*>:Tt(88,47)=s12mSize:/1(0,3),0,32;mCapacity:/1(0,3),32,32;mData:/1(88,48)=*(88,49)=*(88,50)=xsLocalNotificationListener:,64,32;__base_ctor::(88,51)=#(88,47),(0,6),(88,52)=*(88,47),(0,3),(0,6);:_ZN6MAUtil6VectorIPN12Notification25LocalNotificationListenerEEC2Ei;2A.;__comp_ctor::(88,51):_ZN6MAUtil6VectorIPN12Notification25LocalNotificationListenerEEC1Ei;2A.;__base_ctor::(88,53)=#(88,47),(0,6),(88,52),(88,54)=*(88,55)=k(88,49),(0,3),(0,6);:_ZN6MAUtil6VectorIPN12Notification25LocalNotificationListenerEEC2EPKS3_i;2A.;__comp_ctor::(88,53):_ZN6MAUtil6VectorIPN12Notification25LocalNotificationListenerEEC1EPKS3_i;2A.;__base_ctor::(88,56)=#(88,47),(0,6),(88,52),(88,57)=&(88,58)=k(88,47),(0,6);:_ZN6MAUtil6VectorIPN12Notification25LocalNotificationListenerEEC2ERKS4_;2A.;__comp_ctor::(88,56):_ZN6MAUtil6VectorIPN12Notification25LocalNotificationListenerEEC1ERKS4_;2A.;__base_dtor::(88,59)=#(88,47),(0,6),(88,52),(0,6);:_ZN6MAUtil6VectorIPN12Notification25LocalNotificationListenerEED2Ev;2A.;__comp_dtor::(88,59):_ZN6MAUtil6VectorIPN12Notification25LocalNotificationListenerEED1Ev;2A.;operator=::(88,60)=#(88,47),(88,61)=&(88,47),(88,52),(88,57),(0,6);:_ZN6MAUtil6VectorIPN12Notification25LocalNotificationListenerEEaSERKS4_;2A.;add::(88,62)=#(88,47),(0,6),(88,52),(88,63)=&(88,55),(0,6);:_ZN6MAUtil6VectorIPN12Notification25LocalNotificationListenerEE3addERKS3_;2A.(88,53):_ZN6MAUtil6VectorIPN12Notification25LocalNotificationListenerEE3addEPKS3_i;2A.;remove::(88,64)=#(88,47),(0,6),(88,52),(88,48),(0,6);:_ZN6MAUtil6VectorIPN12Notification25LocalNotificationListenerEE6removeEPS3_;2A.(88,65)=#(88,47),(0,6),(88,52),(0,3),(0,6);:_ZN6MAUtil6VectorIPN12Notification25LocalNotificationListenerEE6removeEi;2A.(88,66)=#(88,47),(0,6),(88,52),(0,3),(0,3),(0,6);:_ZN6MAUtil6VectorIPN12Notification25LocalNotificationListenerEE6removeEii;2A.;insert::(88,67)=#(88,47),(0,6),(88,52),(0,3),(88,49),(0,6);:_ZN6MAUtil6VectorIPN12Notification25LocalNotificationListenerEE6insertEiS3_;2A.;size::(88,68)=#(88,47),(0,3),(88,69)=*(88,58),(0,6);:_ZNK6MAUtil6VectorIPN12Notification25LocalNotificationListenerEE4sizeEv;2B.;resize::(88,65):_ZN6MAUtil6VectorIPN12Notification25LocalNotificationListenerEE6resizeEi;2A.;reserve::(88,65):_ZN6MAUtil6VectorIPN12Notification25LocalNotificationListenerEE7reserveEi;2A.;clear::(88,59):_ZN6MAUtil6VectorIPN12Notification25LocalNotificationListenerEE5clearEv;2A.;empty::(88,70)=#(88,47),(0,4),(88,69),(0,6);:_ZNK6MAUtil6VectorIPN12Notification25LocalNotificationListenerEE5emptyEv;2B.;capacity::(88,68):_ZNK6MAUtil6VectorIPN12Notification25LocalNotificationListenerEE8capacityEv;2B.;begin::(88,71)=#(88,47),(88,48),(88,52),(0,6);:_ZN6MAUtil6VectorIPN12Notification25LocalNotificationListenerEE5beginEv;2A.;end::(88,71):_ZN6MAUtil6VectorIPN12Notification25LocalNotificationListenerEE3endEv;2A.;begin::(88,72)=#(88,47),(88,54),(88,69),(0,6);:_ZNK6MAUtil6VectorIPN12Notification25LocalNotificationListenerEE5beginEv;2B.;end::(88,72):_ZNK6MAUtil6VectorIPN12Notification25LocalNotificationListenerEE3endEv;2B.;operator[]::(88,73)=#(88,47),(88,74)=&(88,49),(88,52),(0,3),(0,6);:_ZN6MAUtil6VectorIPN12Notification25LocalNotificationListenerEEixEi;2A.(88,75)=#(88,47),(88,63),(88,69),(0,3),(0,6);:_ZNK6MAUtil6VectorIPN12Notification25LocalNotificationListenerEEixEi;2B.;pointer::(88,72):_ZNK6MAUtil6VectorIPN12Notification25LocalNotificationListenerEE7pointerEv;2B.(88,71):_ZN6MAUtil6VectorIPN12Notification25LocalNotificationListenerEE7pointerEv;2A.;;",128,0,95,0
	.stabs	"Vector<Notification::PushNotificationListener*>:Tt(88,76)=s12mSize:/1(0,3),0,32;mCapacity:/1(0,3),32,32;mData:/1(88,77)=*(88,78)=*(88,79)=xsPushNotificationListener:,64,32;__base_ctor::(88,80)=#(88,76),(0,6),(88,81)=*(88,76),(0,3),(0,6);:_ZN6MAUtil6VectorIPN12Notification24PushNotificationListenerEEC2Ei;2A.;__comp_ctor::(88,80):_ZN6MAUtil6VectorIPN12Notification24PushNotificationListenerEEC1Ei;2A.;__base_ctor::(88,82)=#(88,76),(0,6),(88,81),(88,83)=*(88,84)=k(88,78),(0,3),(0,6);:_ZN6MAUtil6VectorIPN12Notification24PushNotificationListenerEEC2EPKS3_i;2A.;__comp_ctor::(88,82):_ZN6MAUtil6VectorIPN12Notification24PushNotificationListenerEEC1EPKS3_i;2A.;__base_ctor::(88,85)=#(88,76),(0,6),(88,81),(88,86)=&(88,87)=k(88,76),(0,6);:_ZN6MAUtil6VectorIPN12Notification24PushNotificationListenerEEC2ERKS4_;2A.;__comp_ctor::(88,85):_ZN6MAUtil6VectorIPN12Notification24PushNotificationListenerEEC1ERKS4_;2A.;__base_dtor::(88,88)=#(88,76),(0,6),(88,81),(0,6);:_ZN6MAUtil6VectorIPN12Notification24PushNotificationListenerEED2Ev;2A.;__comp_dtor::(88,88):_ZN6MAUtil6VectorIPN12Notification24PushNotificationListenerEED1Ev;2A.;operator=::(88,89)=#(88,76),(88,90)=&(88,76),(88,81),(88,86),(0,6);:_ZN6MAUtil6VectorIPN12Notification24PushNotificationListenerEEaSERKS4_;2A.;add::(88,91)=#(88,76),(0,6),(88,81),(88,92)=&(88,84),(0,6);:_ZN6MAUtil6VectorIPN12Notification24PushNotificationListenerEE3addERKS3_;2A.(88,82):_ZN6MAUtil6VectorIPN12Notification24PushNotificationListenerEE3addEPKS3_i;2A.;remove::(88,93)=#(88,76),(0,6),(88,81),(88,77),(0,6);:_ZN6MAUtil6VectorIPN12Notification24PushNotificationListenerEE6removeEPS3_;2A.(88,94)=#(88,76),(0,6),(88,81),(0,3),(0,6);:_ZN6MAUtil6VectorIPN12Notification24PushNotificationListenerEE6removeEi;2A.(88,95)=#(88,76),(0,6),(88,81),(0,3),(0,3),(0,6);:_ZN6MAUtil6VectorIPN12Notification24PushNotificationListenerEE6removeEii;2A.;insert::(88,96)=#(88,76),(0,6),(88,81),(0,3),(88,78),(0,6);:_ZN6MAUtil6VectorIPN12Notification24PushNotificationListenerEE6insertEiS3_;2A.;size::(88,97)=#(88,76),(0,3),(88,98)=*(88,87),(0,6);:_ZNK6MAUtil6VectorIPN12Notification24PushNotificationListenerEE4sizeEv;2B.;resize::(88,94):_ZN6MAUtil6VectorIPN12Notification24PushNotificationListenerEE6resizeEi;2A.;reserve::(88,94):_ZN6MAUtil6VectorIPN12Notification24PushNotificationListenerEE7reserveEi;2A.;clear::(88,88):_ZN6MAUtil6VectorIPN12Notification24PushNotificationListenerEE5clearEv;2A.;empty::(88,99)=#(88,76),(0,4),(88,98),(0,6);:_ZNK6MAUtil6VectorIPN12Notification24PushNotificationListenerEE5emptyEv;2B.;capacity::(88,97):_ZNK6MAUtil6VectorIPN12Notification24PushNotificationListenerEE8capacityEv;2B.;begin::(88,100)=#(88,76),(88,77),(88,81),(0,6);:_ZN6MAUtil6VectorIPN12Notification24PushNotificationListenerEE5beginEv;2A.;end::(88,100):_ZN6MAUtil6VectorIPN12Notification24PushNotificationListenerEE3endEv;2A.;begin::(88,101)=#(88,76),(88,83),(88,98),(0,6);:_ZNK6MAUtil6VectorIPN12Notification24PushNotificationListenerEE5beginEv;2B.;end::(88,101):_ZNK6MAUtil6VectorIPN12Notification24PushNotificationListenerEE3endEv;2B.;operator[]::(88,102)=#(88,76),(88,103)=&(88,78),(88,81),(0,3),(0,6);:_ZN6MAUtil6VectorIPN12Notification24PushNotificationListenerEEixEi;2A.(88,104)=#(88,76),(88,92),(88,98),(0,3),(0,6);:_ZNK6MAUtil6VectorIPN12Notification24PushNotificationListenerEEixEi;2B.;pointer::(88,101):_ZNK6MAUtil6VectorIPN12Notification24PushNotificationListenerEE7pointerEv;2B.(88,100):_ZN6MAUtil6VectorIPN12Notification24PushNotificationListenerEE7pointerEv;2A.;;",128,0,95,0
	.stabn	162,0,0,0
	.stabs	"c:/MoSync/include/IX_CELLID.h",130,0,0,0
	.stabs	"MACellInfo:Tt(89,1)=s20mcc:(89,2)=ar(3,57);0;3;(0,19),0,32;mnc:(89,3)=ar(3,57);0;7;(0,19),32,64;lac:(0,3),96,32;cellId:(0,3),128,32;operator=::(89,4)=#(89,1),(89,5)=&(89,1),(89,6)=*(89,1),(89,7)=&(89,8)=k(89,1),(0,6);:_ZN10MACellInfoaSERKS_;2A.;__base_ctor::(89,9)=#(89,1),(0,6),(89,6),(89,7),(0,6);:_ZN10MACellInfoC2ERKS_;2A.;__comp_ctor::(89,9):_ZN10MACellInfoC1ERKS_;2A.;__base_ctor::(89,10)=#(89,1),(0,6),(89,6),(0,6);:_ZN10MACellInfoC2Ev;2A.;__comp_ctor::(89,10):_ZN10MACellInfoC1Ev;2A.;;",128,0,20,0
	.stabs	"MACellInfo:t(89,11)=(89,1)",128,0,47,0
	.stabn	162,0,0,0
	.stabs	"C:\\Users\\gdr\\Documents\\source\\mobile-app\\MobileApp\\/resource/Convert.h",130,0,0,0
	.stabs	"STime:Tt(90,1)=s28sec:(0,3),0,32;min:(0,3),32,32;hour:(0,3),64,32;day:(0,3),96,32;mon:(0,3),128,32;sMon:(5,1),160,32;year:(0,3),192,32;operator=::(90,2)=#(90,1),(90,3)=&(90,1),(90,4)=*(90,1),(90,5)=&(90,6)=k(90,1),(0,6);:_ZN5STimeaSERKS_;2A.;__base_ctor::(90,7)=#(90,1),(0,6),(90,4),(90,5),(0,6);:_ZN5STimeC2ERKS_;2A.;__comp_ctor::(90,7):_ZN5STimeC1ERKS_;2A.;__base_ctor::(90,8)=#(90,1),(0,6),(90,4),(0,6);:_ZN5STimeC2Ev;2A.;__comp_ctor::(90,8):_ZN5STimeC1Ev;2A.;__base_dtor::(90,8):_ZN5STimeD2Ev;2A.;__comp_dtor::(90,8):_ZN5STimeD1Ev;2A.;;",128,0,19,0
	.stabs	"Convert:Tt(90,9)=s1__base_ctor::(90,10)=#(90,9),(0,6),(90,11)=*(90,9),(0,6);:_ZN7ConvertC2Ev;2A.;__comp_ctor::(90,10):_ZN7ConvertC1Ev;2A.;__base_dtor::(90,10):_ZN7ConvertD2Ev;2A.;__comp_dtor::(90,10):_ZN7ConvertD1Ev;2A.;toSTime::(90,12)=f(90,1):_ZN7Convert7toSTimeERN6MAUtil11BasicStringIcEE;2A?;toInt::(90,13)=f(0,3):_ZN7Convert5toIntERN6MAUtil11BasicStringIcEE;2A?(90,14)=f(0,3):_ZN7Convert5toIntEPKc;2A?;toDouble::(90,15)=f(0,8):_ZN7Convert8toDoubleERN6MAUtil11BasicStringIcEE;2A?(90,16)=f(0,8):_ZN7Convert8toDoubleEPKc;2A?;toDateTime::(90,17)=f(84,1):_ZN7Convert10toDateTimeERN6MAUtil11BasicStringIcEE;2A?;toString::(90,18)=f(5,1):_ZN7Convert8toStringEi;2A?(90,19)=f(5,1):_ZN7Convert8toStringEd;2A?(90,20)=f(5,1):_ZN7Convert8toStringEx;2A?(90,21)=f(5,1):_ZN7Convert8toStringEPKhm;2A?(90,22)=f(5,1):_ZN7Convert8toStringEb;2A?;hexToInt::(90,14):_ZN7Convert8hexToIntEPKc;2A?;formatJSONBeforeParse::(90,23)=f(0,6):_ZN7Convert21formatJSONBeforeParseERN6MAUtil11BasicStringIcEEi;2A?;tr::(90,24)=f(3,5):_ZN7Convert2trEi;2A?;operator=::(90,25)=#(90,9),(90,26)=&(90,9),(90,11),(90,27)=&(90,28)=k(90,9),(0,6);:_ZN7ConvertaSERKS_;2A.;__base_ctor::(90,29)=#(90,9),(0,6),(90,11),(90,27),(0,6);:_ZN7ConvertC2ERKS_;2A.;__comp_ctor::(90,29):_ZN7ConvertC1ERKS_;2A.;;",128,0,32,0
	.stabn	162,0,0,0
	.stabs	"C:\\Users\\gdr\\Documents\\source\\mobile-app\\MobileApp\\/IncludeFile.h",130,0,0,0
	.stabs	"c:/MoSync/include/Wormhole/HighLevelHttpConnection.h",130,0,0,0
	.stabs	"c:/MoSync/include/maheap.h",130,0,0,0
	.stabs	"malloc_handler:t(93,1)=(93,2)=*(93,3)=f(0,6)",128,0,108,0
	.stabs	"malloc_hook:t(93,4)=(93,5)=*(93,6)=f(3,9)",128,0,109,0
	.stabs	"free_hook:t(93,7)=(93,8)=*(93,9)=f(0,6)",128,0,110,0
	.stabs	"realloc_hook:t(93,10)=(93,11)=*(93,12)=f(3,9)",128,0,111,0
	.stabs	"block_size_hook:t(93,13)=(93,14)=*(93,15)=f(0,3)",128,0,112,0
	.stabn	162,0,0,0
	.stabs	"c:/MoSync/include/MAUtil/Connection.h",130,0,0,0
	.stabn	162,0,0,0
	.stabs	"Vector<MAHandle>:Tt(92,1)=s12mSize:/1(0,3),0,32;mCapacity:/1(0,3),32,32;mData:/1(92,2)=*(3,10),64,32;__base_ctor::(92,3)=#(92,1),(0,6),(92,4)=*(92,1),(0,3),(0,6);:_ZN6MAUtil6VectorIiEC2Ei;2A.;__comp_ctor::(92,3):_ZN6MAUtil6VectorIiEC1Ei;2A.;__base_ctor::(92,5)=#(92,1),(0,6),(92,4),(92,6)=*(81,12),(0,3),(0,6);:_ZN6MAUtil6VectorIiEC2EPKii;2A.;__comp_ctor::(92,5):_ZN6MAUtil6VectorIiEC1EPKii;2A.;__base_ctor::(92,7)=#(92,1),(0,6),(92,4),(92,8)=&(92,9)=k(92,1),(0,6);:_ZN6MAUtil6VectorIiEC2ERKS1_;2A.;__comp_ctor::(92,7):_ZN6MAUtil6VectorIiEC1ERKS1_;2A.;__base_dtor::(92,10)=#(92,1),(0,6),(92,4),(0,6);:_ZN6MAUtil6VectorIiED2Ev;2A.;__comp_dtor::(92,10):_ZN6MAUtil6VectorIiED1Ev;2A.;operator=::(92,11)=#(92,1),(92,12)=&(92,1),(92,4),(92,8),(0,6);:_ZN6MAUtil6VectorIiEaSERKS1_;2A.;add::(92,13)=#(92,1),(0,6),(92,4),(81,11),(0,6);:_ZN6MAUtil6VectorIiE3addERKi;2A.(92,5):_ZN6MAUtil6VectorIiE3addEPKii;2A.;remove::(92,14)=#(92,1),(0,6),(92,4),(92,2),(0,6);:_ZN6MAUtil6VectorIiE6removeEPi;2A.(92,15)=#(92,1),(0,6),(92,4),(0,3),(0,6);:_ZN6MAUtil6VectorIiE6removeEi;2A.(92,16)=#(92,1),(0,6),(92,4),(0,3),(0,3),(0,6);:_ZN6MAUtil6VectorIiE6removeEii;2A.;insert::(92,16):_ZN6MAUtil6VectorIiE6insertEii;2A.;size::(92,17)=#(92,1),(0,3),(92,18)=*(92,9),(0,6);:_ZNK6MAUtil6VectorIiE4sizeEv;2B.;resize::(92,15):_ZN6MAUtil6VectorIiE6resizeEi;2A.;reserve::(92,15):_ZN6MAUtil6VectorIiE7reserveEi;2A.;clear::(92,10):_ZN6MAUtil6VectorIiE5clearEv;2A.;empty::(92,19)=#(92,1),(0,4),(92,18),(0,6);:_ZNK6MAUtil6VectorIiE5emptyEv;2B.;capacity::(92,17):_ZNK6MAUtil6VectorIiE8capacityEv;2B.;begin::(92,20)=#(92,1),(92,2),(92,4),(0,6);:_ZN6MAUtil6VectorIiE5beginEv;2A.;end::(92,20):_ZN6MAUtil6VectorIiE3endEv;2A.;begin::(92,21)=#(92,1),(92,6),(92,18),(0,6);:_ZNK6MAUtil6VectorIiE5beginEv;2B.;end::(92,21):_ZNK6MAUtil6VectorIiE3endEv;2B.;operator[]::(92,22)=#(92,1),(92,23)=&(3,10),(92,4),(0,3),(0,6);:_ZN6MAUtil6VectorIiEixEi;2A.(92,24)=#(92,1),(81,11),(92,18),(0,3),(0,6);:_ZNK6MAUtil6VectorIiEixEi;2B.;pointer::(92,21):_ZNK6MAUtil6VectorIiE7pointerEv;2B.(92,20):_ZN6MAUtil6VectorIiE7pointerEv;2A.;;",128,0,95,0
	.stabn	162,0,0,0
	.stabs	"c:/MoSync/include/Wormhole/MessageStreamJSON.h",130,0,0,0
	.stabs	"c:/MoSync/include/MAUtil/HashMap.h",130,0,0,0
	.stabs	"c:/MoSync/include/MAUtil/HashDict.h",130,0,0,0
	.stabs	"c:/MoSync/include/kazlib/hash.h",130,0,0,0
	.stabs	"hashcount_t:t(98,1)=(0,16)",128,0,37,0
	.stabs	"hash_val_t:t(98,2)=(0,16)",128,0,40,0
	.stabs	"hnode_t:Tt(98,3)=s16hash_next:(98,4)=*(98,3),0,32;hash_key:(16,5),32,32;hash_data:(3,9),64,32;hash_hkey:(98,2),96,32;operator=::(98,5)=#(98,3),(98,6)=&(98,3),(98,4),(98,7)=&(98,8)=k(98,3),(0,6);:_ZN7hnode_taSERKS_;2A.;__base_ctor::(98,9)=#(98,3),(0,6),(98,4),(98,7),(0,6);:_ZN7hnode_tC2ERKS_;2A.;__comp_ctor::(98,9):_ZN7hnode_tC1ERKS_;2A.;__base_ctor::(98,10)=#(98,3),(0,6),(98,4),(0,6);:_ZN7hnode_tC2Ev;2A.;__comp_ctor::(98,10):_ZN7hnode_tC1Ev;2A.;;",128,0,73,0
	.stabs	"hnode_t:t(98,11)=(98,3)",128,0,82,0
	.stabs	"hash_comp_t:t(98,12)=(16,15)",128,0,91,0
	.stabs	"hash_fun_t:t(98,13)=(98,14)=*(98,15)=f(98,2)",128,0,105,0
	.stabs	"hnode_alloc_t:t(98,16)=(98,17)=*(98,18)=f(98,19)=*(98,11)",128,0,111,0
	.stabs	"hnode_free_t:t(98,20)=(98,21)=*(98,22)=f(0,6)",128,0,112,0
	.stabs	"hash_t:Tt(98,23)=s52hash_table:(98,24)=*(98,4),0,32;hash_nchains:(98,1),32,32;hash_nodecount:(98,1),64,32;hash_maxcount:(98,1),96,32;hash_highmark:(98,1),128,32;hash_lowmark:(98,1),160,32;hash_compare:(98,12),192,32;hash_function:(98,13),224,32;hash_allocnode:(98,16),256,32;hash_freenode:(98,20),288,32;hash_context:(3,9),320,32;hash_mask:(98,2),352,32;hash_dynamic:(0,3),384,32;operator=::(98,25)=#(98,23),(98,26)=&(98,23),(98,27)=*(98,23),(98,28)=&(98,29)=k(98,23),(0,6);:_ZN6hash_taSERKS_;2A.;__base_ctor::(98,30)=#(98,23),(0,6),(98,27),(98,28),(0,6);:_ZN6hash_tC2ERKS_;2A.;__comp_ctor::(98,30):_ZN6hash_tC1ERKS_;2A.;__base_ctor::(98,31)=#(98,23),(0,6),(98,27),(0,6);:_ZN6hash_tC2Ev;2A.;__comp_ctor::(98,31):_ZN6hash_tC1Ev;2A.;;",128,0,149,0
	.stabs	"hash_t:t(98,32)=(98,23)",128,0,167,0
	.stabs	"hscan_t:Tt(98,33)=s12hash_table:(98,34)=*(98,32),0,32;hash_chain:(98,2),32,32;hash_next:(98,19),64,32;operator=::(98,35)=#(98,33),(98,36)=&(98,33),(98,37)=*(98,33),(98,38)=&(98,39)=k(98,33),(0,6);:_ZN7hscan_taSERKS_;2A.;__base_ctor::(98,40)=#(98,33),(0,6),(98,37),(98,38),(0,6);:_ZN7hscan_tC2ERKS_;2A.;__comp_ctor::(98,40):_ZN7hscan_tC1ERKS_;2A.;__base_ctor::(98,41)=#(98,33),(0,6),(98,37),(0,6);:_ZN7hscan_tC2Ev;2A.;__comp_ctor::(98,41):_ZN7hscan_tC1Ev;2A.;;",128,0,179,0
	.stabs	"hscan_t:t(98,42)=(98,33)",128,0,187,0
	.stabn	162,0,0,0
	.stabn	162,0,0,0
	.stabn	162,0,0,0
	.stabs	"c:/MoSync/include/yajl/YAJLDom.h",130,0,0,0
	.stabs	"Value::Type:t(99,1)=eNUL:0,BOOLEAN:1,NUMBER:2,ARRAY:3,MAP:4,STRING:5,;",128,0,37,0
	.stabs	"Dictionary<const MAUtil::BasicString<char>,MAUtil::Pair<const MAUtil::BasicString<char>, MAUtil::YAJLDom::Value*> >:Tt(99,2)=s56mDict:/1(16,32),0,416;mKeyOffset:/1(0,3),416,32;__base_ctor::(99,3)=#(99,2),(0,6),(99,4)=*(99,2),(99,5)=&(99,6)=k(99,2),(0,6);:_ZN6MAUtil10DictionaryIKNS_11BasicStringIcEENS_4PairIS3_PNS_7YAJLDom5ValueEEEEC2ERKS9_;2A.;__comp_ctor::(99,3):_ZN6MAUtil10DictionaryIKNS_11BasicStringIcEENS_4PairIS3_PNS_7YAJLDom5ValueEEEEC1ERKS9_;2A.;operator=::(99,7)=#(99,2),(99,8)=&(99,2),(99,4),(99,5),(0,6);:_ZN6MAUtil10DictionaryIKNS_11BasicStringIcEENS_4PairIS3_PNS_7YAJLDom5ValueEEEEaSERKS9_;2A.;__base_dtor::(99,9)=#(99,2),(0,6),(99,4),(0,6);:_ZN6MAUtil10DictionaryIKNS_11BasicStringIcEENS_4PairIS3_PNS_7YAJLDom5ValueEEEED2Ev;2A.;__comp_dtor::(99,9):_ZN6MAUtil10DictionaryIKNS_11BasicStringIcEENS_4PairIS3_PNS_7YAJLDom5ValueEEEED1Ev;2A.;find::(99,10)=#(99,2),(99,11)=xsIterator:,(99,4),(13,38),(0,6);:_ZN6MAUtil10DictionaryIKNS_11BasicStringIcEENS_4PairIS3_PNS_7YAJLDom5ValueEEEE4findERS3_;2A.(99,12)=#(99,2),(99,13)=xsConstIterator:,(99,14)=*(99,6),(13,38),(0,6);:_ZNK6MAUtil10DictionaryIKNS_11BasicStringIcEENS_4PairIS3_PNS_7YAJLDom5ValueEEEE4findERS3_;2B.;erase::(99,15)=#(99,2),(0,4),(99,4),(13,38),(0,6);:_ZN6MAUtil10DictionaryIKNS_11BasicStringIcEENS_4PairIS3_PNS_7YAJLDom5ValueEEEE5eraseERS3_;2A.(99,16)=#(99,2),(0,6),(99,4),(99,11),(0,6);:_ZN6MAUtil10DictionaryIKNS_11BasicStringIcEENS_4PairIS3_PNS_7YAJLDom5ValueEEEE5eraseENS9_8IteratorE;2A.;begin::(99,17)=#(99,2),(99,11),(99,4),(0,6);:_ZN6MAUtil10DictionaryIKNS_11BasicStringIcEENS_4PairIS3_PNS_7YAJLDom5ValueEEEE5beginEv;2A.(99,18)=#(99,2),(99,13),(99,14),(0,6);:_ZNK6MAUtil10DictionaryIKNS_11BasicStringIcEENS_4PairIS3_PNS_7YAJLDom5ValueEEEE5beginEv;2B.;end::(99,17):_ZN6MAUtil10DictionaryIKNS_11BasicStringIcEENS_4PairIS3_PNS_7YAJLDom5ValueEEEE3endEv;2A.(99,18):_ZNK6MAUtil10DictionaryIKNS_11BasicStringIcEENS_4PairIS3_PNS_7YAJLDom5ValueEEEE3endEv;2B.;size::(99,19)=#(99,2),(2,1),(99,14),(0,6);:_ZNK6MAUtil10DictionaryIKNS_11BasicStringIcEENS_4PairIS3_PNS_7YAJLDom5ValueEEEE4sizeEv;2B.;clear::(99,9):_ZN6MAUtil10DictionaryIKNS_11BasicStringIcEENS_4PairIS3_PNS_7YAJLDom5ValueEEEE5clearEv;2A.;init::(99,20)=#(99,2),(0,6),(99,4),(99,21)=*(99,22)=f(0,3),(0,6);:_ZN6MAUtil10DictionaryIKNS_11BasicStringIcEENS_4PairIS3_PNS_7YAJLDom5ValueEEEE4initEPFiRS3_SA_E;1A.;alloc::(16,19):_ZN6MAUtil10DictionaryIKNS_11BasicStringIcEENS_4PairIS3_PNS_7YAJLDom5ValueEEEE5allocEPv;1A?;free::(16,23):_ZN6MAUtil10DictionaryIKNS_11BasicStringIcEENS_4PairIS3_PNS_7YAJLDom5ValueEEEE4freeEP7dnode_tPv;1A?;__base_ctor::(99,23)=#(99,2),(0,6),(99,4),(99,21),(0,3),(0,6);:_ZN6MAUtil10DictionaryIKNS_11BasicStringIcEENS_4PairIS3_PNS_7YAJLDom5ValueEEEEC2EPFiRS3_SA_Ei;1A.;__comp_ctor::(99,23):_ZN6MAUtil10DictionaryIKNS_11BasicStringIcEENS_4PairIS3_PNS_7YAJLDom5ValueEEEEC1EPFiRS3_SA_Ei;1A.;insert::(99,24)=#(99,2),(99,25)=xsPair<MAUtil::Dictionary<const MAUtil::BasicString<char>, MAUtil::Pair<const MAUtil::BasicString<char>, MAUtil::YAJLDom::Value*> >::Iterator,bool>:,(99,4),(99,26)=&(99,27)=k(99,28)=xsPair<const MAUtil::BasicString<char>,MAUtil::YAJLDom::Value*>:,(0,6);:_ZN6MAUtil10DictionaryIKNS_11BasicStringIcEENS_4PairIS3_PNS_7YAJLDom5ValueEEEE6insertERKS8_;1A.;;",128,0,57,0
	.stabs	"Map<MAUtil::BasicString<char>,MAUtil::YAJLDom::Value*>:Tt(99,29)=s56!1,020,(99,2);__base_ctor::(99,30)=#(99,29),(0,6),(99,31)=*(99,29),(99,21),(0,6);:_ZN6MAUtil3MapINS_11BasicStringIcEEPNS_7YAJLDom5ValueEEC2EPFiRKS2_S8_E;2A.;__comp_ctor::(99,30):_ZN6MAUtil3MapINS_11BasicStringIcEEPNS_7YAJLDom5ValueEEC1EPFiRKS2_S8_E;2A.;insert::(99,32)=#(99,29),(99,25),(99,31),(13,38),(99,33)=&(99,34)=k(99,35)=*(99,36)=xsValue:,(0,6);:_ZN6MAUtil3MapINS_11BasicStringIcEEPNS_7YAJLDom5ValueEE6insertERKS2_RKS5_;2A.(99,37)=#(99,29),(99,25),(99,31),(99,38)=&(99,39)=k(99,40)=xsPair<MAUtil::BasicString<char>,MAUtil::YAJLDom::Value*>:,(0,6);:_ZN6MAUtil3MapINS_11BasicStringIcEEPNS_7YAJLDom5ValueEE6insertERKNS_4PairIS2_S5_EE;2A.;operator[]::(99,41)=#(99,29),(99,42)=&(99,35),(99,31),(13,38),(0,6);:_ZN6MAUtil3MapINS_11BasicStringIcEEPNS_7YAJLDom5ValueEEixERKS2_;2A.;operator=::(99,43)=#(99,29),(99,44)=&(99,29),(99,31),(99,45)=&(99,46)=k(99,29),(0,6);:_ZN6MAUtil3MapINS_11BasicStringIcEEPNS_7YAJLDom5ValueEEaSERKS6_;2A.;__base_ctor::(99,47)=#(99,29),(0,6),(99,31),(99,45),(0,6);:_ZN6MAUtil3MapINS_11BasicStringIcEEPNS_7YAJLDom5ValueEEC2ERKS6_;2A.;__comp_ctor::(99,47):_ZN6MAUtil3MapINS_11BasicStringIcEEPNS_7YAJLDom5ValueEEC1ERKS6_;2A.;__base_dtor::(99,48)=#(99,29),(0,6),(99,31),(0,6);:_ZN6MAUtil3MapINS_11BasicStringIcEEPNS_7YAJLDom5ValueEED2Ev;2A.;__comp_dtor::(99,48):_ZN6MAUtil3MapINS_11BasicStringIcEEPNS_7YAJLDom5ValueEED1Ev;2A.;;",128,0,33,0
	.stabs	"Vector<MAUtil::YAJLDom::Value*>:Tt(99,49)=s12mSize:/1(0,3),0,32;mCapacity:/1(0,3),32,32;mData:/1(99,50)=*(99,35),64,32;__base_ctor::(99,51)=#(99,49),(0,6),(99,52)=*(99,49),(0,3),(0,6);:_ZN6MAUtil6VectorIPNS_7YAJLDom5ValueEEC2Ei;2A.;__comp_ctor::(99,51):_ZN6MAUtil6VectorIPNS_7YAJLDom5ValueEEC1Ei;2A.;__base_ctor::(99,53)=#(99,49),(0,6),(99,52),(99,54)=*(99,34),(0,3),(0,6);:_ZN6MAUtil6VectorIPNS_7YAJLDom5ValueEEC2EPKS3_i;2A.;__comp_ctor::(99,53):_ZN6MAUtil6VectorIPNS_7YAJLDom5ValueEEC1EPKS3_i;2A.;__base_ctor::(99,55)=#(99,49),(0,6),(99,52),(99,56)=&(99,57)=k(99,49),(0,6);:_ZN6MAUtil6VectorIPNS_7YAJLDom5ValueEEC2ERKS4_;2A.;__comp_ctor::(99,55):_ZN6MAUtil6VectorIPNS_7YAJLDom5ValueEEC1ERKS4_;2A.;__base_dtor::(99,58)=#(99,49),(0,6),(99,52),(0,6);:_ZN6MAUtil6VectorIPNS_7YAJLDom5ValueEED2Ev;2A.;__comp_dtor::(99,58):_ZN6MAUtil6VectorIPNS_7YAJLDom5ValueEED1Ev;2A.;operator=::(99,59)=#(99,49),(99,60)=&(99,49),(99,52),(99,56),(0,6);:_ZN6MAUtil6VectorIPNS_7YAJLDom5ValueEEaSERKS4_;2A.;add::(99,61)=#(99,49),(0,6),(99,52),(99,33),(0,6);:_ZN6MAUtil6VectorIPNS_7YAJLDom5ValueEE3addERKS3_;2A.(99,53):_ZN6MAUtil6VectorIPNS_7YAJLDom5ValueEE3addEPKS3_i;2A.;remove::(99,62)=#(99,49),(0,6),(99,52),(99,50),(0,6);:_ZN6MAUtil6VectorIPNS_7YAJLDom5ValueEE6removeEPS3_;2A.(99,63)=#(99,49),(0,6),(99,52),(0,3),(0,6);:_ZN6MAUtil6VectorIPNS_7YAJLDom5ValueEE6removeEi;2A.(99,64)=#(99,49),(0,6),(99,52),(0,3),(0,3),(0,6);:_ZN6MAUtil6VectorIPNS_7YAJLDom5ValueEE6removeEii;2A.;insert::(99,65)=#(99,49),(0,6),(99,52),(0,3),(99,35),(0,6);:_ZN6MAUtil6VectorIPNS_7YAJLDom5ValueEE6insertEiS3_;2A.;size::(99,66)=#(99,49),(0,3),(99,67)=*(99,57),(0,6);:_ZNK6MAUtil6VectorIPNS_7YAJLDom5ValueEE4sizeEv;2B.;resize::(99,63):_ZN6MAUtil6VectorIPNS_7YAJLDom5ValueEE6resizeEi;2A.;reserve::(99,63):_ZN6MAUtil6VectorIPNS_7YAJLDom5ValueEE7reserveEi;2A.;clear::(99,58):_ZN6MAUtil6VectorIPNS_7YAJLDom5ValueEE5clearEv;2A.;empty::(99,68)=#(99,49),(0,4),(99,67),(0,6);:_ZNK6MAUtil6VectorIPNS_7YAJLDom5ValueEE5emptyEv;2B.;capacity::(99,66):_ZNK6MAUtil6VectorIPNS_7YAJLDom5ValueEE8capacityEv;2B.;begin::(99,69)=#(99,49),(99,50),(99,52),(0,6);:_ZN6MAUtil6VectorIPNS_7YAJLDom5ValueEE5beginEv;2A.;end::(99,69):_ZN6MAUtil6VectorIPNS_7YAJLDom5ValueEE3endEv;2A.;begin::(99,70)=#(99,49),(99,54),(99,67),(0,6);:_ZNK6MAUtil6VectorIPNS_7YAJLDom5ValueEE5beginEv;2B.;end::(99,70):_ZNK6MAUtil6VectorIPNS_7YAJLDom5ValueEE3endEv;2B.;operator[]::(99,71)=#(99,49),(99,42),(99,52),(0,3),(0,6);:_ZN6MAUtil6VectorIPNS_7YAJLDom5ValueEEixEi;2A.(99,72)=#(99,49),(99,33),(99,67),(0,3),(0,6);:_ZNK6MAUtil6VectorIPNS_7YAJLDom5ValueEEixEi;2B.;pointer::(99,70):_ZNK6MAUtil6VectorIPNS_7YAJLDom5ValueEE7pointerEv;2B.(99,69):_ZN6MAUtil6VectorIPNS_7YAJLDom5ValueEE7pointerEv;2A.;;",128,0,95,0
	.stabn	162,0,0,0
	.stabn	162,0,0,0
	.stabs	"c:/MoSync/include/mastdlib.h",130,0,0,0
	.stabs	"div_t:Tt(100,1)=s8quot:(0,3),0,32;rem:(0,3),32,32;operator=::(100,2)=#(100,1),(100,3)=&(100,1),(100,4)=*(100,1),(100,5)=&(100,6)=k(100,1),(0,6);:_ZN5div_taSERKS_;2A.;__base_ctor::(100,7)=#(100,1),(0,6),(100,4),(100,5),(0,6);:_ZN5div_tC2ERKS_;2A.;__comp_ctor::(100,7):_ZN5div_tC1ERKS_;2A.;__base_ctor::(100,8)=#(100,1),(0,6),(100,4),(0,6);:_ZN5div_tC2Ev;2A.;__comp_ctor::(100,8):_ZN5div_tC1Ev;2A.;;",128,0,58,0
	.stabs	"div_t:t(100,9)=(100,1)",128,0,60,0
	.stabn	162,0,0,0
	.stabn	162,0,0,0
	.stabs	"c:/MoSync/include/MTXml/MTXml.h",130,0,0,0
	.stabs	"MTXContext:t(101,1)=(101,2)=xsMTXContext:",128,0,82,0
	.stabs	"MTXContext:Tt(101,2)=s52encoding:(101,3)=*(101,4)=f(0,6),0,32;tagStart:(101,5)=*(101,6)=f(0,6),32,32;tagAttr:(101,7)=*(101,8)=f(0,6),64,32;tagStartEnd:(101,9)=*(101,10)=f(0,6),96,32;tagData:(101,5),128,32;tagEnd:(101,5),160,32;emptyTagEnd:(101,9),192,32;dataRemains:(101,11)=*(101,12)=f(0,6),224,32;parseError:(101,13)=*(101,14)=f(0,6),256,32;unicodeCharacter:(101,15)=*(101,16)=f(0,10),288,32;userData:(3,9),320,32;iState:(0,3),352,32;iUtf8:(0,3),384,32;operator=::(101,17)=#(101,2),(101,18)=&(101,2),(101,19)=*(101,2),(101,20)=&(101,21)=k(101,2),(0,6);:_ZN10MTXContextaSERKS_;2A.;__base_ctor::(101,22)=#(101,2),(0,6),(101,19),(101,20),(0,6);:_ZN10MTXContextC2ERKS_;2A.;__comp_ctor::(101,22):_ZN10MTXContextC1ERKS_;2A.;__base_ctor::(101,23)=#(101,2),(0,6),(101,19),(0,6);:_ZN10MTXContextC2Ev;2A.;__comp_ctor::(101,23):_ZN10MTXContextC1Ev;2A.;;",128,0,101,0
	.stabs	"ContextBase:Tt(101,24)=s56mContext:/1(101,1),0,416;mMtx:/1(101,25)=*(101,26)=xsMtxListener:,416,32;stop::(101,27)=#(101,24),(0,6),(101,28)=*(101,24),(0,6);:_ZN3Mtx11ContextBase4stopEv;2A.;initBase::(101,27):_ZN3Mtx11ContextBase8initBaseEv;1A.;operator=::(101,29)=#(101,24),(101,30)=&(101,24),(101,28),(101,31)=&(101,32)=k(101,24),(0,6);:_ZN3Mtx11ContextBaseaSERKS0_;2A.;__base_ctor::(101,33)=#(101,24),(0,6),(101,28),(101,31),(0,6);:_ZN3Mtx11ContextBaseC2ERKS0_;2A.;__comp_ctor::(101,33):_ZN3Mtx11ContextBaseC1ERKS0_;2A.;__base_ctor::(101,34)=#(101,24),(0,6),(101,28),(0,6);:_ZN3Mtx11ContextBaseC2Ev;2A.;__comp_ctor::(101,34):_ZN3Mtx11ContextBaseC1Ev;2A.;;",128,0,365,0
	.stabs	"ContextW:Tt(101,35)=s60!1,020,(101,24);mXml:/0(101,36)=*(101,37)=xsXmlListenerW:,448,32;init::(101,38)=#(101,35),(0,6),(101,39)=*(101,35),(101,25),(101,36),(0,6);:_ZN3Mtx8ContextW4initEPNS_11MtxListenerEPNS_12XmlListenerWE;2A.;feed::(101,40)=#(101,35),(0,4),(101,39),(3,5),(101,41)=*(0,5),(0,6);:_ZN3Mtx8ContextW4feedEPcPw;2A.;operator=::(101,42)=#(101,35),(101,43)=&(101,35),(101,39),(101,44)=&(101,45)=k(101,35),(0,6);:_ZN3Mtx8ContextWaSERKS0_;2A.;__base_ctor::(101,46)=#(101,35),(0,6),(101,39),(101,44),(0,6);:_ZN3Mtx8ContextWC2ERKS0_;2A.;__comp_ctor::(101,46):_ZN3Mtx8ContextWC1ERKS0_;2A.;__base_ctor::(101,47)=#(101,35),(0,6),(101,39),(0,6);:_ZN3Mtx8ContextWC2Ev;2A.;__comp_ctor::(101,47):_ZN3Mtx8ContextWC1Ev;2A.;;",128,0,380,0
	.stabs	"Context:Tt(101,48)=s60!1,020,(101,24);mXml:/0(101,49)=*(101,50)=xsXmlListener:,448,32;init::(101,51)=#(101,48),(0,6),(101,52)=*(101,48),(101,25),(101,49),(0,6);:_ZN3Mtx7Context4initEPNS_11MtxListenerEPNS_11XmlListenerE;2A.;feed::(101,53)=#(101,48),(0,4),(101,52),(3,5),(0,6);:_ZN3Mtx7Context4feedEPc;2A.;feedProcess::(101,53):_ZN3Mtx7Context11feedProcessEPc;2A.;process::(101,54)=#(101,48),(0,3),(101,52),(3,5),(0,6);:_ZN3Mtx7Context7processEPc;2A.;operator=::(101,55)=#(101,48),(101,56)=&(101,48),(101,52),(101,57)=&(101,58)=k(101,48),(0,6);:_ZN3Mtx7ContextaSERKS0_;2A.;__base_ctor::(101,59)=#(101,48),(0,6),(101,52),(101,57),(0,6);:_ZN3Mtx7ContextC2ERKS0_;2A.;__comp_ctor::(101,59):_ZN3Mtx7ContextC1ERKS0_;2A.;__base_ctor::(101,60)=#(101,48),(0,6),(101,52),(0,6);:_ZN3Mtx7ContextC2Ev;2A.;__comp_ctor::(101,60):_ZN3Mtx7ContextC1Ev;2A.;;",128,0,397,0
	.stabn	162,0,0,0
	.stabs	"TrackingTab::eTrakingTab:t(1,1)=eTRACKING_LIST:0,;",128,0,46,0
	.stabs	"Dictionary<const int,MAUtil::Pair<const int, MAUtil::BasicString<char> > >:Tt(1,2)=s56mDict:/1(16,32),0,416;mKeyOffset:/1(0,3),416,32;__base_ctor::(1,3)=#(1,2),(0,6),(1,4)=*(1,2),(1,5)=&(1,6)=k(1,2),(0,6);:_ZN6MAUtil10DictionaryIKiNS_4PairIS1_NS_11BasicStringIcEEEEEC2ERKS6_;2A.;__comp_ctor::(1,3):_ZN6MAUtil10DictionaryIKiNS_4PairIS1_NS_11BasicStringIcEEEEEC1ERKS6_;2A.;operator=::(1,7)=#(1,2),(1,8)=&(1,2),(1,4),(1,5),(0,6);:_ZN6MAUtil10DictionaryIKiNS_4PairIS1_NS_11BasicStringIcEEEEEaSERKS6_;2A.;__base_dtor::(1,9)=#(1,2),(0,6),(1,4),(0,6);:_ZN6MAUtil10DictionaryIKiNS_4PairIS1_NS_11BasicStringIcEEEEED2Ev;2A.;__comp_dtor::(1,9):_ZN6MAUtil10DictionaryIKiNS_4PairIS1_NS_11BasicStringIcEEEEED1Ev;2A.;find::(1,10)=#(1,2),(1,11)=xsIterator:,(1,4),(1,12)=&(1,13)=k(0,3),(0,6);:_ZN6MAUtil10DictionaryIKiNS_4PairIS1_NS_11BasicStringIcEEEEE4findERS1_;2A.(1,14)=#(1,2),(1,15)=xsConstIterator:,(1,16)=*(1,6),(1,12),(0,6);:_ZNK6MAUtil10DictionaryIKiNS_4PairIS1_NS_11BasicStringIcEEEEE4findERS1_;2B.;erase::(1,17)=#(1,2),(0,4),(1,4),(1,12),(0,6);:_ZN6MAUtil10DictionaryIKiNS_4PairIS1_NS_11BasicStringIcEEEEE5eraseERS1_;2A.(1,18)=#(1,2),(0,6),(1,4),(1,11),(0,6);:_ZN6MAUtil10DictionaryIKiNS_4PairIS1_NS_11BasicStringIcEEEEE5eraseENS6_8IteratorE;2A.;begin::(1,19)=#(1,2),(1,11),(1,4),(0,6);:_ZN6MAUtil10DictionaryIKiNS_4PairIS1_NS_11BasicStringIcEEEEE5beginEv;2A.(1,20)=#(1,2),(1,15),(1,16),(0,6);:_ZNK6MAUtil10DictionaryIKiNS_4PairIS1_NS_11BasicStringIcEEEEE5beginEv;2B.;end::(1,19):_ZN6MAUtil10DictionaryIKiNS_4PairIS1_NS_11BasicStringIcEEEEE3endEv;2A.(1,20):_ZNK6MAUtil10DictionaryIKiNS_4PairIS1_NS_11BasicStringIcEEEEE3endEv;2B.;size::(1,21)=#(1,2),(2,1),(1,16),(0,6);:_ZNK6MAUtil10DictionaryIKiNS_4PairIS1_NS_11BasicStringIcEEEEE4sizeEv;2B.;clear::(1,9):_ZN6MAUtil10DictionaryIKiNS_4PairIS1_NS_11BasicStringIcEEEEE5clearEv;2A.;init::(1,22)=#(1,2),(0,6),(1,4),(1,23)=*(1,24)=f(0,3),(0,6);:_ZN6MAUtil10DictionaryIKiNS_4PairIS1_NS_11BasicStringIcEEEEE4initEPFiRS1_S7_E;1A.;alloc::(16,19):_ZN6MAUtil10DictionaryIKiNS_4PairIS1_NS_11BasicStringIcEEEEE5allocEPv;1A?;free::(16,23):_ZN6MAUtil10DictionaryIKiNS_4PairIS1_NS_11BasicStringIcEEEEE4freeEP7dnode_tPv;1A?;__base_ctor::(1,25)=#(1,2),(0,6),(1,4),(1,23),(0,3),(0,6);:_ZN6MAUtil10DictionaryIKiNS_4PairIS1_NS_11BasicStringIcEEEEEC2EPFiRS1_S7_Ei;1A.;__comp_ctor::(1,25):_ZN6MAUtil10DictionaryIKiNS_4PairIS1_NS_11BasicStringIcEEEEEC1EPFiRS1_S7_Ei;1A.;insert::(1,26)=#(1,2),(1,27)=xsPair<MAUtil::Dictionary<const int, MAUtil::Pair<const int, MAUtil::BasicString<char> > >::Iterator,bool>:,(1,4),(1,28)=&(1,29)=k(1,30)=xsPair<const int,MAUtil::BasicString<char> >:,(0,6);:_ZN6MAUtil10DictionaryIKiNS_4PairIS1_NS_11BasicStringIcEEEEE6insertERKS5_;1A.;;",128,0,57,0
	.stabs	"Map<int,MAUtil::BasicString<char> >:Tt(1,31)=s56!1,020,(1,2);__base_ctor::(1,32)=#(1,31),(0,6),(1,33)=*(1,31),(1,23),(0,6);:_ZN6MAUtil3MapIiNS_11BasicStringIcEEEC2EPFiRKiS5_E;2A.;__comp_ctor::(1,32):_ZN6MAUtil3MapIiNS_11BasicStringIcEEEC1EPFiRKiS5_E;2A.;insert::(1,34)=#(1,31),(1,27),(1,33),(1,12),(13,38),(0,6);:_ZN6MAUtil3MapIiNS_11BasicStringIcEEE6insertERKiRKS2_;2A.(1,35)=#(1,31),(1,27),(1,33),(1,36)=&(1,37)=k(1,38)=xsPair<int,MAUtil::BasicString<char> >:,(0,6);:_ZN6MAUtil3MapIiNS_11BasicStringIcEEE6insertERKNS_4PairIiS2_EE;2A.;operator[]::(1,39)=#(1,31),(1,40)=&(5,1),(1,33),(1,12),(0,6);:_ZN6MAUtil3MapIiNS_11BasicStringIcEEEixERKi;2A.;operator=::(1,41)=#(1,31),(1,42)=&(1,31),(1,33),(1,43)=&(1,44)=k(1,31),(0,6);:_ZN6MAUtil3MapIiNS_11BasicStringIcEEEaSERKS3_;2A.;__base_ctor::(1,45)=#(1,31),(0,6),(1,33),(1,43),(0,6);:_ZN6MAUtil3MapIiNS_11BasicStringIcEEEC2ERKS3_;2A.;__comp_ctor::(1,45):_ZN6MAUtil3MapIiNS_11BasicStringIcEEEC1ERKS3_;2A.;__base_dtor::(1,46)=#(1,31),(0,6),(1,33),(0,6);:_ZN6MAUtil3MapIiNS_11BasicStringIcEEED2Ev;2A.;__comp_dtor::(1,46):_ZN6MAUtil3MapIiNS_11BasicStringIcEEED1Ev;2A.;;",128,0,33,0
	.stabs	"Dictionary<const int,MAUtil::Pair<const int, NativeUI::HorizontalLayout*> >:Tt(1,47)=s56mDict:/1(16,32),0,416;mKeyOffset:/1(0,3),416,32;__base_ctor::(1,48)=#(1,47),(0,6),(1,49)=*(1,47),(1,50)=&(1,51)=k(1,47),(0,6);:_ZN6MAUtil10DictionaryIKiNS_4PairIS1_PN8NativeUI16HorizontalLayoutEEEEC2ERKS7_;2A.;__comp_ctor::(1,48):_ZN6MAUtil10DictionaryIKiNS_4PairIS1_PN8NativeUI16HorizontalLayoutEEEEC1ERKS7_;2A.;operator=::(1,52)=#(1,47),(1,53)=&(1,47),(1,49),(1,50),(0,6);:_ZN6MAUtil10DictionaryIKiNS_4PairIS1_PN8NativeUI16HorizontalLayoutEEEEaSERKS7_;2A.;__base_dtor::(1,54)=#(1,47),(0,6),(1,49),(0,6);:_ZN6MAUtil10DictionaryIKiNS_4PairIS1_PN8NativeUI16HorizontalLayoutEEEED2Ev;2A.;__comp_dtor::(1,54):_ZN6MAUtil10DictionaryIKiNS_4PairIS1_PN8NativeUI16HorizontalLayoutEEEED1Ev;2A.;find::(1,55)=#(1,47),(1,56)=xsIterator:,(1,49),(1,12),(0,6);:_ZN6MAUtil10DictionaryIKiNS_4PairIS1_PN8NativeUI16HorizontalLayoutEEEE4findERS1_;2A.(1,57)=#(1,47),(1,58)=xsConstIterator:,(1,59)=*(1,51),(1,12),(0,6);:_ZNK6MAUtil10DictionaryIKiNS_4PairIS1_PN8NativeUI16HorizontalLayoutEEEE4findERS1_;2B.;erase::(1,60)=#(1,47),(0,4),(1,49),(1,12),(0,6);:_ZN6MAUtil10DictionaryIKiNS_4PairIS1_PN8NativeUI16HorizontalLayoutEEEE5eraseERS1_;2A.(1,61)=#(1,47),(0,6),(1,49),(1,56),(0,6);:_ZN6MAUtil10DictionaryIKiNS_4PairIS1_PN8NativeUI16HorizontalLayoutEEEE5eraseENS7_8IteratorE;2A.;begin::(1,62)=#(1,47),(1,56),(1,49),(0,6);:_ZN6MAUtil10DictionaryIKiNS_4PairIS1_PN8NativeUI16HorizontalLayoutEEEE5beginEv;2A.(1,63)=#(1,47),(1,58),(1,59),(0,6);:_ZNK6MAUtil10DictionaryIKiNS_4PairIS1_PN8NativeUI16HorizontalLayoutEEEE5beginEv;2B.;end::(1,62):_ZN6MAUtil10DictionaryIKiNS_4PairIS1_PN8NativeUI16HorizontalLayoutEEEE3endEv;2A.(1,63):_ZNK6MAUtil10DictionaryIKiNS_4PairIS1_PN8NativeUI16HorizontalLayoutEEEE3endEv;2B.;size::(1,64)=#(1,47),(2,1),(1,59),(0,6);:_ZNK6MAUtil10DictionaryIKiNS_4PairIS1_PN8NativeUI16HorizontalLayoutEEEE4sizeEv;2B.;clear::(1,54):_ZN6MAUtil10DictionaryIKiNS_4PairIS1_PN8NativeUI16HorizontalLayoutEEEE5clearEv;2A.;init::(1,65)=#(1,47),(0,6),(1,49),(1,23),(0,6);:_ZN6MAUtil10DictionaryIKiNS_4PairIS1_PN8NativeUI16HorizontalLayoutEEEE4initEPFiRS1_S8_E;1A.;alloc::(16,19):_ZN6MAUtil10DictionaryIKiNS_4PairIS1_PN8NativeUI16HorizontalLayoutEEEE5allocEPv;1A?;free::(16,23):_ZN6MAUtil10DictionaryIKiNS_4PairIS1_PN8NativeUI16HorizontalLayoutEEEE4freeEP7dnode_tPv;1A?;__base_ctor::(1,66)=#(1,47),(0,6),(1,49),(1,23),(0,3),(0,6);:_ZN6MAUtil10DictionaryIKiNS_4PairIS1_PN8NativeUI16HorizontalLayoutEEEEC2EPFiRS1_S8_Ei;1A.;__comp_ctor::(1,66):_ZN6MAUtil10DictionaryIKiNS_4PairIS1_PN8NativeUI16HorizontalLayoutEEEEC1EPFiRS1_S8_Ei;1A.;insert::(1,67)=#(1,47),(1,68)=xsPair<MAUtil::Dictionary<const int, MAUtil::Pair<const int, NativeUI::HorizontalLayout*> >::Iterator,bool>:,(1,49),(1,69)=&(1,70)=k(1,71)=xsPair<const int,NativeUI::HorizontalLayout*>:,(0,6);:_ZN6MAUtil10DictionaryIKiNS_4PairIS1_PN8NativeUI16HorizontalLayoutEEEE6insertERKS6_;1A.;;",128,0,57,0
	.stabs	"Map<int,NativeUI::HorizontalLayout*>:Tt(1,72)=s56!1,020,(1,47);__base_ctor::(1,73)=#(1,72),(0,6),(1,74)=*(1,72),(1,23),(0,6);:_ZN6MAUtil3MapIiPN8NativeUI16HorizontalLayoutEEC2EPFiRKiS6_E;2A.;__comp_ctor::(1,73):_ZN6MAUtil3MapIiPN8NativeUI16HorizontalLayoutEEC1EPFiRKiS6_E;2A.;insert::(1,75)=#(1,72),(1,68),(1,74),(1,12),(1,76)=&(1,77)=k(1,78)=*(1,79)=xsHorizontalLayout:,(0,6);:_ZN6MAUtil3MapIiPN8NativeUI16HorizontalLayoutEE6insertERKiRKS3_;2A.(1,80)=#(1,72),(1,68),(1,74),(1,81)=&(1,82)=k(1,83)=xsPair<int,NativeUI::HorizontalLayout*>:,(0,6);:_ZN6MAUtil3MapIiPN8NativeUI16HorizontalLayoutEE6insertERKNS_4PairIiS3_EE;2A.;operator[]::(1,84)=#(1,72),(1,85)=&(1,78),(1,74),(1,12),(0,6);:_ZN6MAUtil3MapIiPN8NativeUI16HorizontalLayoutEEixERKi;2A.;operator=::(1,86)=#(1,72),(1,87)=&(1,72),(1,74),(1,88)=&(1,89)=k(1,72),(0,6);:_ZN6MAUtil3MapIiPN8NativeUI16HorizontalLayoutEEaSERKS4_;2A.;__base_ctor::(1,90)=#(1,72),(0,6),(1,74),(1,88),(0,6);:_ZN6MAUtil3MapIiPN8NativeUI16HorizontalLayoutEEC2ERKS4_;2A.;__comp_ctor::(1,90):_ZN6MAUtil3MapIiPN8NativeUI16HorizontalLayoutEEC1ERKS4_;2A.;__base_dtor::(1,91)=#(1,72),(0,6),(1,74),(0,6);:_ZN6MAUtil3MapIiPN8NativeUI16HorizontalLayoutEED2Ev;2A.;__comp_dtor::(1,91):_ZN6MAUtil3MapIiPN8NativeUI16HorizontalLayoutEED1Ev;2A.;;",128,0,33,0
	.stabs	"Dictionary<const int,MAUtil::Pair<const int, NativeUI::ListViewItem*> >:Tt(1,92)=s56mDict:/1(16,32),0,416;mKeyOffset:/1(0,3),416,32;__base_ctor::(1,93)=#(1,92),(0,6),(1,94)=*(1,92),(1,95)=&(1,96)=k(1,92),(0,6);:_ZN6MAUtil10DictionaryIKiNS_4PairIS1_PN8NativeUI12ListViewItemEEEEC2ERKS7_;2A.;__comp_ctor::(1,93):_ZN6MAUtil10DictionaryIKiNS_4PairIS1_PN8NativeUI12ListViewItemEEEEC1ERKS7_;2A.;operator=::(1,97)=#(1,92),(1,98)=&(1,92),(1,94),(1,95),(0,6);:_ZN6MAUtil10DictionaryIKiNS_4PairIS1_PN8NativeUI12ListViewItemEEEEaSERKS7_;2A.;__base_dtor::(1,99)=#(1,92),(0,6),(1,94),(0,6);:_ZN6MAUtil10DictionaryIKiNS_4PairIS1_PN8NativeUI12ListViewItemEEEED2Ev;2A.;__comp_dtor::(1,99):_ZN6MAUtil10DictionaryIKiNS_4PairIS1_PN8NativeUI12ListViewItemEEEED1Ev;2A.;find::(1,100)=#(1,92),(1,101)=xsIterator:,(1,94),(1,12),(0,6);:_ZN6MAUtil10DictionaryIKiNS_4PairIS1_PN8NativeUI12ListViewItemEEEE4findERS1_;2A.(1,102)=#(1,92),(1,103)=xsConstIterator:,(1,104)=*(1,96),(1,12),(0,6);:_ZNK6MAUtil10DictionaryIKiNS_4PairIS1_PN8NativeUI12ListViewItemEEEE4findERS1_;2B.;erase::(1,105)=#(1,92),(0,4),(1,94),(1,12),(0,6);:_ZN6MAUtil10DictionaryIKiNS_4PairIS1_PN8NativeUI12ListViewItemEEEE5eraseERS1_;2A.(1,106)=#(1,92),(0,6),(1,94),(1,101),(0,6);:_ZN6MAUtil10DictionaryIKiNS_4PairIS1_PN8NativeUI12ListViewItemEEEE5eraseENS7_8IteratorE;2A.;begin::(1,107)=#(1,92),(1,101),(1,94),(0,6);:_ZN6MAUtil10DictionaryIKiNS_4PairIS1_PN8NativeUI12ListViewItemEEEE5beginEv;2A.(1,108)=#(1,92),(1,103),(1,104),(0,6);:_ZNK6MAUtil10DictionaryIKiNS_4PairIS1_PN8NativeUI12ListViewItemEEEE5beginEv;2B.;end::(1,107):_ZN6MAUtil10DictionaryIKiNS_4PairIS1_PN8NativeUI12ListViewItemEEEE3endEv;2A.(1,108):_ZNK6MAUtil10DictionaryIKiNS_4PairIS1_PN8NativeUI12ListViewItemEEEE3endEv;2B.;size::(1,109)=#(1,92),(2,1),(1,104),(0,6);:_ZNK6MAUtil10DictionaryIKiNS_4PairIS1_PN8NativeUI12ListViewItemEEEE4sizeEv;2B.;clear::(1,99):_ZN6MAUtil10DictionaryIKiNS_4PairIS1_PN8NativeUI12ListViewItemEEEE5clearEv;2A.;init::(1,110)=#(1,92),(0,6),(1,94),(1,23),(0,6);:_ZN6MAUtil10DictionaryIKiNS_4PairIS1_PN8NativeUI12ListViewItemEEEE4initEPFiRS1_S8_E;1A.;alloc::(16,19):_ZN6MAUtil10DictionaryIKiNS_4PairIS1_PN8NativeUI12ListViewItemEEEE5allocEPv;1A?;free::(16,23):_ZN6MAUtil10DictionaryIKiNS_4PairIS1_PN8NativeUI12ListViewItemEEEE4freeEP7dnode_tPv;1A?;__base_ctor::(1,111)=#(1,92),(0,6),(1,94),(1,23),(0,3),(0,6);:_ZN6MAUtil10DictionaryIKiNS_4PairIS1_PN8NativeUI12ListViewItemEEEEC2EPFiRS1_S8_Ei;1A.;__comp_ctor::(1,111):_ZN6MAUtil10DictionaryIKiNS_4PairIS1_PN8NativeUI12ListViewItemEEEEC1EPFiRS1_S8_Ei;1A.;insert::(1,112)=#(1,92),(1,113)=xsPair<MAUtil::Dictionary<const int, MAUtil::Pair<const int, NativeUI::ListViewItem*> >::Iterator,bool>:,(1,94),(1,114)=&(1,115)=k(1,116)=xsPair<const int,NativeUI::ListViewItem*>:,(0,6);:_ZN6MAUtil10DictionaryIKiNS_4PairIS1_PN8NativeUI12ListViewItemEEEE6insertERKS6_;1A.;;",128,0,57,0
	.stabs	"Map<int,NativeUI::ListViewItem*>:Tt(1,117)=s56!1,020,(1,92);__base_ctor::(1,118)=#(1,117),(0,6),(1,119)=*(1,117),(1,23),(0,6);:_ZN6MAUtil3MapIiPN8NativeUI12ListViewItemEEC2EPFiRKiS6_E;2A.;__comp_ctor::(1,118):_ZN6MAUtil3MapIiPN8NativeUI12ListViewItemEEC1EPFiRKiS6_E;2A.;insert::(1,120)=#(1,117),(1,113),(1,119),(1,12),(1,121)=&(1,122)=k(1,123)=*(1,124)=xsListViewItem:,(0,6);:_ZN6MAUtil3MapIiPN8NativeUI12ListViewItemEE6insertERKiRKS3_;2A.(1,125)=#(1,117),(1,113),(1,119),(1,126)=&(1,127)=k(1,128)=xsPair<int,NativeUI::ListViewItem*>:,(0,6);:_ZN6MAUtil3MapIiPN8NativeUI12ListViewItemEE6insertERKNS_4PairIiS3_EE;2A.;operator[]::(1,129)=#(1,117),(1,130)=&(1,123),(1,119),(1,12),(0,6);:_ZN6MAUtil3MapIiPN8NativeUI12ListViewItemEEixERKi;2A.;operator=::(1,131)=#(1,117),(1,132)=&(1,117),(1,119),(1,133)=&(1,134)=k(1,117),(0,6);:_ZN6MAUtil3MapIiPN8NativeUI12ListViewItemEEaSERKS4_;2A.;__base_ctor::(1,135)=#(1,117),(0,6),(1,119),(1,133),(0,6);:_ZN6MAUtil3MapIiPN8NativeUI12ListViewItemEEC2ERKS4_;2A.;__comp_ctor::(1,135):_ZN6MAUtil3MapIiPN8NativeUI12ListViewItemEEC1ERKS4_;2A.;__base_dtor::(1,136)=#(1,117),(0,6),(1,119),(0,6);:_ZN6MAUtil3MapIiPN8NativeUI12ListViewItemEED2Ev;2A.;__comp_dtor::(1,136):_ZN6MAUtil3MapIiPN8NativeUI12ListViewItemEED1Ev;2A.;;",128,0,33,0
	.stabs	"Dictionary<const int,MAUtil::Pair<const int, NativeUI::Label*> >:Tt(1,137)=s56mDict:/1(16,32),0,416;mKeyOffset:/1(0,3),416,32;__base_ctor::(1,138)=#(1,137),(0,6),(1,139)=*(1,137),(1,140)=&(1,141)=k(1,137),(0,6);:_ZN6MAUtil10DictionaryIKiNS_4PairIS1_PN8NativeUI5LabelEEEEC2ERKS7_;2A.;__comp_ctor::(1,138):_ZN6MAUtil10DictionaryIKiNS_4PairIS1_PN8NativeUI5LabelEEEEC1ERKS7_;2A.;operator=::(1,142)=#(1,137),(1,143)=&(1,137),(1,139),(1,140),(0,6);:_ZN6MAUtil10DictionaryIKiNS_4PairIS1_PN8NativeUI5LabelEEEEaSERKS7_;2A.;__base_dtor::(1,144)=#(1,137),(0,6),(1,139),(0,6);:_ZN6MAUtil10DictionaryIKiNS_4PairIS1_PN8NativeUI5LabelEEEED2Ev;2A.;__comp_dtor::(1,144):_ZN6MAUtil10DictionaryIKiNS_4PairIS1_PN8NativeUI5LabelEEEED1Ev;2A.;find::(1,145)=#(1,137),(1,146)=xsIterator:,(1,139),(1,12),(0,6);:_ZN6MAUtil10DictionaryIKiNS_4PairIS1_PN8NativeUI5LabelEEEE4findERS1_;2A.(1,147)=#(1,137),(1,148)=xsConstIterator:,(1,149)=*(1,141),(1,12),(0,6);:_ZNK6MAUtil10DictionaryIKiNS_4PairIS1_PN8NativeUI5LabelEEEE4findERS1_;2B.;erase::(1,150)=#(1,137),(0,4),(1,139),(1,12),(0,6);:_ZN6MAUtil10DictionaryIKiNS_4PairIS1_PN8NativeUI5LabelEEEE5eraseERS1_;2A.(1,151)=#(1,137),(0,6),(1,139),(1,146),(0,6);:_ZN6MAUtil10DictionaryIKiNS_4PairIS1_PN8NativeUI5LabelEEEE5eraseENS7_8IteratorE;2A.;begin::(1,152)=#(1,137),(1,146),(1,139),(0,6);:_ZN6MAUtil10DictionaryIKiNS_4PairIS1_PN8NativeUI5LabelEEEE5beginEv;2A.(1,153)=#(1,137),(1,148),(1,149),(0,6);:_ZNK6MAUtil10DictionaryIKiNS_4PairIS1_PN8NativeUI5LabelEEEE5beginEv;2B.;end::(1,152):_ZN6MAUtil10DictionaryIKiNS_4PairIS1_PN8NativeUI5LabelEEEE3endEv;2A.(1,153):_ZNK6MAUtil10DictionaryIKiNS_4PairIS1_PN8NativeUI5LabelEEEE3endEv;2B.;size::(1,154)=#(1,137),(2,1),(1,149),(0,6);:_ZNK6MAUtil10DictionaryIKiNS_4PairIS1_PN8NativeUI5LabelEEEE4sizeEv;2B.;clear::(1,144):_ZN6MAUtil10DictionaryIKiNS_4PairIS1_PN8NativeUI5LabelEEEE5clearEv;2A.;init::(1,155)=#(1,137),(0,6),(1,139),(1,23),(0,6);:_ZN6MAUtil10DictionaryIKiNS_4PairIS1_PN8NativeUI5LabelEEEE4initEPFiRS1_S8_E;1A.;alloc::(16,19):_ZN6MAUtil10DictionaryIKiNS_4PairIS1_PN8NativeUI5LabelEEEE5allocEPv;1A?;free::(16,23):_ZN6MAUtil10DictionaryIKiNS_4PairIS1_PN8NativeUI5LabelEEEE4freeEP7dnode_tPv;1A?;__base_ctor::(1,156)=#(1,137),(0,6),(1,139),(1,23),(0,3),(0,6);:_ZN6MAUtil10DictionaryIKiNS_4PairIS1_PN8NativeUI5LabelEEEEC2EPFiRS1_S8_Ei;1A.;__comp_ctor::(1,156):_ZN6MAUtil10DictionaryIKiNS_4PairIS1_PN8NativeUI5LabelEEEEC1EPFiRS1_S8_Ei;1A.;insert::(1,157)=#(1,137),(1,158)=xsPair<MAUtil::Dictionary<const int, MAUtil::Pair<const int, NativeUI::Label*> >::Iterator,bool>:,(1,139),(1,159)=&(1,160)=k(1,161)=xsPair<const int,NativeUI::Label*>:,(0,6);:_ZN6MAUtil10DictionaryIKiNS_4PairIS1_PN8NativeUI5LabelEEEE6insertERKS6_;1A.;;",128,0,57,0
	.stabs	"Map<int,NativeUI::Label*>:Tt(1,162)=s56!1,020,(1,137);__base_ctor::(1,163)=#(1,162),(0,6),(1,164)=*(1,162),(1,23),(0,6);:_ZN6MAUtil3MapIiPN8NativeUI5LabelEEC2EPFiRKiS6_E;2A.;__comp_ctor::(1,163):_ZN6MAUtil3MapIiPN8NativeUI5LabelEEC1EPFiRKiS6_E;2A.;insert::(1,165)=#(1,162),(1,158),(1,164),(1,12),(1,166)=&(1,167)=k(1,168)=*(1,169)=xsLabel:,(0,6);:_ZN6MAUtil3MapIiPN8NativeUI5LabelEE6insertERKiRKS3_;2A.(1,170)=#(1,162),(1,158),(1,164),(1,171)=&(1,172)=k(1,173)=xsPair<int,NativeUI::Label*>:,(0,6);:_ZN6MAUtil3MapIiPN8NativeUI5LabelEE6insertERKNS_4PairIiS3_EE;2A.;operator[]::(1,174)=#(1,162),(1,175)=&(1,168),(1,164),(1,12),(0,6);:_ZN6MAUtil3MapIiPN8NativeUI5LabelEEixERKi;2A.;operator=::(1,176)=#(1,162),(1,177)=&(1,162),(1,164),(1,178)=&(1,179)=k(1,162),(0,6);:_ZN6MAUtil3MapIiPN8NativeUI5LabelEEaSERKS4_;2A.;__base_ctor::(1,180)=#(1,162),(0,6),(1,164),(1,178),(0,6);:_ZN6MAUtil3MapIiPN8NativeUI5LabelEEC2ERKS4_;2A.;__comp_ctor::(1,180):_ZN6MAUtil3MapIiPN8NativeUI5LabelEEC1ERKS4_;2A.;__base_dtor::(1,181)=#(1,162),(0,6),(1,164),(0,6);:_ZN6MAUtil3MapIiPN8NativeUI5LabelEED2Ev;2A.;__comp_dtor::(1,181):_ZN6MAUtil3MapIiPN8NativeUI5LabelEED1Ev;2A.;;",128,0,33,0
	.stabn	162,0,0,0
	.stabs	"_ZN11TrackingTabC2Ei:F(0,6)",36,0,13,__ZN11TrackingTabC2Ei
	.stabs	"this:p(0,25)=k(0,26)=*(0,27)=xsTrackingTab:",160,0,13,-12
	.stabs	"language:p(0,3)",160,0,13,-16
	.global	__ZN11TrackingTabC2Ei

.func __ZN11TrackingTabC2Ei, 2, void
	.stabs	"C:\\Users\\gdr\\Documents\\source\\mobile-app\\MobileApp\\TrackingTab.cpp",132,0,0,Ltext4
Ltext4:
	.line 13
	push rt,fr
	sub  sp,#0xc
	ld   fr,sp
	add  fr,#0x14
	ld   [fr,-12],i0
	ld   [fr,-16],i1
	.dlab LBB8
	.line 14
	ld   i0,[fr,-12]
	call &__ZN8NativeUI6ScreenC2Ev
	ld   r14,[fr,-12]
	add  r14,#0x3c
	ld   i0,r14
	call &__ZN8Wormhole23HighLevelHttpConnectionC2Ev
	ld   r14,[fr,-12]
	ld   r0,#__ZTV11TrackingTab+8
	ld   [r14],r0
	ld   r14,[fr,-12]
	add  r14,#0x3c
	ld   r0,#__ZTV11TrackingTab+204
	ld   [r14],r0
	ld   r14,[fr,-12]
	add  r14,#0x64
	ld   r0,#__ZTV11TrackingTab+244
	ld   [r14],r0
	ld   r14,[fr,-12]
	ld   r0,[fr,-16]
	ld   [r14,108],r0
	ld   r14,[fr,-12]
	add  r14,#0x480
	ld   i0,r14
	call &__ZN6MAUtil11BasicStringIcEC1Ev
	ld   r14,[fr,-12]
	add  r14,#0x488
	ld   i0,r14
	call &__ZN7MAPUtil8DateTimeC1Ev
	ld   r14,[fr,-12]
	add  r14,#0x48c
	ld   i0,r14
	ld   i1,#__ZN6MAUtil7CompareIKiEEiRKT_S4_
	call &__ZN6MAUtil3MapIiNS_11BasicStringIcEEEC1EPFiRKiS5_E
	ld   r14,[fr,-12]
	add  r14,#0x4c4
	ld   i0,r14
	ld   i1,#__ZN6MAUtil7CompareIKiEEiRKT_S4_
	call &__ZN6MAUtil3MapIiNS_11BasicStringIcEEEC1EPFiRKiS5_E
	ld   r14,[fr,-12]
	add  r14,#0x4fc
	ld   i0,r14
	ld   i1,#__ZN6MAUtil7CompareIKiEEiRKT_S4_
	call &__ZN6MAUtil3MapIiPN8NativeUI16HorizontalLayoutEEC1EPFiRKiS6_E
	ld   r14,[fr,-12]
	add  r14,#0x534
	ld   i0,r14
	ld   i1,#__ZN6MAUtil7CompareIKiEEiRKT_S4_
	call &__ZN6MAUtil3MapIiPN8NativeUI12ListViewItemEEC1EPFiRKiS6_E
	ld   r14,[fr,-12]
	add  r14,#0x56c
	ld   i0,r14
	ld   i1,#__ZN6MAUtil7CompareIKiEEiRKT_S4_
	call &__ZN6MAUtil3MapIiPN8NativeUI5LabelEEC1EPFiRKiS6_E
	ld   r14,[fr,-12]
	add  r14,#0x5a4
	ld   i0,r14
	ld   i1,#__ZN6MAUtil7CompareIKiEEiRKT_S4_
	call &__ZN6MAUtil3MapIiPN8NativeUI5LabelEEC1EPFiRKiS6_E
	ld   r14,[fr,-12]
	add  r14,#0x5e0
	ld   i0,r14
	call &__ZN5STimeC1Ev
	.line 17
	ld   r14,[fr,-12]
	ld   r14,[r14,108]
	add  r14,#0x4
	ld   i0,r14
	call &__ZN7Convert2trEi
	ld   r0,r14
	ld   r14,fr
	add  r14,#0xffffffec
	ld   i0,r14
	ld   i1,r0
	call &__ZN6MAUtil11BasicStringIcEC1EPKc
	ld   r14,fr
	add  r14,#0xffffffec
	ld   i0,[fr,-12]
	ld   i1,r14
	call &__ZN8NativeUI6Screen8setTitleERKN6MAUtil11BasicStringIcEE
	ld   r14,fr
	add  r14,#0xffffffec
	ld   i0,r14
	call &__ZN6MAUtil11BasicStringIcED1Ev
	.line 19
	ld   i0,[fr,-12]
	call &__ZN11TrackingTab8createUIEv
	.dlab LBE8
	.line 20
	add  sp,#0xc
	pop  rt,fr
	ret
Lscope3:
	.stabs	"_ZN5STimeC1Ev:f(0,6)",36,0,14,__ZN5STimeC1Ev
	.stabs	"this:p(0,28)=k(90,4)",160,0,19,-12

.func __ZN5STimeC1Ev, 1, void
	.line 14
	push rt,fr
	sub  sp,#0x4
	ld   fr,sp
	add  fr,#0xc
	ld   [fr,-12],i0
	.dlab LBB9
	.line 14
	ld   r14,[fr,-12]
	add  r14,#0x14
	ld   i0,r14
	call &__ZN6MAUtil11BasicStringIcEC1Ev
	.dlab LBE9
	add  sp,#0x4
	pop  rt,fr
	ret
Lscope4:
	.stabs	"_ZN11TrackingTabC1Ei:F(0,6)",36,0,13,__ZN11TrackingTabC1Ei
	.stabs	"this:p(0,25)",160,0,13,-12
	.stabs	"language:p(0,3)",160,0,13,-16
	.global	__ZN11TrackingTabC1Ei

.func __ZN11TrackingTabC1Ei, 2, void
	.line 13
	push rt,fr
	sub  sp,#0xc
	ld   fr,sp
	add  fr,#0x14
	ld   [fr,-12],i0
	ld   [fr,-16],i1
	.dlab LBB10
	.line 14
	ld   i0,[fr,-12]
	call &__ZN8NativeUI6ScreenC2Ev
	ld   r14,[fr,-12]
	add  r14,#0x3c
	ld   i0,r14
	call &__ZN8Wormhole23HighLevelHttpConnectionC2Ev
	ld   r14,[fr,-12]
	ld   r0,#__ZTV11TrackingTab+8
	ld   [r14],r0
	ld   r14,[fr,-12]
	add  r14,#0x3c
	ld   r0,#__ZTV11TrackingTab+204
	ld   [r14],r0
	ld   r14,[fr,-12]
	add  r14,#0x64
	ld   r0,#__ZTV11TrackingTab+244
	ld   [r14],r0
	ld   r14,[fr,-12]
	ld   r0,[fr,-16]
	ld   [r14,108],r0
	ld   r14,[fr,-12]
	add  r14,#0x480
	ld   i0,r14
	call &__ZN6MAUtil11BasicStringIcEC1Ev
	ld   r14,[fr,-12]
	add  r14,#0x488
	ld   i0,r14
	call &__ZN7MAPUtil8DateTimeC1Ev
	ld   r14,[fr,-12]
	add  r14,#0x48c
	ld   i0,r14
	ld   i1,#__ZN6MAUtil7CompareIKiEEiRKT_S4_
	call &__ZN6MAUtil3MapIiNS_11BasicStringIcEEEC1EPFiRKiS5_E
	ld   r14,[fr,-12]
	add  r14,#0x4c4
	ld   i0,r14
	ld   i1,#__ZN6MAUtil7CompareIKiEEiRKT_S4_
	call &__ZN6MAUtil3MapIiNS_11BasicStringIcEEEC1EPFiRKiS5_E
	ld   r14,[fr,-12]
	add  r14,#0x4fc
	ld   i0,r14
	ld   i1,#__ZN6MAUtil7CompareIKiEEiRKT_S4_
	call &__ZN6MAUtil3MapIiPN8NativeUI16HorizontalLayoutEEC1EPFiRKiS6_E
	ld   r14,[fr,-12]
	add  r14,#0x534
	ld   i0,r14
	ld   i1,#__ZN6MAUtil7CompareIKiEEiRKT_S4_
	call &__ZN6MAUtil3MapIiPN8NativeUI12ListViewItemEEC1EPFiRKiS6_E
	ld   r14,[fr,-12]
	add  r14,#0x56c
	ld   i0,r14
	ld   i1,#__ZN6MAUtil7CompareIKiEEiRKT_S4_
	call &__ZN6MAUtil3MapIiPN8NativeUI5LabelEEC1EPFiRKiS6_E
	ld   r14,[fr,-12]
	add  r14,#0x5a4
	ld   i0,r14
	ld   i1,#__ZN6MAUtil7CompareIKiEEiRKT_S4_
	call &__ZN6MAUtil3MapIiPN8NativeUI5LabelEEC1EPFiRKiS6_E
	ld   r14,[fr,-12]
	add  r14,#0x5e0
	ld   i0,r14
	call &__ZN5STimeC1Ev
	.line 17
	ld   r14,[fr,-12]
	ld   r14,[r14,108]
	add  r14,#0x4
	ld   i0,r14
	call &__ZN7Convert2trEi
	ld   r0,r14
	ld   r14,fr
	add  r14,#0xffffffec
	ld   i0,r14
	ld   i1,r0
	call &__ZN6MAUtil11BasicStringIcEC1EPKc
	ld   r14,fr
	add  r14,#0xffffffec
	ld   i0,[fr,-12]
	ld   i1,r14
	call &__ZN8NativeUI6Screen8setTitleERKN6MAUtil11BasicStringIcEE
	ld   r14,fr
	add  r14,#0xffffffec
	ld   i0,r14
	call &__ZN6MAUtil11BasicStringIcED1Ev
	.line 19
	ld   i0,[fr,-12]
	call &__ZN11TrackingTab8createUIEv
	.dlab LBE10
	.line 20
	add  sp,#0xc
	pop  rt,fr
	ret
Lscope5:
	.stabs	"_ZN11TrackingTabD2Ev:F(0,6)",36,0,25,__ZN11TrackingTabD2Ev
	.stabs	"this:p(0,25)",160,0,25,-12
	.global	__ZN11TrackingTabD2Ev

.func __ZN11TrackingTabD2Ev, 1, void
	.line 25
	push rt,fr
	sub  sp,#0x4
	ld   fr,sp
	add  fr,#0xc
	ld   [fr,-12],i0
	.dlab LBB11
	.line 25
	ld   r14,[fr,-12]
	ld   r0,#__ZTV11TrackingTab+8
	ld   [r14],r0
	ld   r14,[fr,-12]
	add  r14,#0x3c
	ld   r0,#__ZTV11TrackingTab+204
	ld   [r14],r0
	ld   r14,[fr,-12]
	add  r14,#0x64
	ld   r0,#__ZTV11TrackingTab+244
	ld   [r14],r0
	ld   r14,[fr,-12]
	add  r14,#0x5e0
	ld   i0,r14
	call &__ZN5STimeD1Ev
	ld   r14,[fr,-12]
	add  r14,#0x5a4
	ld   i0,r14
	call &__ZN6MAUtil3MapIiPN8NativeUI5LabelEED1Ev
	ld   r14,[fr,-12]
	add  r14,#0x56c
	ld   i0,r14
	call &__ZN6MAUtil3MapIiPN8NativeUI5LabelEED1Ev
	ld   r14,[fr,-12]
	add  r14,#0x534
	ld   i0,r14
	call &__ZN6MAUtil3MapIiPN8NativeUI12ListViewItemEED1Ev
	ld   r14,[fr,-12]
	add  r14,#0x4fc
	ld   i0,r14
	call &__ZN6MAUtil3MapIiPN8NativeUI16HorizontalLayoutEED1Ev
	ld   r14,[fr,-12]
	add  r14,#0x4c4
	ld   i0,r14
	call &__ZN6MAUtil3MapIiNS_11BasicStringIcEEED1Ev
	ld   r14,[fr,-12]
	add  r14,#0x48c
	ld   i0,r14
	call &__ZN6MAUtil3MapIiNS_11BasicStringIcEEED1Ev
	ld   r14,[fr,-12]
	add  r14,#0x488
	ld   i0,r14
	call &__ZN7MAPUtil8DateTimeD1Ev
	ld   r14,[fr,-12]
	add  r14,#0x480
	ld   i0,r14
	call &__ZN6MAUtil11BasicStringIcED1Ev
	ld   r14,[fr,-12]
	add  r14,#0x3c
	ld   i0,r14
	call &__ZN8Wormhole23HighLevelHttpConnectionD2Ev
	ld   i0,[fr,-12]
	call &__ZN8NativeUI6ScreenD2Ev
	.dlab LBE11
	.line 27
	ld   r14,#0x1
	and  r14,#0x0
	ld   r0,r14
	and  r0,#0xff  ; zero extend
	ld   r14,#0x0
	jc   eq,r0,r14,#L11
	ld   i0,[fr,-12]
	call &__ZdlPv
L11:
	add  sp,#0x4
	pop  rt,fr
	ret
Lscope6:
	.stabs	"_ZN6MAUtil3MapIiNS_11BasicStringIcEEED1Ev:f(0,6)",36,0,14,__ZN6MAUtil3MapIiNS_11BasicStringIcEEED1Ev
	.stabs	"this:p(0,29)=k(1,33)",160,0,33,-12

.func __ZN6MAUtil3MapIiNS_11BasicStringIcEEED1Ev, 1, void
	.line 14
	push rt,fr
	sub  sp,#0x4
	ld   fr,sp
	add  fr,#0xc
	ld   [fr,-12],i0
	.dlab LBB12
	.line 14
	ld   i0,[fr,-12]
	call &__ZN6MAUtil10DictionaryIKiNS_4PairIS1_NS_11BasicStringIcEEEEED2Ev
	.dlab LBE12
	add  sp,#0x4
	pop  rt,fr
	ret
Lscope7:
	.stabs	"_ZN6MAUtil3MapIiPN8NativeUI16HorizontalLayoutEED1Ev:f(0,6)",36,0,14,__ZN6MAUtil3MapIiPN8NativeUI16HorizontalLayoutEED1Ev
	.stabs	"this:p(0,30)=k(1,74)",160,0,33,-12

.func __ZN6MAUtil3MapIiPN8NativeUI16HorizontalLayoutEED1Ev, 1, void
	.line 14
	push rt,fr
	sub  sp,#0x4
	ld   fr,sp
	add  fr,#0xc
	ld   [fr,-12],i0
	.dlab LBB13
	.line 14
	ld   i0,[fr,-12]
	call &__ZN6MAUtil10DictionaryIKiNS_4PairIS1_PN8NativeUI16HorizontalLayoutEEEED2Ev
	.dlab LBE13
	add  sp,#0x4
	pop  rt,fr
	ret
Lscope8:
	.stabs	"_ZN6MAUtil3MapIiPN8NativeUI12ListViewItemEED1Ev:f(0,6)",36,0,14,__ZN6MAUtil3MapIiPN8NativeUI12ListViewItemEED1Ev
	.stabs	"this:p(0,31)=k(1,119)",160,0,33,-12

.func __ZN6MAUtil3MapIiPN8NativeUI12ListViewItemEED1Ev, 1, void
	.line 14
	push rt,fr
	sub  sp,#0x4
	ld   fr,sp
	add  fr,#0xc
	ld   [fr,-12],i0
	.dlab LBB14
	.line 14
	ld   i0,[fr,-12]
	call &__ZN6MAUtil10DictionaryIKiNS_4PairIS1_PN8NativeUI12ListViewItemEEEED2Ev
	.dlab LBE14
	add  sp,#0x4
	pop  rt,fr
	ret
Lscope9:
	.stabs	"_ZN6MAUtil3MapIiPN8NativeUI5LabelEED1Ev:f(0,6)",36,0,14,__ZN6MAUtil3MapIiPN8NativeUI5LabelEED1Ev
	.stabs	"this:p(0,32)=k(1,164)",160,0,33,-12

.func __ZN6MAUtil3MapIiPN8NativeUI5LabelEED1Ev, 1, void
	.line 14
	push rt,fr
	sub  sp,#0x4
	ld   fr,sp
	add  fr,#0xc
	ld   [fr,-12],i0
	.dlab LBB15
	.line 14
	ld   i0,[fr,-12]
	call &__ZN6MAUtil10DictionaryIKiNS_4PairIS1_PN8NativeUI5LabelEEEED2Ev
	.dlab LBE15
	add  sp,#0x4
	pop  rt,fr
	ret
Lscope10:
	.stabs	"_ZN5STimeD1Ev:f(0,6)",36,0,14,__ZN5STimeD1Ev
	.stabs	"this:p(0,28)",160,0,19,-12

.func __ZN5STimeD1Ev, 1, void
	.line 14
	push rt,fr
	sub  sp,#0x4
	ld   fr,sp
	add  fr,#0xc
	ld   [fr,-12],i0
	.dlab LBB16
	.line 14
	ld   r14,[fr,-12]
	add  r14,#0x14
	ld   i0,r14
	call &__ZN6MAUtil11BasicStringIcED1Ev
	.dlab LBE16
	add  sp,#0x4
	pop  rt,fr
	ret
Lscope11:
	.set	%0=__ZN11TrackingTabD1Ev
	.stabs	"this:p(0,25)",160,0,25,-12
	.global	__ZThn60_N11TrackingTabD1Ev

.func __ZThn60_N11TrackingTabD1Ev, 1, void
	.stabs	"C:\\Users\\gdr\\Documents\\source\\mobile-app\\MobileApp\\/TrackingTab.h",132,0,0,Ltext5
Ltext5:
	.line 43
	push rt,fr
	sub  sp,#0x4
	ld   fr,sp
	add  fr,#0xc
	ld   [fr,-12],i0
	.line 43
	ld   r14,[fr,-12]
	add  r14,#0xffffffc4
	ld   i0,r14
	call &%0
	add  sp,#0x4
	pop  rt,fr
	ret
Lscope12:
	.stabs	"_ZN11TrackingTabD1Ev:F(0,6)",36,0,25,__ZN11TrackingTabD1Ev
	.stabs	"this:p(0,25)",160,0,25,-12
	.global	__ZN11TrackingTabD1Ev

.func __ZN11TrackingTabD1Ev, 1, void
	.stabs	"C:\\Users\\gdr\\Documents\\source\\mobile-app\\MobileApp\\TrackingTab.cpp",132,0,0,Ltext6
Ltext6:
	.line 25
	push rt,fr
	sub  sp,#0x4
	ld   fr,sp
	add  fr,#0xc
	ld   [fr,-12],i0
	.dlab LBB17
	.line 25
	ld   r14,[fr,-12]
	ld   r0,#__ZTV11TrackingTab+8
	ld   [r14],r0
	ld   r14,[fr,-12]
	add  r14,#0x3c
	ld   r0,#__ZTV11TrackingTab+204
	ld   [r14],r0
	ld   r14,[fr,-12]
	add  r14,#0x64
	ld   r0,#__ZTV11TrackingTab+244
	ld   [r14],r0
	ld   r14,[fr,-12]
	add  r14,#0x5e0
	ld   i0,r14
	call &__ZN5STimeD1Ev
	ld   r14,[fr,-12]
	add  r14,#0x5a4
	ld   i0,r14
	call &__ZN6MAUtil3MapIiPN8NativeUI5LabelEED1Ev
	ld   r14,[fr,-12]
	add  r14,#0x56c
	ld   i0,r14
	call &__ZN6MAUtil3MapIiPN8NativeUI5LabelEED1Ev
	ld   r14,[fr,-12]
	add  r14,#0x534
	ld   i0,r14
	call &__ZN6MAUtil3MapIiPN8NativeUI12ListViewItemEED1Ev
	ld   r14,[fr,-12]
	add  r14,#0x4fc
	ld   i0,r14
	call &__ZN6MAUtil3MapIiPN8NativeUI16HorizontalLayoutEED1Ev
	ld   r14,[fr,-12]
	add  r14,#0x4c4
	ld   i0,r14
	call &__ZN6MAUtil3MapIiNS_11BasicStringIcEEED1Ev
	ld   r14,[fr,-12]
	add  r14,#0x48c
	ld   i0,r14
	call &__ZN6MAUtil3MapIiNS_11BasicStringIcEEED1Ev
	ld   r14,[fr,-12]
	add  r14,#0x488
	ld   i0,r14
	call &__ZN7MAPUtil8DateTimeD1Ev
	ld   r14,[fr,-12]
	add  r14,#0x480
	ld   i0,r14
	call &__ZN6MAUtil11BasicStringIcED1Ev
	ld   r14,[fr,-12]
	add  r14,#0x3c
	ld   i0,r14
	call &__ZN8Wormhole23HighLevelHttpConnectionD2Ev
	ld   i0,[fr,-12]
	call &__ZN8NativeUI6ScreenD2Ev
	.dlab LBE17
	.line 27
	ld   r14,#0x1
	and  r14,#0x2
	ld   r0,r14
	and  r0,#0xff  ; zero extend
	ld   r14,#0x0
	jc   eq,r0,r14,#L31
	ld   i0,[fr,-12]
	call &__ZdlPv
L31:
	add  sp,#0x4
	pop  rt,fr
	ret
Lscope13:
	.set	%1=__ZN11TrackingTabD0Ev
	.stabs	"this:p(0,25)",160,0,25,-12
	.global	__ZThn60_N11TrackingTabD0Ev

.func __ZThn60_N11TrackingTabD0Ev, 1, void
	.stabs	"C:\\Users\\gdr\\Documents\\source\\mobile-app\\MobileApp\\/TrackingTab.h",132,0,0,Ltext7
Ltext7:
	.line 43
	push rt,fr
	sub  sp,#0x4
	ld   fr,sp
	add  fr,#0xc
	ld   [fr,-12],i0
	.line 43
	ld   r14,[fr,-12]
	add  r14,#0xffffffc4
	ld   i0,r14
	call &%1
	add  sp,#0x4
	pop  rt,fr
	ret
Lscope14:
	.stabs	"_ZN11TrackingTabD0Ev:F(0,6)",36,0,25,__ZN11TrackingTabD0Ev
	.stabs	"this:p(0,25)",160,0,25,-12
	.global	__ZN11TrackingTabD0Ev

.func __ZN11TrackingTabD0Ev, 1, void
	.stabs	"C:\\Users\\gdr\\Documents\\source\\mobile-app\\MobileApp\\TrackingTab.cpp",132,0,0,Ltext8
Ltext8:
	.line 25
	push rt,fr
	sub  sp,#0x4
	ld   fr,sp
	add  fr,#0xc
	ld   [fr,-12],i0
	.dlab LBB18
	.line 25
	ld   r14,[fr,-12]
	ld   r0,#__ZTV11TrackingTab+8
	ld   [r14],r0
	ld   r14,[fr,-12]
	add  r14,#0x3c
	ld   r0,#__ZTV11TrackingTab+204
	ld   [r14],r0
	ld   r14,[fr,-12]
	add  r14,#0x64
	ld   r0,#__ZTV11TrackingTab+244
	ld   [r14],r0
	ld   r14,[fr,-12]
	add  r14,#0x5e0
	ld   i0,r14
	call &__ZN5STimeD1Ev
	ld   r14,[fr,-12]
	add  r14,#0x5a4
	ld   i0,r14
	call &__ZN6MAUtil3MapIiPN8NativeUI5LabelEED1Ev
	ld   r14,[fr,-12]
	add  r14,#0x56c
	ld   i0,r14
	call &__ZN6MAUtil3MapIiPN8NativeUI5LabelEED1Ev
	ld   r14,[fr,-12]
	add  r14,#0x534
	ld   i0,r14
	call &__ZN6MAUtil3MapIiPN8NativeUI12ListViewItemEED1Ev
	ld   r14,[fr,-12]
	add  r14,#0x4fc
	ld   i0,r14
	call &__ZN6MAUtil3MapIiPN8NativeUI16HorizontalLayoutEED1Ev
	ld   r14,[fr,-12]
	add  r14,#0x4c4
	ld   i0,r14
	call &__ZN6MAUtil3MapIiNS_11BasicStringIcEEED1Ev
	ld   r14,[fr,-12]
	add  r14,#0x48c
	ld   i0,r14
	call &__ZN6MAUtil3MapIiNS_11BasicStringIcEEED1Ev
	ld   r14,[fr,-12]
	add  r14,#0x488
	ld   i0,r14
	call &__ZN7MAPUtil8DateTimeD1Ev
	ld   r14,[fr,-12]
	add  r14,#0x480
	ld   i0,r14
	call &__ZN6MAUtil11BasicStringIcED1Ev
	ld   r14,[fr,-12]
	add  r14,#0x3c
	ld   i0,r14
	call &__ZN8Wormhole23HighLevelHttpConnectionD2Ev
	ld   i0,[fr,-12]
	call &__ZN8NativeUI6ScreenD2Ev
	.dlab LBE18
	.line 27
	ld   r14,#0x1
	and  r14,#0x3
	ld   r0,r14
	and  r0,#0xff  ; zero extend
	ld   r14,#0x0
	jc   eq,r0,r14,#L36
	ld   i0,[fr,-12]
	call &__ZdlPv
L36:
	add  sp,#0x4
	pop  rt,fr
	ret
Lscope15:
.data
LC8:
	.ascii "https://dev-api01.echoes-tech.com\0"
LC9:
	.ascii "/alerts/tracking/messages\0"
LC10:
	.ascii "?login=demo.hebergeur@echoes-tech.com&password=heber12%23geur\0"
LC11:
	.ascii "&media=1\0"
LC12:
	.ascii "timer\0"
.code
	.stabs	"_ZN11TrackingTab13runTimerEventEv:F(0,6)",36,0,29,__ZN11TrackingTab13runTimerEventEv
	.stabs	"this:p(0,25)",160,0,29,-12
	.global	__ZN11TrackingTab13runTimerEventEv

.func __ZN11TrackingTab13runTimerEventEv, 1, void
	.line 29
	push rt,fr
	sub  sp,#0xc
	ld   fr,sp
	add  fr,#0x14
	ld   [fr,-12],i0
	.dlab LBB19
	.dlab LBB20
	.line 30
	ld   r14,fr
	add  r14,#0xfffffff0
	ld   i0,r14
	ld   i1,#LC8
	call &__ZN6MAUtil11BasicStringIcEC1EPKc
	.line 31
	ld   r14,fr
	add  r14,#0xffffffec
	ld   i0,r14
	ld   i1,#LC9
	call &__ZN6MAUtil11BasicStringIcEC1EPKc
	ld   r0,fr
	add  r0,#0xffffffec
	ld   r14,fr
	add  r14,#0xfffffff0
	ld   i0,r14
	ld   i1,r0
	call &__ZN6MAUtil11BasicStringIcEpLERKS1_
	ld   r14,fr
	add  r14,#0xffffffec
	ld   i0,r14
	call &__ZN6MAUtil11BasicStringIcED1Ev
	.line 33
	ld   r14,fr
	add  r14,#0xffffffec
	ld   i0,r14
	ld   i1,#LC10
	call &__ZN6MAUtil11BasicStringIcEC1EPKc
	ld   r0,fr
	add  r0,#0xffffffec
	ld   r14,fr
	add  r14,#0xfffffff0
	ld   i0,r14
	ld   i1,r0
	call &__ZN6MAUtil11BasicStringIcEpLERKS1_
	ld   r14,fr
	add  r14,#0xffffffec
	ld   i0,r14
	call &__ZN6MAUtil11BasicStringIcED1Ev
	.line 34
	ld   r14,fr
	add  r14,#0xffffffec
	ld   i0,r14
	ld   i1,#LC11
	call &__ZN6MAUtil11BasicStringIcEC1EPKc
	ld   r0,fr
	add  r0,#0xffffffec
	ld   r14,fr
	add  r14,#0xfffffff0
	ld   i0,r14
	ld   i1,r0
	call &__ZN6MAUtil11BasicStringIcEpLERKS1_
	ld   r14,fr
	add  r14,#0xffffffec
	ld   i0,r14
	call &__ZN6MAUtil11BasicStringIcED1Ev
	.line 35
	ld   r14,fr
	add  r14,#0xfffffff0
	ld   i0,r14
	call &__ZNK6MAUtil11BasicStringIcE5c_strEv
	ld   i0,r14
	call &_lprintfln
	.line 36
	ld   r14,fr
	add  r14,#0xffffffec
	ld   r0,fr
	add  r0,#0xfffffff0
	ld   i0,r14
	ld   i1,r0
	call &__ZN6MAUtil11BasicStringIcEC1ERKS1_
	ld   r14,fr
	add  r14,#0xffffffec
	ld   i0,[fr,-12]
	ld   i1,r14
	ld   i2,#0x0
	call &__ZN11TrackingTab10connectUrlEN6MAUtil11BasicStringIcEENS_11eTrakingTabE
	ld   r14,fr
	add  r14,#0xffffffec
	ld   i0,r14
	call &__ZN6MAUtil11BasicStringIcED1Ev
	.line 38
	ld   i0,#LC12
	call &_lprintfln
	ld   r14,fr
	add  r14,#0xfffffff0
	ld   i0,r14
	call &__ZN6MAUtil11BasicStringIcED1Ev
	.dlab LBE20
	.dlab LBE19
	.line 39
	add  sp,#0xc
	pop  rt,fr
	ret
	.stabs	"urlTmp:(5,1)",128,0,30,-16
	.stabn	192,0,0,LBB20-__ZN11TrackingTab13runTimerEventEv
	.stabn	224,0,0,LBE20-__ZN11TrackingTab13runTimerEventEv
Lscope16:
	.set	%2=__ZN11TrackingTab14dataDownloadedEii
	.stabs	"this:p(0,25)",160,0,41,-12
	.stabs	"data:p(3,10)",160,0,41,-16
	.stabs	"result:p(0,3)",160,0,41,-20
	.global	__ZThn60_N11TrackingTab14dataDownloadedEii

.func __ZThn60_N11TrackingTab14dataDownloadedEii, 3, void
	.stabs	"C:\\Users\\gdr\\Documents\\source\\mobile-app\\MobileApp\\/TrackingTab.h",132,0,0,Ltext9
Ltext9:
	.line 43
	push rt,fr
	sub  sp,#0xc
	ld   fr,sp
	add  fr,#0x14
	ld   [fr,-12],i0
	ld   [fr,-16],i1
	ld   [fr,-20],i2
	.line 43
	ld   r14,[fr,-12]
	add  r14,#0xffffffc4
	ld   i0,r14
	ld   i1,[fr,-16]
	ld   i2,[fr,-20]
	call &%2
	add  sp,#0xc
	pop  rt,fr
	ret
Lscope17:
.data
LC13:
	.ascii "dataDownloaded trackingTab\0"
LC14:
	.ascii "AlertTab DataDownload result = %d\0"
LC15:
	.ascii "DNS resolution error.\0"
LC16:
	.ascii "TrackingTab DataDownload result = %d\0"
LC17:
	.ascii "Connection ERROR. ERREUR:\0"
LC18:
	.ascii "Connection Error\0"
.code
	.stabs	"_ZN11TrackingTab14dataDownloadedEii:F(0,6)",36,0,41,__ZN11TrackingTab14dataDownloadedEii
	.stabs	"this:p(0,25)",160,0,41,-16
	.stabs	"data:p(3,10)",160,0,41,-20
	.stabs	"result:p(0,3)",160,0,41,-24
	.global	__ZN11TrackingTab14dataDownloadedEii

.func __ZN11TrackingTab14dataDownloadedEii, 3, void
	.stabs	"C:\\Users\\gdr\\Documents\\source\\mobile-app\\MobileApp\\TrackingTab.cpp",132,0,0,Ltext10
Ltext10:
	.line 41
	push rt,d0
	sub  sp,#0x20
	ld   fr,sp
	add  fr,#0x2c
	ld   [fr,-16],i0
	ld   [fr,-20],i1
	ld   [fr,-24],i2
	.dlab LBB21
	.dlab LBB22
	.line 42
	ld   i0,#LC13
	call &_lprintfln
	.line 43
	ld   r14,[fr,-16]
	ld   r0,#0x0
	ld.b [r14,1144],r0
	.line 44
	ld   r14,[fr,-16]
	add  r14,#0x3c
	ld   i0,r14
	call &__ZN6MAUtil10Connection5closeEv
	.dlab LBB23
	.line 45
	ld   r0,[fr,-24]
	ld   r14,#0x1
	jc   ne,r0,r14,#L43
	.dlab LBB24
	.line 46
	ld   r14,[fr,-16]
	ld   r0,#0x0
	ld   [r14,112],r0
	.line 47
	ld   i0,[fr,-20]
	call &_maGetDataSize
	add  r14,#0x1
	ld   i0,r14
	call &__Znam
	ld   [fr,-28],r14
	.line 48
	ld   i0,[fr,-20]
	call &_maGetDataSize
	ld   i0,[fr,-20]
	ld   i1,[fr,-28]
	ld   i2,#0x0
	ld   i3,r14
	call &_maReadData
	.line 49
	ld   r14,fr
	add  r14,#0xffffffe0
	ld   i0,r14
	ld   i1,[fr,-28]
	call &__ZN6MAUtil11BasicStringIcEC1EPKc
	.line 50
	ld   r14,fr
	add  r14,#0xffffffe0
	ld   i0,r14
	ld   i1,#0x1
	call &__ZN7Convert21formatJSONBeforeParseERN6MAUtil11BasicStringIcEEi
	.line 52
	ld   r14,fr
	add  r14,#0xffffffe0
	ld   i0,r14
	call &__ZNK6MAUtil11BasicStringIcE5c_strEv
	ld   d0,r14
	ld   i0,[fr,-20]
	call &_maGetDataSize
	ld   i0,d0
	ld   i1,r14
	call &__ZN6MAUtil7YAJLDom5parseEPKhm
	ld   [fr,-36],r14
	.line 55
	ld   i0,[fr,-16]
	ld   i1,[fr,-36]
	call &__ZN11TrackingTab22parseJSONTrackingAlertEPN6MAUtil7YAJLDom5ValueE
	ld   r14,fr
	add  r14,#0xffffffe0
	ld   i0,r14
	call &__ZN6MAUtil11BasicStringIcED1Ev
	.dlab LBE24
	jp   #L44
L43:
	.line 57
	ld   r0,[fr,-24]
	ld   r14,#0xfffffffc
	jc   ne,r0,r14,#L45
	.line 58
	ld   r14,[fr,-16]
	ld   r0,[fr,-16]
	ld   r0,[r0,112]
	add  r0,#0x1
	ld   [r14,112],r0
	.line 59
	ld   r14,[fr,-24]
	ld   [sp],r14
	ld   i0,#LC14
	call &_lprintfln
	.line 60
	ld   i0,#LC15
	call &_lprintfln
	jp   #L44
L45:
	.line 62
	ld   r14,[fr,-16]
	ld   r0,[fr,-16]
	ld   r0,[r0,112]
	add  r0,#0x1
	ld   [r14,112],r0
	.line 63
	ld   r0,[fr,-24]
	ld   [sp],r0
	ld   i0,#LC16
	call &_lprintfln
L44:
	.dlab LBE23
	.dlab LBB25
	.line 65
	ld   r14,[fr,-16]
	ld   r0,[r14,112]
	ld   r14,#0x2
	jc   le,r0,r14,#L42
	.dlab LBB26
	.line 67
	ld   r14,fr
	add  r14,#0xffffffe0
	ld   i0,r14
	ld   i1,#LC17
	call &__ZN6MAUtil11BasicStringIcEC1EPKc
	.line 68
	ld   r14,fr
	add  r14,#0xffffffd8
	ld   i0,r14
	ld   i1,[fr,-24]
	call &__ZN7Convert8toStringEi
	ld   r0,fr
	add  r0,#0xffffffd8
	ld   r14,fr
	add  r14,#0xffffffe0
	ld   i0,r14
	ld   i1,r0
	call &__ZN6MAUtil11BasicStringIcEpLERKS1_
	ld   r14,fr
	add  r14,#0xffffffd8
	ld   i0,r14
	call &__ZN6MAUtil11BasicStringIcED1Ev
	.line 69
	ld   r14,fr
	add  r14,#0xffffffe0
	ld   i0,r14
	call &__ZNK6MAUtil11BasicStringIcE5c_strEv
	ld   i0,#LC18
	ld   i1,r14
	call &_maMessageBox
	ld   r14,fr
	add  r14,#0xffffffe0
	ld   i0,r14
	call &__ZN6MAUtil11BasicStringIcED1Ev
L42:
	.dlab LBE26
	.dlab LBE25
	.dlab LBE22
	.dlab LBE21
	.line 71
	add  sp,#0x20
	pop  rt,d0
	ret
	.stabs	"jsonData:(3,5)",128,0,47,-28
	.stabs	"jsonTmp:(5,1)",128,0,49,-32
	.stabs	"root:(99,35)",128,0,52,-36
	.stabn	192,0,0,LBB24-__ZN11TrackingTab14dataDownloadedEii
	.stabn	224,0,0,LBE24-__ZN11TrackingTab14dataDownloadedEii
	.stabs	"sMessage:(5,1)",128,0,67,-32
	.stabn	192,0,0,LBB26-__ZN11TrackingTab14dataDownloadedEii
	.stabn	224,0,0,LBE26-__ZN11TrackingTab14dataDownloadedEii
Lscope18:
	.stabs	"maMessageBox:f(0,6)",36,0,6514,_maMessageBox
	.stabs	"title:p(13,7)",160,0,6514,-12
	.stabs	"message:p(13,7)",160,0,6514,-16

.func _maMessageBox, 2, void
	.stabs	"c:/MoSync/include/maapi.h",132,0,0,Ltext11
Ltext11:
	.line 6514
	push rt,fr
	sub  sp,#0x8
	ld   fr,sp
	add  fr,#0x10
	ld   [fr,-12],i0
	ld   [fr,-16],i1
	.dlab LBB27
	.line 6515
	ld   i0,#0x19b
	ld   i1,[fr,-12]
	ld   i2,[fr,-16]
	ld   i3,#0x0
	call &_maIOCtl
	.dlab LBE27
	.line 6516
	add  sp,#0x8
	pop  rt,fr
	ret
Lscope19:
.data
LC19:
	.ascii "Root node is not valid\12\0"
LC20:
	.ascii "Root node is valid :) \12\0"
LC21:
	.ascii "%d\12\0"
LC22:
	.ascii "send_date\0"
LC23:
	.ascii "content\0"
LC24:
	.ascii "Nouvelle alerte\0"
LC25:
	.ascii "ok\0"
.code
	.stabs	"_ZN11TrackingTab22parseJSONTrackingAlertEPN6MAUtil7YAJLDom5ValueE:F(0,6)",36,0,73,__ZN11TrackingTab22parseJSONTrackingAlertEPN6MAUtil7YAJLDom5ValueE
	.stabs	"this:p(0,25)",160,0,73,-24
	.stabs	"root:p(99,35)",160,0,73,-28
	.global	__ZN11TrackingTab22parseJSONTrackingAlertEPN6MAUtil7YAJLDom5ValueE

.func __ZN11TrackingTab22parseJSONTrackingAlertEPN6MAUtil7YAJLDom5ValueE, 2, void
	.stabs	"C:\\Users\\gdr\\Documents\\source\\mobile-app\\MobileApp\\TrackingTab.cpp",132,0,0,Ltext12
Ltext12:
	.line 73
	push rt,d2
	sub  sp,#0x5c
	ld   fr,sp
	add  fr,#0x70
	ld   [fr,-24],i0
	ld   [fr,-28],i1
	.dlab LBB28
	.dlab LBB29
	.line 84
	ld   r0,[fr,-28]
	ld   r14,#0x0
	jc   eq,r0,r14,#L51
	ld   i0,[fr,-28]
	call &__ZNK6MAUtil7YAJLDom5Value7getTypeEv
	ld   r0,r14
	ld   r14,#0x0
	jc   eq,r0,r14,#L51
	ld   i0,[fr,-28]
	call &__ZNK6MAUtil7YAJLDom5Value7getTypeEv
	ld   r0,r14
	ld   r14,#0x3
	jc   ne,r0,r14,#L51
	jp   #L50
L51:
	.line 86
	ld   i0,#LC19
	call &_lprintfln
	jp   #L52
L50:
	.line 89
	ld   i0,#LC20
	call &_lprintfln
L52:
	.line 92
	ld   r14,[fr,-28]
	ld   r14,[r14]
	add  r14,#0x28
	ld   r14,[r14]
	ld   i0,[fr,-28]
	call r14
	ld   [sp],r14
	ld   i0,#LC21
	call &_lprintfln
	.line 94
	ld   r14,fr
	add  r14,#0xffffffc8
	ld   i0,r14
	call &__ZN5STimeC1Ev
	.dlab LBB30
	.line 95
	ld   r14,[fr,-28]
	ld   r14,[r14]
	add  r14,#0x28
	ld   r14,[r14]
	ld   i0,[fr,-28]
	call r14
	ld   r0,r14
	ld   r14,#0x0
	jc   le,r0,r14,#L53
	.dlab LBB31
	.line 97
	ld   r14,[fr,-28]
	ld   r14,[r14]
	add  r14,#0x1c
	ld   r14,[r14]
	ld   i0,[fr,-28]
	ld   i1,#0x0
	call r14
	ld   [fr,-60],r14
	.line 98
	ld   d0,fr
	add  d0,#0xffffffc0
	ld   r14,fr
	add  r14,#0xffffffbc
	ld   i0,r14
	ld   i1,#LC22
	call &__ZN6MAUtil11BasicStringIcEC1EPKc
	ld   r0,fr
	add  r0,#0xffffffbc
	ld   r14,[fr,-60]
	ld   r14,[r14]
	add  r14,#0x18
	ld   r14,[r14]
	ld   i0,[fr,-60]
	ld   i1,r0
	call r14
	ld   r0,r14
	ld   r14,[r0]
	add  r14,#0x8
	ld   r14,[r14]
	ld   i0,d0
	ld   i1,r0
	call r14
	ld   r14,fr
	add  r14,#0xffffffbc
	ld   i0,r14
	call &__ZN6MAUtil11BasicStringIcED1Ev
	.line 99
	ld   r14,fr
	add  r14,#0xffffffa0
	ld   r0,fr
	add  r0,#0xffffffc0
	ld   i0,r14
	ld   i1,r0
	call &__ZN7Convert7toSTimeERN6MAUtil11BasicStringIcEE
	ld   r0,fr
	add  r0,#0xffffffa0
	ld   r14,fr
	add  r14,#0xffffffc8
	ld   i0,r14
	ld   i1,r0
	call &__ZN5STimeaSERKS_
	ld   r14,fr
	add  r14,#0xffffffa0
	ld   i0,r14
	call &__ZN5STimeD1Ev
	ld   r14,fr
	add  r14,#0xffffffc0
	ld   i0,r14
	call &__ZN6MAUtil11BasicStringIcED1Ev
L53:
	.dlab LBE31
	.dlab LBE30
	.dlab LBB32
	.line 103
	ld   r14,fr
	add  r14,#0xffffffc8
	ld   r0,[fr,-24]
	add  r0,#0x5e0
	ld   i0,r14
	ld   i1,r0
	call &__ZgtRK5STimeS1_
	ld   r0,r14
	and  r0,#0xff  ; zero extend
	ld   r14,#0x0
	jc   eq,r0,r14,#L54
	.dlab LBB33
	.line 105
	ld   r14,[fr,-24]
	ld   i0,[fr,-24]
	ld   i1,[r14,1500]
	call &__ZN8NativeUI6Widget11removeChildEPS0_
	.dlab LBB34
	.line 107
	ld   r0,#0x0
	ld   [fr,-60],r0
L55:
	ld   r14,[fr,-24]
	add  r14,#0x534
	ld   i0,r14
	call &__ZNK6MAUtil10DictionaryIKiNS_4PairIS1_PN8NativeUI12ListViewItemEEEE4sizeEv
	ld   r0,r14
	ld   r14,[fr,-60]
	jc   geu,r14,r0,#L56
	.line 109
	ld   r14,[fr,-24]
	add  r14,#0x534
	ld   r0,fr
	add  r0,#0xffffffc4
	ld   i0,r14
	ld   i1,r0
	call &__ZN6MAUtil3MapIiPN8NativeUI12ListViewItemEEixERKi
	ld   r1,[r14]
	ld   r14,[fr,-24]
	ld   r14,[r14,1156]
	ld   r14,[r14]
	add  r14,#0x3c
	ld   r0,[fr,-24]
	ld   r14,[r14]
	ld   i0,[r0,1156]
	ld   i1,r1
	call r14
	.line 107
	ld   r14,[fr,-60]
	add  r14,#0x1
	ld   [fr,-60],r14
	jp   #L55
L56:
	.dlab LBE34
	.dlab LBB35
	.line 112
	ld   r14,#0x0
	ld   [fr,-60],r14
L58:
	ld   r14,[fr,-28]
	ld   r14,[r14]
	add  r14,#0x28
	ld   r14,[r14]
	ld   i0,[fr,-28]
	call r14
	ld   r0,r14
	add  r0,#0xffffffff
	ld   r14,[fr,-60]
	jc   lt,r0,r14,#L59
	.dlab LBB36
	.dlab LBB37
	.line 113
	ld   r14,[fr,-28]
	ld   r14,[r14]
	add  r14,#0x1c
	ld   r14,[r14]
	ld   i0,[fr,-28]
	ld   i1,[fr,-60]
	call r14
	ld   [fr,-100],r14
	.line 115
	ld   r14,[fr,-24]
	add  r14,#0x4c4
	ld   r0,fr
	add  r0,#0xffffffc4
	ld   i0,r14
	ld   i1,r0
	call &__ZN6MAUtil3MapIiNS_11BasicStringIcEEEixERKi
	ld   d0,r14
	ld   d1,fr
	add  d1,#0xffffffa0
	ld   r14,fr
	add  r14,#0xffffffa4
	ld   i0,r14
	ld   i1,#LC22
	call &__ZN6MAUtil11BasicStringIcEC1EPKc
	ld   r0,fr
	add  r0,#0xffffffa4
	ld   r14,[fr,-100]
	ld   r14,[r14]
	add  r14,#0x18
	ld   r14,[r14]
	ld   i0,[fr,-100]
	ld   i1,r0
	call r14
	ld   r0,r14
	ld   r14,[r0]
	add  r14,#0x8
	ld   r14,[r14]
	ld   i0,d1
	ld   i1,r0
	call r14
	ld   r14,fr
	add  r14,#0xffffffa0
	ld   i0,d0
	ld   i1,r14
	call &__ZN6MAUtil11BasicStringIcEaSERKS1_
	ld   r14,fr
	add  r14,#0xffffffa0
	ld   i0,r14
	call &__ZN6MAUtil11BasicStringIcED1Ev
	ld   r14,fr
	add  r14,#0xffffffa4
	ld   i0,r14
	call &__ZN6MAUtil11BasicStringIcED1Ev
	.line 117
	ld   r14,[fr,-24]
	add  r14,#0x4c4
	ld   r0,fr
	add  r0,#0xffffffc4
	ld   i0,r14
	ld   i1,r0
	call &__ZN6MAUtil3MapIiNS_11BasicStringIcEEEixERKi
	ld   i0,r14
	call &__ZNK6MAUtil11BasicStringIcE5c_strEv
	ld   i0,r14
	call &_lprintfln
	.dlab LBB38
	.line 127
	ld   r14,[fr,-24]
	ld.b r0,[r14,1145]
	and  r0,#0xff  ; zero extend
	ld   r14,#0x0
	jc   ne,r0,r14,#L61
	.dlab LBB39
	.line 129
	ld   d0,fr
	add  d0,#0xffffffa0
	ld   r14,fr
	add  r14,#0xffffffa4
	ld   i0,r14
	ld   i1,#LC22
	call &__ZN6MAUtil11BasicStringIcEC1EPKc
	ld   r0,fr
	add  r0,#0xffffffa4
	ld   r14,[fr,-100]
	ld   r14,[r14]
	add  r14,#0x18
	ld   r14,[r14]
	ld   i0,[fr,-100]
	ld   i1,r0
	call r14
	ld   r0,r14
	ld   r14,[r0]
	add  r14,#0x8
	ld   r14,[r14]
	ld   i0,d0
	ld   i1,r0
	call r14
	ld   r14,fr
	add  r14,#0xffffffa4
	ld   i0,r14
	call &__ZN6MAUtil11BasicStringIcED1Ev
	.line 130
	ld   r14,fr
	add  r14,#0xffffffa4
	ld   r0,fr
	add  r0,#0xffffffa0
	ld   i0,r14
	ld   i1,r0
	call &__ZN7Convert7toSTimeERN6MAUtil11BasicStringIcEE
	.line 132
	ld   r14,fr
	add  r14,#0xffffffa4
	ld   r0,[fr,-24]
	add  r0,#0x5e0
	ld   i0,r14
	ld   i1,r0
	call &__ZgtRK5STimeS1_
	ld   r0,r14
	and  r0,#0xff  ; zero extend
	ld   r14,#0x0
	jc   eq,r0,r14,#L62
	.line 136
	ld   d1,[fr,-24]
	ld   i0,#0x8
	call &__Znwm
	ld   d0,r14
	ld   i0,d0
	call &__ZN12Notification17LocalNotificationC1Ev
	ld   [d1,1532],d0
	.line 137
	ld   d0,fr
	add  d0,#0xffffff98
	ld   r14,fr
	add  r14,#0xffffff94
	ld   i0,r14
	ld   i1,#LC23
	call &__ZN6MAUtil11BasicStringIcEC1EPKc
	ld   r0,fr
	add  r0,#0xffffff94
	ld   r14,[fr,-100]
	ld   r14,[r14]
	add  r14,#0x18
	ld   r14,[r14]
	ld   i0,[fr,-100]
	ld   i1,r0
	call r14
	ld   r0,r14
	ld   r14,[r0]
	add  r14,#0x8
	ld   r14,[r14]
	ld   i0,d0
	ld   i1,r0
	call r14
	ld   r14,fr
	add  r14,#0xffffff98
	ld   i0,r14
	call &__ZNK6MAUtil11BasicStringIcE5c_strEv
	ld   r0,r14
	ld   r14,fr
	add  r14,#0xffffffc0
	ld   i0,r14
	ld   i1,r0
	call &__ZN6MAUtil11BasicStringIcEC1EPKc
	ld   r0,fr
	add  r0,#0xffffffc0
	ld   r14,[fr,-24]
	ld   i0,[r14,1532]
	ld   i1,r0
	call &__ZN12Notification17LocalNotification14setContentBodyERKN6MAUtil11BasicStringIcEE
	ld   r14,fr
	add  r14,#0xffffffc0
	ld   i0,r14
	call &__ZN6MAUtil11BasicStringIcED1Ev
	ld   r14,fr
	add  r14,#0xffffff98
	ld   i0,r14
	call &__ZN6MAUtil11BasicStringIcED1Ev
	ld   r14,fr
	add  r14,#0xffffff94
	ld   i0,r14
	call &__ZN6MAUtil11BasicStringIcED1Ev
	.line 138
	ld   d0,fr
	add  d0,#0xffffffc0
	ld   r14,fr
	add  r14,#0xffffff94
	ld   i0,r14
	ld   i1,#LC23
	call &__ZN6MAUtil11BasicStringIcEC1EPKc
	ld   r0,fr
	add  r0,#0xffffff94
	ld   r14,[fr,-100]
	ld   r14,[r14]
	add  r14,#0x18
	ld   r14,[r14]
	ld   i0,[fr,-100]
	ld   i1,r0
	call r14
	ld   r0,r14
	ld   r14,[r0]
	add  r14,#0x8
	ld   r14,[r14]
	ld   i0,d0
	ld   i1,r0
	call r14
	ld   r14,fr
	add  r14,#0xffffffc0
	ld   i0,r14
	call &__ZNK6MAUtil11BasicStringIcE5c_strEv
	ld   i0,r14
	call &_lprintfln
	ld   r14,fr
	add  r14,#0xffffffc0
	ld   i0,r14
	call &__ZN6MAUtil11BasicStringIcED1Ev
	ld   r14,fr
	add  r14,#0xffffff94
	ld   i0,r14
	call &__ZN6MAUtil11BasicStringIcED1Ev
	.line 141
	call &__Z11getPlatformv
	ld   r0,r14
	ld   r14,#0x0
	jc   ne,r0,r14,#L63
	.line 143
	ld   r14,[fr,-24]
	ld   i0,[r14,1532]
	ld   i1,#0x1
	call &__ZN12Notification17LocalNotification10setVibrateEb
	.line 144
	ld   r14,[fr,-24]
	ld   i0,[r14,1532]
	ld   i1,#0x5
	call &__ZN12Notification17LocalNotification18setVibrateDurationEi
	.line 147
	ld   r14,fr
	add  r14,#0xffffffc0
	ld   i0,r14
	ld   i1,#LC24
	call &__ZN6MAUtil11BasicStringIcEC1EPKc
	ld   r0,fr
	add  r0,#0xffffffc0
	ld   r14,[fr,-24]
	ld   i0,[r14,1532]
	ld   i1,r0
	call &__ZN12Notification17LocalNotification13setTickerTextEN6MAUtil11BasicStringIcEE
	ld   r14,fr
	add  r14,#0xffffffc0
	ld   i0,r14
	call &__ZN6MAUtil11BasicStringIcED1Ev
	jp   #L64
L63:
	.line 150
	ld   r14,[fr,-24]
	ld   i0,[r14,1532]
	ld   i1,#0x6
	call &__ZN12Notification17LocalNotification14setBadgeNumberEi
	.line 152
	ld   r14,fr
	add  r14,#0xffffffc0
	ld   i0,r14
	ld   i1,#LC25
	call &__ZN6MAUtil11BasicStringIcEC1EPKc
	ld   r0,fr
	add  r0,#0xffffffc0
	ld   r14,[fr,-24]
	ld   i0,[r14,1532]
	ld   i1,r0
	call &__ZN12Notification17LocalNotification14setAlertActionERKN6MAUtil11BasicStringIcEE
	ld   r14,fr
	add  r14,#0xffffffc0
	ld   i0,r14
	call &__ZN6MAUtil11BasicStringIcED1Ev
L64:
	.line 154
	call &__ZN12Notification19NotificationManager11getInstanceEv
	ld   r0,[fr,-24]
	ld   i0,r14
	ld   i1,[r0,1532]
	call &__ZN12Notification19NotificationManager27unscheduleLocalNotificationEPNS_17LocalNotificationE
	.line 155
	call &__ZN12Notification19NotificationManager11getInstanceEv
	ld   r0,[fr,-24]
	ld   i0,r14
	ld   i1,[r0,1532]
	call &__ZN12Notification19NotificationManager25scheduleLocalNotificationEPNS_17LocalNotificationE
L62:
	ld   r14,fr
	add  r14,#0xffffffa4
	ld   i0,r14
	call &__ZN5STimeD1Ev
	ld   r14,fr
	add  r14,#0xffffffa0
	ld   i0,r14
	call &__ZN6MAUtil11BasicStringIcED1Ev
L61:
	.dlab LBE39
	.dlab LBE38
	.line 159
	ld   r14,[fr,-24]
	add  r14,#0x4fc
	ld   r0,fr
	add  r0,#0xffffffc4
	ld   i0,r14
	ld   i1,r0
	call &__ZN6MAUtil3MapIiPN8NativeUI16HorizontalLayoutEEixERKi
	ld   d1,r14
	ld   i0,#0x3c
	call &__Znwm
	ld   d0,r14
	ld   i0,d0
	call &__ZN8NativeUI16HorizontalLayoutC1Ev
	ld   [d1],d0
	.line 160
	ld   r14,[fr,-24]
	add  r14,#0x5a4
	ld   r0,fr
	add  r0,#0xffffffc4
	ld   i0,r14
	ld   i1,r0
	call &__ZN6MAUtil3MapIiPN8NativeUI5LabelEEixERKi
	ld   d2,r14
	ld   r14,[fr,-24]
	add  r14,#0x4c4
	ld   r0,fr
	add  r0,#0xffffffc4
	ld   i0,r14
	ld   i1,r0
	call &__ZN6MAUtil3MapIiNS_11BasicStringIcEEEixERKi
	ld   r0,r14
	ld   r14,fr
	add  r14,#0xffffff94
	ld   i0,r14
	ld   i1,r0
	call &__ZN6MAUtil11BasicStringIcEC1ERKS1_
	ld   d1,fr
	add  d1,#0xffffff94
	ld   i0,#0x30
	call &__Znwm
	ld   d0,r14
	ld   i0,d0
	ld   i1,d1
	call &__ZN8NativeUI5LabelC1EN6MAUtil11BasicStringIcEE
	ld   [d2],d0
	ld   r14,fr
	add  r14,#0xffffff94
	ld   i0,r14
	call &__ZN6MAUtil11BasicStringIcED1Ev
	.line 161
	ld   r14,[fr,-24]
	add  r14,#0x5a4
	ld   r0,fr
	add  r0,#0xffffffc4
	ld   i0,r14
	ld   i1,r0
	call &__ZN6MAUtil3MapIiPN8NativeUI5LabelEEixERKi
	ld   r0,[r14]
	ld   r14,[r0]
	add  r14,#0x78
	ld   r14,[r14]
	ld   i0,r0
	ld   i1,#0x666666
	call r14
	.line 162
	ld   r14,[fr,-24]
	add  r14,#0x5a4
	ld   r0,fr
	add  r0,#0xffffffc4
	ld   i0,r14
	ld   i1,r0
	call &__ZN6MAUtil3MapIiPN8NativeUI5LabelEEixERKi
	ld   r0,[r14]
	ld   r14,[r0]
	add  r14,#0x60
	ld   r14,[r14]
	ld   i0,r0
	ld   i1,#0x6e
	call r14
	.line 163
	ld   r14,[fr,-24]
	add  r14,#0x4fc
	ld   r0,fr
	add  r0,#0xffffffc4
	ld   i0,r14
	ld   i1,r0
	call &__ZN6MAUtil3MapIiPN8NativeUI16HorizontalLayoutEEixERKi
	ld   d0,[r14]
	ld   r14,[fr,-24]
	add  r14,#0x5a4
	ld   r0,fr
	add  r0,#0xffffffc4
	ld   i0,r14
	ld   i1,r0
	call &__ZN6MAUtil3MapIiPN8NativeUI5LabelEEixERKi
	ld   r0,[r14]
	ld   r14,[d0]
	add  r14,#0x34
	ld   r14,[r14]
	ld   i0,d0
	ld   i1,r0
	call r14
	.line 164
	ld   r14,[fr,-24]
	add  r14,#0x56c
	ld   r0,fr
	add  r0,#0xffffffc4
	ld   i0,r14
	ld   i1,r0
	call &__ZN6MAUtil3MapIiPN8NativeUI5LabelEEixERKi
	ld   d2,r14
	ld   d0,fr
	add  d0,#0xffffff98
	ld   r14,fr
	add  r14,#0xffffffa0
	ld   i0,r14
	ld   i1,#LC23
	call &__ZN6MAUtil11BasicStringIcEC1EPKc
	ld   r0,fr
	add  r0,#0xffffffa0
	ld   r14,[fr,-100]
	ld   r14,[r14]
	add  r14,#0x18
	ld   r14,[r14]
	ld   i0,[fr,-100]
	ld   i1,r0
	call r14
	ld   r0,r14
	ld   r14,[r0]
	add  r14,#0x8
	ld   r14,[r14]
	ld   i0,d0
	ld   i1,r0
	call r14
	ld   r14,fr
	add  r14,#0xffffff98
	ld   i0,r14
	call &__ZNK6MAUtil11BasicStringIcE5c_strEv
	ld   r0,r14
	ld   r14,fr
	add  r14,#0xffffff94
	ld   i0,r14
	ld   i1,r0
	call &__ZN6MAUtil11BasicStringIcEC1EPKc
	ld   d1,fr
	add  d1,#0xffffff94
	ld   i0,#0x30
	call &__Znwm
	ld   d0,r14
	ld   i0,d0
	ld   i1,d1
	call &__ZN8NativeUI5LabelC1EN6MAUtil11BasicStringIcEE
	ld   [d2],d0
	ld   r14,fr
	add  r14,#0xffffff94
	ld   i0,r14
	call &__ZN6MAUtil11BasicStringIcED1Ev
	ld   r14,fr
	add  r14,#0xffffff98
	ld   i0,r14
	call &__ZN6MAUtil11BasicStringIcED1Ev
	ld   r14,fr
	add  r14,#0xffffffa0
	ld   i0,r14
	call &__ZN6MAUtil11BasicStringIcED1Ev
	.line 166
	ld   r14,[fr,-24]
	add  r14,#0x4fc
	ld   r0,fr
	add  r0,#0xffffffc4
	ld   i0,r14
	ld   i1,r0
	call &__ZN6MAUtil3MapIiPN8NativeUI16HorizontalLayoutEEixERKi
	ld   d0,[r14]
	ld   r14,[fr,-24]
	add  r14,#0x56c
	ld   r0,fr
	add  r0,#0xffffffc4
	ld   i0,r14
	ld   i1,r0
	call &__ZN6MAUtil3MapIiPN8NativeUI5LabelEEixERKi
	ld   r0,[r14]
	ld   r14,[d0]
	add  r14,#0x34
	ld   r14,[r14]
	ld   i0,d0
	ld   i1,r0
	call r14
	.line 167
	ld   r14,[fr,-24]
	add  r14,#0x534
	ld   r0,fr
	add  r0,#0xffffffc4
	ld   i0,r14
	ld   i1,r0
	call &__ZN6MAUtil3MapIiPN8NativeUI12ListViewItemEEixERKi
	ld   d1,r14
	ld   i0,#0x30
	call &__Znwm
	ld   d0,r14
	ld   i0,d0
	call &__ZN8NativeUI12ListViewItemC1Ev
	ld   [d1],d0
	.line 168
	ld   r14,[fr,-24]
	add  r14,#0x534
	ld   r0,fr
	add  r0,#0xffffffc4
	ld   i0,r14
	ld   i1,r0
	call &__ZN6MAUtil3MapIiPN8NativeUI12ListViewItemEEixERKi
	ld   d0,[r14]
	ld   r14,[fr,-24]
	add  r14,#0x4fc
	ld   r0,fr
	add  r0,#0xffffffc4
	ld   i0,r14
	ld   i1,r0
	call &__ZN6MAUtil3MapIiPN8NativeUI16HorizontalLayoutEEixERKi
	ld   r0,[r14]
	ld   r14,[d0]
	add  r14,#0x34
	ld   r14,[r14]
	ld   i0,d0
	ld   i1,r0
	call r14
	.line 170
	ld   r14,[fr,-24]
	add  r14,#0x534
	ld   r0,fr
	add  r0,#0xffffffc4
	ld   i0,r14
	ld   i1,r0
	call &__ZN6MAUtil3MapIiPN8NativeUI12ListViewItemEEixERKi
	ld   r1,[r14]
	ld   r14,[fr,-24]
	ld   r14,[r14,1156]
	ld   r14,[r14]
	add  r14,#0x34
	ld   r0,[fr,-24]
	ld   r14,[r14]
	ld   i0,[r0,1156]
	ld   i1,r1
	call r14
	.dlab LBE37
	.dlab LBE36
	.line 112
	ld   r14,[fr,-60]
	add  r14,#0x1
	ld   [fr,-60],r14
	jp   #L58
L59:
	.dlab LBE35
	.line 173
	ld   r14,[fr,-24]
	add  r14,#0x5e0
	ld   r0,fr
	add  r0,#0xffffffc8
	ld   i0,r14
	ld   i1,r0
	call &__ZN5STimeaSERKS_
	.line 174
	ld   r14,[fr,-24]
	ld.b r0,[r14,1145]
	and  r0,#0xff  ; zero extend
	ld   r14,#0x0
	jc   eq,r0,r14,#L65
	.line 175
	ld   r14,[fr,-24]
	ld   r0,#0x0
	ld.b [r14,1145],r0
L65:
	.line 177
	ld   r14,[fr,-24]
	ld   i0,[fr,-24]
	ld   i1,[r14,1500]
	call &__ZN8NativeUI6Screen13setMainWidgetEPNS_6WidgetE
L54:
	.dlab LBE33
	.dlab LBE32
	ld   r14,fr
	add  r14,#0xffffffc8
	ld   i0,r14
	call &__ZN5STimeD1Ev
	.dlab LBE29
	.dlab LBE28
	.line 179
	add  sp,#0x5c
	pop  rt,d2
	ret
	.stabs	"lastSendAlertTmp:(90,1)",128,0,94,-56
	.stabn	192,0,0,LBB29-__ZN11TrackingTab22parseJSONTrackingAlertEPN6MAUtil7YAJLDom5ValueE
	.stabs	"valueTmp0:(99,35)",128,0,97,-60
	.stabs	"dateTmp:(5,1)",128,0,98,-64
	.stabn	192,0,0,LBB31-__ZN11TrackingTab22parseJSONTrackingAlertEPN6MAUtil7YAJLDom5ValueE
	.stabn	224,0,0,LBE31-__ZN11TrackingTab22parseJSONTrackingAlertEPN6MAUtil7YAJLDom5ValueE
	.stabs	"idx1:(0,3)",128,0,107,-60
	.stabn	192,0,0,LBB34-__ZN11TrackingTab22parseJSONTrackingAlertEPN6MAUtil7YAJLDom5ValueE
	.stabn	224,0,0,LBE34-__ZN11TrackingTab22parseJSONTrackingAlertEPN6MAUtil7YAJLDom5ValueE
	.stabs	"idx:(0,3)",128,0,112,-60
	.stabn	192,0,0,LBB35-__ZN11TrackingTab22parseJSONTrackingAlertEPN6MAUtil7YAJLDom5ValueE
	.stabs	"valueTmp:(99,35)",128,0,113,-100
	.stabn	192,0,0,LBB37-__ZN11TrackingTab22parseJSONTrackingAlertEPN6MAUtil7YAJLDom5ValueE
	.stabs	"dateTmp1:(5,1)",128,0,129,-96
	.stabs	"lastSendAlertTmp1:(90,1)",128,0,130,-92
	.stabn	192,0,0,LBB39-__ZN11TrackingTab22parseJSONTrackingAlertEPN6MAUtil7YAJLDom5ValueE
	.stabn	224,0,0,LBE39-__ZN11TrackingTab22parseJSONTrackingAlertEPN6MAUtil7YAJLDom5ValueE
	.stabn	224,0,0,LBE37-__ZN11TrackingTab22parseJSONTrackingAlertEPN6MAUtil7YAJLDom5ValueE
	.stabn	224,0,0,LBE35-__ZN11TrackingTab22parseJSONTrackingAlertEPN6MAUtil7YAJLDom5ValueE
	.stabn	224,0,0,LBE29-__ZN11TrackingTab22parseJSONTrackingAlertEPN6MAUtil7YAJLDom5ValueE
Lscope20:
	.stabs	"_ZN5STimeaSERKS_:f(90,3)",36,0,99,__ZN5STimeaSERKS_
	.stabs	"this:p(0,28)",160,0,19,-12
	.stabs	"_ctor_arg:p(90,5)",160,0,19,-16

.func __ZN5STimeaSERKS_, 2, int
	.line 99
	push rt,fr
	sub  sp,#0x8
	ld   fr,sp
	add  fr,#0x10
	ld   [fr,-12],i0
	ld   [fr,-16],i1
	.dlab LBB40
	.line 99
	ld   r0,[fr,-12]
	ld   r14,[fr,-16]
	ld   r14,[r14]
	ld   [r0],r14
	ld   r0,[fr,-12]
	ld   r14,[fr,-16]
	ld   r14,[r14,4]
	ld   [r0,4],r14
	ld   r0,[fr,-12]
	ld   r14,[fr,-16]
	ld   r14,[r14,8]
	ld   [r0,8],r14
	ld   r0,[fr,-12]
	ld   r14,[fr,-16]
	ld   r14,[r14,12]
	ld   [r0,12],r14
	ld   r0,[fr,-12]
	ld   r14,[fr,-16]
	ld   r14,[r14,16]
	ld   [r0,16],r14
	ld   r14,[fr,-12]
	add  r14,#0x14
	ld   r0,[fr,-16]
	add  r0,#0x14
	ld   i0,r14
	ld   i1,r0
	call &__ZN6MAUtil11BasicStringIcEaSERKS1_
	ld   r0,[fr,-12]
	ld   r14,[fr,-16]
	ld   r14,[r14,24]
	ld   [r0,24],r14
	ld   r14,[fr,-12]
	.dlab LBE40
	add  sp,#0x8
	pop  rt,fr
	ret
Lscope21:
	.stabs	"_ZN11TrackingTab8createUIEv:F(0,6)",36,0,181,__ZN11TrackingTab8createUIEv
	.stabs	"this:p(0,25)",160,0,181,-20
	.global	__ZN11TrackingTab8createUIEv

.func __ZN11TrackingTab8createUIEv, 1, void
	.line 181
	push rt,d1
	sub  sp,#0xc
	ld   fr,sp
	add  fr,#0x1c
	ld   [fr,-20],i0
	.dlab LBB41
	.dlab LBB42
	.line 182
	ld   r14,[fr,-20]
	ld   r0,#0x1
	ld.b [r14,1145],r0
	.line 183
	ld   r14,fr
	add  r14,#0xffffffe8
	ld   i0,r14
	ld   i1,#LC8
	call &__ZN6MAUtil11BasicStringIcEC1EPKc
	.line 184
	ld   r14,fr
	add  r14,#0xffffffe4
	ld   i0,r14
	ld   i1,#LC9
	call &__ZN6MAUtil11BasicStringIcEC1EPKc
	ld   r0,fr
	add  r0,#0xffffffe4
	ld   r14,fr
	add  r14,#0xffffffe8
	ld   i0,r14
	ld   i1,r0
	call &__ZN6MAUtil11BasicStringIcEpLERKS1_
	ld   r14,fr
	add  r14,#0xffffffe4
	ld   i0,r14
	call &__ZN6MAUtil11BasicStringIcED1Ev
	.line 186
	ld   r14,fr
	add  r14,#0xffffffe4
	ld   i0,r14
	ld   i1,#LC10
	call &__ZN6MAUtil11BasicStringIcEC1EPKc
	ld   r0,fr
	add  r0,#0xffffffe4
	ld   r14,fr
	add  r14,#0xffffffe8
	ld   i0,r14
	ld   i1,r0
	call &__ZN6MAUtil11BasicStringIcEpLERKS1_
	ld   r14,fr
	add  r14,#0xffffffe4
	ld   i0,r14
	call &__ZN6MAUtil11BasicStringIcED1Ev
	.line 187
	ld   r14,fr
	add  r14,#0xffffffe4
	ld   i0,r14
	ld   i1,#LC11
	call &__ZN6MAUtil11BasicStringIcEC1EPKc
	ld   r0,fr
	add  r0,#0xffffffe4
	ld   r14,fr
	add  r14,#0xffffffe8
	ld   i0,r14
	ld   i1,r0
	call &__ZN6MAUtil11BasicStringIcEpLERKS1_
	ld   r14,fr
	add  r14,#0xffffffe4
	ld   i0,r14
	call &__ZN6MAUtil11BasicStringIcED1Ev
	.line 188
	ld   r14,fr
	add  r14,#0xffffffe8
	ld   i0,r14
	call &__ZNK6MAUtil11BasicStringIcE5c_strEv
	ld   i0,r14
	call &_lprintfln
	.line 190
	ld   r14,fr
	add  r14,#0xffffffe4
	ld   r0,fr
	add  r0,#0xffffffe8
	ld   i0,r14
	ld   i1,r0
	call &__ZN6MAUtil11BasicStringIcEC1ERKS1_
	ld   r14,fr
	add  r14,#0xffffffe4
	ld   i0,[fr,-20]
	ld   i1,r14
	ld   i2,#0x0
	call &__ZN11TrackingTab10connectUrlEN6MAUtil11BasicStringIcEENS_11eTrakingTabE
	ld   r14,fr
	add  r14,#0xffffffe4
	ld   i0,r14
	call &__ZN6MAUtil11BasicStringIcED1Ev
	.line 191
	ld   d1,[fr,-20]
	ld   i0,#0x3c
	call &__Znwm
	ld   d0,r14
	ld   i0,d0
	call &__ZN8NativeUI14VerticalLayoutC1Ev
	ld   [d1,1500],d0
	.line 193
	ld   r14,[fr,-20]
	ld   r14,[r14,1500]
	ld   r14,[r14]
	add  r14,#0x68
	ld   r0,[fr,-20]
	ld   r14,[r14]
	ld   i0,[r0,1500]
	call r14
	.line 194
	ld   r14,[fr,-20]
	ld   r14,[r14,1500]
	ld   r14,[r14]
	add  r14,#0x6c
	ld   r0,[fr,-20]
	ld   r14,[r14]
	ld   i0,[r0,1500]
	call r14
	.line 197
	ld   r14,[fr,-20]
	ld   i0,[fr,-20]
	ld   i1,[r14,1500]
	call &__ZN8NativeUI6Screen13setMainWidgetEPNS_6WidgetE
	.line 206
	ld   d1,[fr,-20]
	ld   i0,#0x3c
	call &__Znwm
	ld   d0,r14
	ld   i0,d0
	ld   i1,#0x0
	ld   i2,#0x0
	call &__ZN8NativeUI8ListViewC1ENS_12ListViewTypeENS_13ListViewStyleE
	ld   [d1,1156],d0
	.line 207
	ld   r14,[fr,-20]
	ld   r14,[r14,1500]
	ld   r14,[r14]
	add  r14,#0x34
	ld   r0,[fr,-20]
	ld   r1,[fr,-20]
	ld   r14,[r14]
	ld   i0,[r0,1500]
	ld   i1,[r1,1156]
	call r14
	ld   r14,fr
	add  r14,#0xffffffe8
	ld   i0,r14
	call &__ZN6MAUtil11BasicStringIcED1Ev
	.dlab LBE42
	.dlab LBE41
	.line 209
	add  sp,#0xc
	pop  rt,d1
	ret
	.stabs	"urlTmp:(5,1)",128,0,183,-24
	.stabn	192,0,0,LBB42-__ZN11TrackingTab8createUIEv
	.stabn	224,0,0,LBE42-__ZN11TrackingTab8createUIEv
Lscope22:
.data
LC26:
	.ascii "connectUrl\0"
LC27:
	.ascii "D\303\251j\303\240 connect\303\251: %d\0"
.code
	.stabs	"_ZN11TrackingTab10connectUrlEN6MAUtil11BasicStringIcEENS_11eTrakingTabE:F(0,6)",36,0,211,__ZN11TrackingTab10connectUrlEN6MAUtil11BasicStringIcEENS_11eTrakingTabE
	.stabs	"this:p(0,25)",160,0,211,-12
	.stabs	"url:v(5,1)",160,0,211,-20
	.stabs	"fct:p(1,1)",160,0,211,-16
	.global	__ZN11TrackingTab10connectUrlEN6MAUtil11BasicStringIcEENS_11eTrakingTabE

.func __ZN11TrackingTab10connectUrlEN6MAUtil11BasicStringIcEENS_11eTrakingTabE, 3, void
	.line 211
	push rt,fr
	sub  sp,#0x10
	ld   fr,sp
	add  fr,#0x18
	ld   [fr,-12],i0
	ld   [fr,-20],i1
	ld   [fr,-16],i2
	.dlab LBB43
	.line 222
	ld   i0,#LC26
	call &_lprintfln
	.line 223
	ld   r14,[fr,-12]
	ld.b r0,[r14,1144]
	and  r0,#0xff  ; zero extend
	ld   r14,#0x0
	jc   ne,r0,r14,#L69
	.line 224
	ld   r14,[fr,-12]
	ld   r0,#0x1
	ld.b [r14,1144],r0
	.line 225
	ld   r14,[fr,-12]
	ld   r0,[fr,-16]
	ld   [r14,116],r0
	.line 226
	ld   i0,[fr,-20]
	call &__ZNK6MAUtil11BasicStringIcE5c_strEv
	ld   r0,r14
	ld   r14,[fr,-12]
	add  r14,#0x3c
	ld   i0,r14
	ld   i1,r0
	call &__ZN8Wormhole23HighLevelHttpConnection3getEPKc
	jp   #L68
L69:
	.line 228
	ld   r14,[fr,-12]
	ld   r14,[r14,116]
	ld   [sp],r14
	ld   i0,#LC27
	call &_lprintfln
L68:
	.dlab LBE43
	.line 230
	add  sp,#0x10
	pop  rt,fr
	ret
Lscope23:
	.stabs	"_ZN6MAUtil7CompareIKiEEiRKT_S4_:f(0,3)",36,0,47,__ZN6MAUtil7CompareIKiEEiRKT_S4_
	.stabs	"a:p(1,12)",160,0,47,-12
	.stabs	"b:p(1,12)",160,0,47,-16

.func __ZN6MAUtil7CompareIKiEEiRKT_S4_, 2, int
	.stabs	"c:/MoSync/include/MAUtil/collection_common.h",132,0,0,Ltext13
Ltext13:
	.line 47
	push rt,fr
	sub  sp,#0xc
	ld   fr,sp
	add  fr,#0x14
	ld   [fr,-12],i0
	ld   [fr,-16],i1
	.dlab LBB44
	.line 48
	ld   r14,[fr,-12]
	ld   r0,[fr,-16]
	ld   r1,[r14]
	ld   r14,[r0]
	jc   ge,r1,r14,#L72
	.line 49
	ld   r14,#0xffffffff
	ld   [fr,-20],r14
	jp   #L71
L72:
	.line 50
	ld   r14,[fr,-12]
	ld   r0,[fr,-16]
	ld   r1,[r14]
	ld   r14,[r0]
	jc   ne,r1,r14,#L74
	.line 51
	ld   r14,#0x0
	ld   [fr,-20],r14
	jp   #L71
L74:
	.line 53
	ld   r14,#0x1
	ld   [fr,-20],r14
L71:
	.dlab LBE44
	ld   r14,[fr,-20]
	add  sp,#0xc
	pop  rt,fr
	ret
Lscope24:
	.stabs	"Pair<const int,MAUtil::BasicString<char> >:Tt(1,30)=s8first:(1,13),0,32;second:(5,1),32,32;__base_ctor::(0,33)=#(1,30),(0,6),(0,34)=*(1,30),(0,6);:_ZN6MAUtil4PairIKiNS_11BasicStringIcEEEC2Ev;2A.;__comp_ctor::(0,33):_ZN6MAUtil4PairIKiNS_11BasicStringIcEEEC1Ev;2A.;__base_ctor::(0,35)=#(1,30),(0,6),(0,34),(1,12),(13,38),(0,6);:_ZN6MAUtil4PairIKiNS_11BasicStringIcEEEC2ERS1_RKS3_;2A.;__comp_ctor::(0,35):_ZN6MAUtil4PairIKiNS_11BasicStringIcEEEC1ERS1_RKS3_;2A.;operator=::(0,36)=#(1,30),(0,37)=&(1,30),(0,34),(1,28),(0,6);:_ZN6MAUtil4PairIKiNS_11BasicStringIcEEEaSERKS4_;2A.;__base_ctor::(0,38)=#(1,30),(0,6),(0,34),(1,28),(0,6);:_ZN6MAUtil4PairIKiNS_11BasicStringIcEEEC2ERKS4_;2A.;__comp_ctor::(0,38):_ZN6MAUtil4PairIKiNS_11BasicStringIcEEEC1ERKS4_;2A.;__base_dtor::(0,33):_ZN6MAUtil4PairIKiNS_11BasicStringIcEEED2Ev;2A.;__comp_dtor::(0,33):_ZN6MAUtil4PairIKiNS_11BasicStringIcEEED1Ev;2A.;;",128,0,61,0
	.stabs	"_ZN6MAUtil3MapIiNS_11BasicStringIcEEEC1EPFiRKiS5_E:f(0,6)",36,0,43,__ZN6MAUtil3MapIiNS_11BasicStringIcEEEC1EPFiRKiS5_E
	.stabs	"this:p(0,29)",160,0,43,-12
	.stabs	"cf:p(1,23)",160,0,43,-16

.func __ZN6MAUtil3MapIiNS_11BasicStringIcEEEC1EPFiRKiS5_E, 2, void
	.stabs	"c:/MoSync/include/MAUtil/Map.h",132,0,0,Ltext14
Ltext14:
	.line 43
	push rt,fr
	sub  sp,#0x8
	ld   fr,sp
	add  fr,#0x10
	ld   [fr,-12],i0
	ld   [fr,-16],i1
	.dlab LBB45
	.line 43
	ld   i0,[fr,-12]
	ld   i1,[fr,-16]
	ld   i2,#0x0
	call &__ZN6MAUtil10DictionaryIKiNS_4PairIS1_NS_11BasicStringIcEEEEEC2EPFiRS1_S7_Ei
	.dlab LBE45
	add  sp,#0x8
	pop  rt,fr
	ret
Lscope25:
	.stabs	"_ZN6MAUtil10DictionaryIKiNS_4PairIS1_NS_11BasicStringIcEEEEED2Ev:f(0,6)",36,0,74,__ZN6MAUtil10DictionaryIKiNS_4PairIS1_NS_11BasicStringIcEEEEED2Ev
	.stabs	"this:p(0,39)=k(1,4)",160,0,74,-12

.func __ZN6MAUtil10DictionaryIKiNS_4PairIS1_NS_11BasicStringIcEEEEED2Ev, 1, void
	.stabs	"c:/MoSync/include/MAUtil/Dictionary_impl.h",132,0,0,Ltext15
Ltext15:
	.line 74
	push rt,fr
	sub  sp,#0x4
	ld   fr,sp
	add  fr,#0xc
	ld   [fr,-12],i0
	.dlab LBB46
	.line 75
	ld   i0,[fr,-12]
	call &__ZN6MAUtil10DictionaryIKiNS_4PairIS1_NS_11BasicStringIcEEEEE5clearEv
	.dlab LBE46
	add  sp,#0x4
	pop  rt,fr
	ret
Lscope26:
	.stabs	"Pair<const int,NativeUI::HorizontalLayout*>:Tt(1,71)=s8first:(1,13),0,32;second:(1,78),32,32;__base_ctor::(0,40)=#(1,71),(0,6),(0,41)=*(1,71),(0,6);:_ZN6MAUtil4PairIKiPN8NativeUI16HorizontalLayoutEEC2Ev;2A.;__comp_ctor::(0,40):_ZN6MAUtil4PairIKiPN8NativeUI16HorizontalLayoutEEC1Ev;2A.;__base_ctor::(0,42)=#(1,71),(0,6),(0,41),(1,12),(1,76),(0,6);:_ZN6MAUtil4PairIKiPN8NativeUI16HorizontalLayoutEEC2ERS1_RKS4_;2A.;__comp_ctor::(0,42):_ZN6MAUtil4PairIKiPN8NativeUI16HorizontalLayoutEEC1ERS1_RKS4_;2A.;operator=::(0,43)=#(1,71),(0,44)=&(1,71),(0,41),(1,69),(0,6);:_ZN6MAUtil4PairIKiPN8NativeUI16HorizontalLayoutEEaSERKS5_;2A.;__base_ctor::(0,45)=#(1,71),(0,6),(0,41),(1,69),(0,6);:_ZN6MAUtil4PairIKiPN8NativeUI16HorizontalLayoutEEC2ERKS5_;2A.;__comp_ctor::(0,45):_ZN6MAUtil4PairIKiPN8NativeUI16HorizontalLayoutEEC1ERKS5_;2A.;;",128,0,61,0
	.stabs	"_ZN6MAUtil3MapIiPN8NativeUI16HorizontalLayoutEEC1EPFiRKiS6_E:f(0,6)",36,0,43,__ZN6MAUtil3MapIiPN8NativeUI16HorizontalLayoutEEC1EPFiRKiS6_E
	.stabs	"this:p(0,30)",160,0,43,-12
	.stabs	"cf:p(1,23)",160,0,43,-16

.func __ZN6MAUtil3MapIiPN8NativeUI16HorizontalLayoutEEC1EPFiRKiS6_E, 2, void
	.stabs	"c:/MoSync/include/MAUtil/Map.h",132,0,0,Ltext16
Ltext16:
	.line 43
	push rt,fr
	sub  sp,#0x8
	ld   fr,sp
	add  fr,#0x10
	ld   [fr,-12],i0
	ld   [fr,-16],i1
	.dlab LBB47
	.line 43
	ld   i0,[fr,-12]
	ld   i1,[fr,-16]
	ld   i2,#0x0
	call &__ZN6MAUtil10DictionaryIKiNS_4PairIS1_PN8NativeUI16HorizontalLayoutEEEEC2EPFiRS1_S8_Ei
	.dlab LBE47
	add  sp,#0x8
	pop  rt,fr
	ret
Lscope27:
	.stabs	"_ZN6MAUtil10DictionaryIKiNS_4PairIS1_PN8NativeUI16HorizontalLayoutEEEED2Ev:f(0,6)",36,0,74,__ZN6MAUtil10DictionaryIKiNS_4PairIS1_PN8NativeUI16HorizontalLayoutEEEED2Ev
	.stabs	"this:p(0,46)=k(1,49)",160,0,74,-12

.func __ZN6MAUtil10DictionaryIKiNS_4PairIS1_PN8NativeUI16HorizontalLayoutEEEED2Ev, 1, void
	.stabs	"c:/MoSync/include/MAUtil/Dictionary_impl.h",132,0,0,Ltext17
Ltext17:
	.line 74
	push rt,fr
	sub  sp,#0x4
	ld   fr,sp
	add  fr,#0xc
	ld   [fr,-12],i0
	.dlab LBB48
	.line 75
	ld   i0,[fr,-12]
	call &__ZN6MAUtil10DictionaryIKiNS_4PairIS1_PN8NativeUI16HorizontalLayoutEEEE5clearEv
	.dlab LBE48
	add  sp,#0x4
	pop  rt,fr
	ret
Lscope28:
	.stabs	"Pair<const int,NativeUI::ListViewItem*>:Tt(1,116)=s8first:(1,13),0,32;second:(1,123),32,32;__base_ctor::(0,47)=#(1,116),(0,6),(0,48)=*(1,116),(0,6);:_ZN6MAUtil4PairIKiPN8NativeUI12ListViewItemEEC2Ev;2A.;__comp_ctor::(0,47):_ZN6MAUtil4PairIKiPN8NativeUI12ListViewItemEEC1Ev;2A.;__base_ctor::(0,49)=#(1,116),(0,6),(0,48),(1,12),(1,121),(0,6);:_ZN6MAUtil4PairIKiPN8NativeUI12ListViewItemEEC2ERS1_RKS4_;2A.;__comp_ctor::(0,49):_ZN6MAUtil4PairIKiPN8NativeUI12ListViewItemEEC1ERS1_RKS4_;2A.;operator=::(0,50)=#(1,116),(0,51)=&(1,116),(0,48),(1,114),(0,6);:_ZN6MAUtil4PairIKiPN8NativeUI12ListViewItemEEaSERKS5_;2A.;__base_ctor::(0,52)=#(1,116),(0,6),(0,48),(1,114),(0,6);:_ZN6MAUtil4PairIKiPN8NativeUI12ListViewItemEEC2ERKS5_;2A.;__comp_ctor::(0,52):_ZN6MAUtil4PairIKiPN8NativeUI12ListViewItemEEC1ERKS5_;2A.;;",128,0,61,0
	.stabs	"_ZN6MAUtil3MapIiPN8NativeUI12ListViewItemEEC1EPFiRKiS6_E:f(0,6)",36,0,43,__ZN6MAUtil3MapIiPN8NativeUI12ListViewItemEEC1EPFiRKiS6_E
	.stabs	"this:p(0,31)",160,0,43,-12
	.stabs	"cf:p(1,23)",160,0,43,-16

.func __ZN6MAUtil3MapIiPN8NativeUI12ListViewItemEEC1EPFiRKiS6_E, 2, void
	.stabs	"c:/MoSync/include/MAUtil/Map.h",132,0,0,Ltext18
Ltext18:
	.line 43
	push rt,fr
	sub  sp,#0x8
	ld   fr,sp
	add  fr,#0x10
	ld   [fr,-12],i0
	ld   [fr,-16],i1
	.dlab LBB49
	.line 43
	ld   i0,[fr,-12]
	ld   i1,[fr,-16]
	ld   i2,#0x0
	call &__ZN6MAUtil10DictionaryIKiNS_4PairIS1_PN8NativeUI12ListViewItemEEEEC2EPFiRS1_S8_Ei
	.dlab LBE49
	add  sp,#0x8
	pop  rt,fr
	ret
Lscope29:
	.stabs	"_ZN6MAUtil10DictionaryIKiNS_4PairIS1_PN8NativeUI12ListViewItemEEEED2Ev:f(0,6)",36,0,74,__ZN6MAUtil10DictionaryIKiNS_4PairIS1_PN8NativeUI12ListViewItemEEEED2Ev
	.stabs	"this:p(0,53)=k(1,94)",160,0,74,-12

.func __ZN6MAUtil10DictionaryIKiNS_4PairIS1_PN8NativeUI12ListViewItemEEEED2Ev, 1, void
	.stabs	"c:/MoSync/include/MAUtil/Dictionary_impl.h",132,0,0,Ltext19
Ltext19:
	.line 74
	push rt,fr
	sub  sp,#0x4
	ld   fr,sp
	add  fr,#0xc
	ld   [fr,-12],i0
	.dlab LBB50
	.line 75
	ld   i0,[fr,-12]
	call &__ZN6MAUtil10DictionaryIKiNS_4PairIS1_PN8NativeUI12ListViewItemEEEE5clearEv
	.dlab LBE50
	add  sp,#0x4
	pop  rt,fr
	ret
Lscope30:
	.stabs	"Pair<const int,NativeUI::Label*>:Tt(1,161)=s8first:(1,13),0,32;second:(1,168),32,32;__base_ctor::(0,54)=#(1,161),(0,6),(0,55)=*(1,161),(0,6);:_ZN6MAUtil4PairIKiPN8NativeUI5LabelEEC2Ev;2A.;__comp_ctor::(0,54):_ZN6MAUtil4PairIKiPN8NativeUI5LabelEEC1Ev;2A.;__base_ctor::(0,56)=#(1,161),(0,6),(0,55),(1,12),(1,166),(0,6);:_ZN6MAUtil4PairIKiPN8NativeUI5LabelEEC2ERS1_RKS4_;2A.;__comp_ctor::(0,56):_ZN6MAUtil4PairIKiPN8NativeUI5LabelEEC1ERS1_RKS4_;2A.;operator=::(0,57)=#(1,161),(0,58)=&(1,161),(0,55),(1,159),(0,6);:_ZN6MAUtil4PairIKiPN8NativeUI5LabelEEaSERKS5_;2A.;__base_ctor::(0,59)=#(1,161),(0,6),(0,55),(1,159),(0,6);:_ZN6MAUtil4PairIKiPN8NativeUI5LabelEEC2ERKS5_;2A.;__comp_ctor::(0,59):_ZN6MAUtil4PairIKiPN8NativeUI5LabelEEC1ERKS5_;2A.;;",128,0,61,0
	.stabs	"_ZN6MAUtil3MapIiPN8NativeUI5LabelEEC1EPFiRKiS6_E:f(0,6)",36,0,43,__ZN6MAUtil3MapIiPN8NativeUI5LabelEEC1EPFiRKiS6_E
	.stabs	"this:p(0,32)",160,0,43,-12
	.stabs	"cf:p(1,23)",160,0,43,-16

.func __ZN6MAUtil3MapIiPN8NativeUI5LabelEEC1EPFiRKiS6_E, 2, void
	.stabs	"c:/MoSync/include/MAUtil/Map.h",132,0,0,Ltext20
Ltext20:
	.line 43
	push rt,fr
	sub  sp,#0x8
	ld   fr,sp
	add  fr,#0x10
	ld   [fr,-12],i0
	ld   [fr,-16],i1
	.dlab LBB51
	.line 43
	ld   i0,[fr,-12]
	ld   i1,[fr,-16]
	ld   i2,#0x0
	call &__ZN6MAUtil10DictionaryIKiNS_4PairIS1_PN8NativeUI5LabelEEEEC2EPFiRS1_S8_Ei
	.dlab LBE51
	add  sp,#0x8
	pop  rt,fr
	ret
Lscope31:
	.stabs	"_ZN6MAUtil10DictionaryIKiNS_4PairIS1_PN8NativeUI5LabelEEEED2Ev:f(0,6)",36,0,74,__ZN6MAUtil10DictionaryIKiNS_4PairIS1_PN8NativeUI5LabelEEEED2Ev
	.stabs	"this:p(0,60)=k(1,139)",160,0,74,-12

.func __ZN6MAUtil10DictionaryIKiNS_4PairIS1_PN8NativeUI5LabelEEEED2Ev, 1, void
	.stabs	"c:/MoSync/include/MAUtil/Dictionary_impl.h",132,0,0,Ltext21
Ltext21:
	.line 74
	push rt,fr
	sub  sp,#0x4
	ld   fr,sp
	add  fr,#0xc
	ld   [fr,-12],i0
	.dlab LBB52
	.line 75
	ld   i0,[fr,-12]
	call &__ZN6MAUtil10DictionaryIKiNS_4PairIS1_PN8NativeUI5LabelEEEE5clearEv
	.dlab LBE52
	add  sp,#0x4
	pop  rt,fr
	ret
Lscope32:
	.stabs	"_ZNK6MAUtil10DictionaryIKiNS_4PairIS1_PN8NativeUI12ListViewItemEEEE4sizeEv:f(2,1)",36,0,136,__ZNK6MAUtil10DictionaryIKiNS_4PairIS1_PN8NativeUI12ListViewItemEEEE4sizeEv
	.stabs	"this:p(0,61)=k(1,104)",160,0,136,-12

.func __ZNK6MAUtil10DictionaryIKiNS_4PairIS1_PN8NativeUI12ListViewItemEEEE4sizeEv, 1, int
	.line 136
	push rt,fr
	sub  sp,#0x4
	ld   fr,sp
	add  fr,#0xc
	ld   [fr,-12],i0
	.dlab LBB53
	.line 137
	ld   r14,[fr,-12]
	ld   r14,[r14,24]
	.dlab LBE53
	add  sp,#0x4
	pop  rt,fr
	ret
Lscope33:
	.stabs	"Dictionary<const int,MAUtil::Pair<const int, NativeUI::ListViewItem*> >::DictNode:Tt(0,62)=s32!1,020,(16,3);data:(1,116),192,64;__base_ctor::(0,63)=#(0,62),(0,6),(0,64)=*(0,62),(1,116),(0,6);:_ZN6MAUtil10DictionaryIKiNS_4PairIS1_PN8NativeUI12ListViewItemEEEE8DictNodeC2ES6_;2A.;__comp_ctor::(0,63):_ZN6MAUtil10DictionaryIKiNS_4PairIS1_PN8NativeUI12ListViewItemEEEE8DictNodeC1ES6_;2A.;operator=::(0,65)=#(0,62),(0,66)=&(0,62),(0,64),(0,67)=&(0,68)=k(0,62),(0,6);:_ZN6MAUtil10DictionaryIKiNS_4PairIS1_PN8NativeUI12ListViewItemEEEE8DictNodeaSERKS8_;2A.;__base_ctor::(0,69)=#(0,62),(0,6),(0,64),(0,67),(0,6);:_ZN6MAUtil10DictionaryIKiNS_4PairIS1_PN8NativeUI12ListViewItemEEEE8DictNodeC2ERKS8_;2A.;__comp_ctor::(0,69):_ZN6MAUtil10DictionaryIKiNS_4PairIS1_PN8NativeUI12ListViewItemEEEE8DictNodeC1ERKS8_;2A.;;",128,0,60,0
	.stabs	"_ZN6MAUtil3MapIiPN8NativeUI12ListViewItemEEixERKi:f(1,130)",36,0,51,__ZN6MAUtil3MapIiPN8NativeUI12ListViewItemEEixERKi
	.stabs	"this:p(0,31)",160,0,51,-24
	.stabs	"key:p(1,12)",160,0,51,-28

.func __ZN6MAUtil3MapIiPN8NativeUI12ListViewItemEEixERKi, 2, int
	.stabs	"c:/MoSync/include/MAUtil/Map.h",132,0,0,Ltext22
Ltext22:
	.line 51
	push rt,d2
	sub  sp,#0x18
	ld   fr,sp
	add  fr,#0x2c
	ld   [fr,-24],i0
	ld   [fr,-28],i1
	.dlab LBB54
	.dlab LBB55
	.line 52
	ld   i0,[fr,-24]
	ld   i1,[fr,-28]
	call &_dict_lookup
	ld   [fr,-32],r14
	.dlab LBB56
	.line 53
	ld   r0,[fr,-32]
	ld   r14,#0x0
	jc   ne,r0,r14,#L94
	.dlab LBB57
	.line 54
	ld   r14,fr
	add  r14,#0xffffffd8
	ld   r0,#0x0
	ld   [fr,-44],r0
	ld   r0,fr
	add  r0,#0xffffffd4
	ld   i0,r14
	ld   i1,[fr,-28]
	ld   i2,r0
	call &__ZN6MAUtil4PairIKiPN8NativeUI12ListViewItemEEC1ERS1_RKS4_
	.line 55
	ld   d0,[fr,-40]
	ld   d1,[fr,-36]
	ld   i0,#0x20
	call &__Znwm
	ld   d2,r14
	ld   i0,d2
	ld   i1,d0
	ld   i2,d1
	call &__ZN6MAUtil10DictionaryIKiNS_4PairIS1_PN8NativeUI12ListViewItemEEEE8DictNodeC1ES6_
	ld   [fr,-32],d2
	.line 56
	ld   r14,[fr,-32]
	add  r14,#0x18
	ld   i0,[fr,-24]
	ld   i1,[fr,-32]
	ld   i2,r14
	call &_dict_insert
L94:
	.dlab LBE57
	.dlab LBE56
	.line 58
	ld   r14,[fr,-32]
	add  r14,#0x1c
	.dlab LBE55
	.dlab LBE54
	add  sp,#0x18
	pop  rt,d2
	ret
	.stabs	"node:(0,64)",128,0,52,-32
	.stabn	192,0,0,LBB55-__ZN6MAUtil3MapIiPN8NativeUI12ListViewItemEEixERKi
	.stabs	"p:(1,116)",128,0,54,-40
	.stabn	192,0,0,LBB57-__ZN6MAUtil3MapIiPN8NativeUI12ListViewItemEEixERKi
	.stabn	224,0,0,LBE57-__ZN6MAUtil3MapIiPN8NativeUI12ListViewItemEEixERKi
	.stabn	224,0,0,LBE55-__ZN6MAUtil3MapIiPN8NativeUI12ListViewItemEEixERKi
Lscope34:
	.stabs	"Dictionary<const int,MAUtil::Pair<const int, MAUtil::BasicString<char> > >::DictNode:Tt(0,70)=s32!1,020,(16,3);data:(1,30),192,64;__base_ctor::(0,71)=#(0,70),(0,6),(0,72)=*(0,70),(1,30),(0,6);:_ZN6MAUtil10DictionaryIKiNS_4PairIS1_NS_11BasicStringIcEEEEE8DictNodeC2ES5_;2A.;__comp_ctor::(0,71):_ZN6MAUtil10DictionaryIKiNS_4PairIS1_NS_11BasicStringIcEEEEE8DictNodeC1ES5_;2A.;operator=::(0,73)=#(0,70),(0,74)=&(0,70),(0,72),(0,75)=&(0,76)=k(0,70),(0,6);:_ZN6MAUtil10DictionaryIKiNS_4PairIS1_NS_11BasicStringIcEEEEE8DictNodeaSERKS7_;2A.;__base_ctor::(0,77)=#(0,70),(0,6),(0,72),(0,75),(0,6);:_ZN6MAUtil10DictionaryIKiNS_4PairIS1_NS_11BasicStringIcEEEEE8DictNodeC2ERKS7_;2A.;__comp_ctor::(0,77):_ZN6MAUtil10DictionaryIKiNS_4PairIS1_NS_11BasicStringIcEEEEE8DictNodeC1ERKS7_;2A.;__base_dtor::(0,78)=#(0,70),(0,6),(0,72),(0,6);:_ZN6MAUtil10DictionaryIKiNS_4PairIS1_NS_11BasicStringIcEEEEE8DictNodeD2Ev;2A.;__comp_dtor::(0,78):_ZN6MAUtil10DictionaryIKiNS_4PairIS1_NS_11BasicStringIcEEEEE8DictNodeD1Ev;2A.;;",128,0,60,0
	.stabs	"_ZN6MAUtil3MapIiNS_11BasicStringIcEEEixERKi:f(1,40)",36,0,51,__ZN6MAUtil3MapIiNS_11BasicStringIcEEEixERKi
	.stabs	"this:p(0,29)",160,0,51,-20
	.stabs	"key:p(1,12)",160,0,51,-24

.func __ZN6MAUtil3MapIiNS_11BasicStringIcEEEixERKi, 2, int
	.line 51
	push rt,d1
	sub  sp,#0x20
	ld   fr,sp
	add  fr,#0x30
	ld   [fr,-20],i0
	ld   [fr,-24],i1
	.dlab LBB58
	.dlab LBB59
	.line 52
	ld   i0,[fr,-20]
	ld   i1,[fr,-24]
	call &_dict_lookup
	ld   [fr,-28],r14
	.dlab LBB60
	.line 53
	ld   r0,[fr,-28]
	ld   r14,#0x0
	jc   ne,r0,r14,#L96
	.dlab LBB61
	.line 54
	ld   r14,fr
	add  r14,#0xffffffd8
	ld   i0,r14
	call &__ZN6MAUtil11BasicStringIcEC1Ev
	ld   r0,fr
	add  r0,#0xffffffd8
	ld   r14,fr
	add  r14,#0xffffffdc
	ld   i0,r14
	ld   i1,[fr,-24]
	ld   i2,r0
	call &__ZN6MAUtil4PairIKiNS_11BasicStringIcEEEC1ERS1_RKS3_
	ld   r14,fr
	add  r14,#0xffffffd8
	ld   i0,r14
	call &__ZN6MAUtil11BasicStringIcED1Ev
	.line 55
	ld   r14,fr
	add  r14,#0xffffffd0
	ld   r0,fr
	add  r0,#0xffffffdc
	ld   i0,r14
	ld   i1,r0
	call &__ZN6MAUtil4PairIKiNS_11BasicStringIcEEEC1ERKS4_
	ld   d1,fr
	add  d1,#0xffffffd0
	ld   i0,#0x20
	call &__Znwm
	ld   d0,r14
	ld   i0,d0
	ld   i1,d1
	call &__ZN6MAUtil10DictionaryIKiNS_4PairIS1_NS_11BasicStringIcEEEEE8DictNodeC1ES5_
	ld   [fr,-28],d0
	ld   r14,fr
	add  r14,#0xffffffd0
	ld   i0,r14
	call &__ZN6MAUtil4PairIKiNS_11BasicStringIcEEED1Ev
	.line 56
	ld   r14,[fr,-28]
	add  r14,#0x18
	ld   i0,[fr,-20]
	ld   i1,[fr,-28]
	ld   i2,r14
	call &_dict_insert
	ld   r14,fr
	add  r14,#0xffffffdc
	ld   i0,r14
	call &__ZN6MAUtil4PairIKiNS_11BasicStringIcEEED1Ev
L96:
	.dlab LBE61
	.dlab LBE60
	.line 58
	ld   r14,[fr,-28]
	add  r14,#0x1c
	.dlab LBE59
	.dlab LBE58
	add  sp,#0x20
	pop  rt,d1
	ret
	.stabs	"node:(0,72)",128,0,52,-28
	.stabn	192,0,0,LBB59-__ZN6MAUtil3MapIiNS_11BasicStringIcEEEixERKi
	.stabs	"p:(1,30)",128,0,54,-36
	.stabn	192,0,0,LBB61-__ZN6MAUtil3MapIiNS_11BasicStringIcEEEixERKi
	.stabn	224,0,0,LBE61-__ZN6MAUtil3MapIiNS_11BasicStringIcEEEixERKi
	.stabn	224,0,0,LBE59-__ZN6MAUtil3MapIiNS_11BasicStringIcEEEixERKi
Lscope35:
	.stabs	"_ZN6MAUtil4PairIKiNS_11BasicStringIcEEED1Ev:f(0,6)",36,0,54,__ZN6MAUtil4PairIKiNS_11BasicStringIcEEED1Ev
	.stabs	"this:p(0,79)=k(0,34)",160,0,61,-12

.func __ZN6MAUtil4PairIKiNS_11BasicStringIcEEED1Ev, 1, void
	.line 54
	push rt,fr
	sub  sp,#0x4
	ld   fr,sp
	add  fr,#0xc
	ld   [fr,-12],i0
	.dlab LBB62
	.line 54
	ld   r14,[fr,-12]
	add  r14,#0x4
	ld   i0,r14
	call &__ZN6MAUtil11BasicStringIcED1Ev
	.dlab LBE62
	add  sp,#0x4
	pop  rt,fr
	ret
Lscope36:
	.stabs	"_ZN6MAUtil4PairIKiNS_11BasicStringIcEEEC1ERKS4_:f(0,6)",36,0,55,__ZN6MAUtil4PairIKiNS_11BasicStringIcEEEC1ERKS4_
	.stabs	"this:p(0,79)",160,0,61,-12
	.stabs	"_ctor_arg:p(1,28)",160,0,61,-16

.func __ZN6MAUtil4PairIKiNS_11BasicStringIcEEEC1ERKS4_, 2, void
	.line 55
	push rt,fr
	sub  sp,#0x8
	ld   fr,sp
	add  fr,#0x10
	ld   [fr,-12],i0
	ld   [fr,-16],i1
	.dlab LBB63
	.line 55
	ld   r0,[fr,-12]
	ld   r14,[fr,-16]
	ld   r14,[r14]
	ld   [r0],r14
	ld   r14,[fr,-12]
	add  r14,#0x4
	ld   r0,[fr,-16]
	add  r0,#0x4
	ld   i0,r14
	ld   i1,r0
	call &__ZN6MAUtil11BasicStringIcEC1ERKS1_
	.dlab LBE63
	add  sp,#0x8
	pop  rt,fr
	ret
Lscope37:
	.stabs	"Dictionary<const int,MAUtil::Pair<const int, NativeUI::HorizontalLayout*> >::DictNode:Tt(0,80)=s32!1,020,(16,3);data:(1,71),192,64;__base_ctor::(0,81)=#(0,80),(0,6),(0,82)=*(0,80),(1,71),(0,6);:_ZN6MAUtil10DictionaryIKiNS_4PairIS1_PN8NativeUI16HorizontalLayoutEEEE8DictNodeC2ES6_;2A.;__comp_ctor::(0,81):_ZN6MAUtil10DictionaryIKiNS_4PairIS1_PN8NativeUI16HorizontalLayoutEEEE8DictNodeC1ES6_;2A.;operator=::(0,83)=#(0,80),(0,84)=&(0,80),(0,82),(0,85)=&(0,86)=k(0,80),(0,6);:_ZN6MAUtil10DictionaryIKiNS_4PairIS1_PN8NativeUI16HorizontalLayoutEEEE8DictNodeaSERKS8_;2A.;__base_ctor::(0,87)=#(0,80),(0,6),(0,82),(0,85),(0,6);:_ZN6MAUtil10DictionaryIKiNS_4PairIS1_PN8NativeUI16HorizontalLayoutEEEE8DictNodeC2ERKS8_;2A.;__comp_ctor::(0,87):_ZN6MAUtil10DictionaryIKiNS_4PairIS1_PN8NativeUI16HorizontalLayoutEEEE8DictNodeC1ERKS8_;2A.;;",128,0,60,0
	.stabs	"_ZN6MAUtil3MapIiPN8NativeUI16HorizontalLayoutEEixERKi:f(1,85)",36,0,51,__ZN6MAUtil3MapIiPN8NativeUI16HorizontalLayoutEEixERKi
	.stabs	"this:p(0,30)",160,0,51,-24
	.stabs	"key:p(1,12)",160,0,51,-28

.func __ZN6MAUtil3MapIiPN8NativeUI16HorizontalLayoutEEixERKi, 2, int
	.line 51
	push rt,d2
	sub  sp,#0x18
	ld   fr,sp
	add  fr,#0x2c
	ld   [fr,-24],i0
	ld   [fr,-28],i1
	.dlab LBB64
	.dlab LBB65
	.line 52
	ld   i0,[fr,-24]
	ld   i1,[fr,-28]
	call &_dict_lookup
	ld   [fr,-32],r14
	.dlab LBB66
	.line 53
	ld   r0,[fr,-32]
	ld   r14,#0x0
	jc   ne,r0,r14,#L102
	.dlab LBB67
	.line 54
	ld   r14,fr
	add  r14,#0xffffffd8
	ld   r0,#0x0
	ld   [fr,-44],r0
	ld   r0,fr
	add  r0,#0xffffffd4
	ld   i0,r14
	ld   i1,[fr,-28]
	ld   i2,r0
	call &__ZN6MAUtil4PairIKiPN8NativeUI16HorizontalLayoutEEC1ERS1_RKS4_
	.line 55
	ld   d0,[fr,-40]
	ld   d1,[fr,-36]
	ld   i0,#0x20
	call &__Znwm
	ld   d2,r14
	ld   i0,d2
	ld   i1,d0
	ld   i2,d1
	call &__ZN6MAUtil10DictionaryIKiNS_4PairIS1_PN8NativeUI16HorizontalLayoutEEEE8DictNodeC1ES6_
	ld   [fr,-32],d2
	.line 56
	ld   r14,[fr,-32]
	add  r14,#0x18
	ld   i0,[fr,-24]
	ld   i1,[fr,-32]
	ld   i2,r14
	call &_dict_insert
L102:
	.dlab LBE67
	.dlab LBE66
	.line 58
	ld   r14,[fr,-32]
	add  r14,#0x1c
	.dlab LBE65
	.dlab LBE64
	add  sp,#0x18
	pop  rt,d2
	ret
	.stabs	"node:(0,82)",128,0,52,-32
	.stabn	192,0,0,LBB65-__ZN6MAUtil3MapIiPN8NativeUI16HorizontalLayoutEEixERKi
	.stabs	"p:(1,71)",128,0,54,-40
	.stabn	192,0,0,LBB67-__ZN6MAUtil3MapIiPN8NativeUI16HorizontalLayoutEEixERKi
	.stabn	224,0,0,LBE67-__ZN6MAUtil3MapIiPN8NativeUI16HorizontalLayoutEEixERKi
	.stabn	224,0,0,LBE65-__ZN6MAUtil3MapIiPN8NativeUI16HorizontalLayoutEEixERKi
Lscope38:
	.stabs	"Dictionary<const int,MAUtil::Pair<const int, NativeUI::Label*> >::DictNode:Tt(0,88)=s32!1,020,(16,3);data:(1,161),192,64;__base_ctor::(0,89)=#(0,88),(0,6),(0,90)=*(0,88),(1,161),(0,6);:_ZN6MAUtil10DictionaryIKiNS_4PairIS1_PN8NativeUI5LabelEEEE8DictNodeC2ES6_;2A.;__comp_ctor::(0,89):_ZN6MAUtil10DictionaryIKiNS_4PairIS1_PN8NativeUI5LabelEEEE8DictNodeC1ES6_;2A.;operator=::(0,91)=#(0,88),(0,92)=&(0,88),(0,90),(0,93)=&(0,94)=k(0,88),(0,6);:_ZN6MAUtil10DictionaryIKiNS_4PairIS1_PN8NativeUI5LabelEEEE8DictNodeaSERKS8_;2A.;__base_ctor::(0,95)=#(0,88),(0,6),(0,90),(0,93),(0,6);:_ZN6MAUtil10DictionaryIKiNS_4PairIS1_PN8NativeUI5LabelEEEE8DictNodeC2ERKS8_;2A.;__comp_ctor::(0,95):_ZN6MAUtil10DictionaryIKiNS_4PairIS1_PN8NativeUI5LabelEEEE8DictNodeC1ERKS8_;2A.;;",128,0,60,0
	.stabs	"_ZN6MAUtil3MapIiPN8NativeUI5LabelEEixERKi:f(1,175)",36,0,51,__ZN6MAUtil3MapIiPN8NativeUI5LabelEEixERKi
	.stabs	"this:p(0,32)",160,0,51,-24
	.stabs	"key:p(1,12)",160,0,51,-28

.func __ZN6MAUtil3MapIiPN8NativeUI5LabelEEixERKi, 2, int
	.line 51
	push rt,d2
	sub  sp,#0x18
	ld   fr,sp
	add  fr,#0x2c
	ld   [fr,-24],i0
	ld   [fr,-28],i1
	.dlab LBB68
	.dlab LBB69
	.line 52
	ld   i0,[fr,-24]
	ld   i1,[fr,-28]
	call &_dict_lookup
	ld   [fr,-32],r14
	.dlab LBB70
	.line 53
	ld   r0,[fr,-32]
	ld   r14,#0x0
	jc   ne,r0,r14,#L104
	.dlab LBB71
	.line 54
	ld   r14,fr
	add  r14,#0xffffffd8
	ld   r0,#0x0
	ld   [fr,-44],r0
	ld   r0,fr
	add  r0,#0xffffffd4
	ld   i0,r14
	ld   i1,[fr,-28]
	ld   i2,r0
	call &__ZN6MAUtil4PairIKiPN8NativeUI5LabelEEC1ERS1_RKS4_
	.line 55
	ld   d0,[fr,-40]
	ld   d1,[fr,-36]
	ld   i0,#0x20
	call &__Znwm
	ld   d2,r14
	ld   i0,d2
	ld   i1,d0
	ld   i2,d1
	call &__ZN6MAUtil10DictionaryIKiNS_4PairIS1_PN8NativeUI5LabelEEEE8DictNodeC1ES6_
	ld   [fr,-32],d2
	.line 56
	ld   r14,[fr,-32]
	add  r14,#0x18
	ld   i0,[fr,-24]
	ld   i1,[fr,-32]
	ld   i2,r14
	call &_dict_insert
L104:
	.dlab LBE71
	.dlab LBE70
	.line 58
	ld   r14,[fr,-32]
	add  r14,#0x1c
	.dlab LBE69
	.dlab LBE68
	add  sp,#0x18
	pop  rt,d2
	ret
	.stabs	"node:(0,90)",128,0,52,-32
	.stabn	192,0,0,LBB69-__ZN6MAUtil3MapIiPN8NativeUI5LabelEEixERKi
	.stabs	"p:(1,161)",128,0,54,-40
	.stabn	192,0,0,LBB71-__ZN6MAUtil3MapIiPN8NativeUI5LabelEEixERKi
	.stabn	224,0,0,LBE71-__ZN6MAUtil3MapIiPN8NativeUI5LabelEEixERKi
	.stabn	224,0,0,LBE69-__ZN6MAUtil3MapIiPN8NativeUI5LabelEEixERKi
Lscope39:
	.stabs	"_ZN6MAUtil10DictionaryIKiNS_4PairIS1_NS_11BasicStringIcEEEEEC2EPFiRS1_S7_Ei:f(0,6)",36,0,44,__ZN6MAUtil10DictionaryIKiNS_4PairIS1_NS_11BasicStringIcEEEEEC2EPFiRS1_S7_Ei
	.stabs	"this:p(0,39)",160,0,44,-12
	.stabs	"cf:p(1,23)",160,0,44,-16
	.stabs	"keyOffset:p(0,3)",160,0,44,-20

.func __ZN6MAUtil10DictionaryIKiNS_4PairIS1_NS_11BasicStringIcEEEEEC2EPFiRS1_S7_Ei, 3, void
	.stabs	"c:/MoSync/include/MAUtil/Dictionary_impl.h",132,0,0,Ltext23
Ltext23:
	.line 44
	push rt,fr
	sub  sp,#0xc
	ld   fr,sp
	add  fr,#0x14
	ld   [fr,-12],i0
	ld   [fr,-16],i1
	ld   [fr,-20],i2
	.dlab LBB72
	.line 45
	ld   r14,[fr,-12]
	ld   r0,[fr,-20]
	ld   [r14,52],r0
	.line 46
	ld   i0,[fr,-12]
	ld   i1,[fr,-16]
	call &__ZN6MAUtil10DictionaryIKiNS_4PairIS1_NS_11BasicStringIcEEEEE4initEPFiRS1_S7_E
	.dlab LBE72
	add  sp,#0xc
	pop  rt,fr
	ret
Lscope40:
	.stabs	"_ZN6MAUtil10DictionaryIKiNS_4PairIS1_NS_11BasicStringIcEEEEE5clearEv:f(0,6)",36,0,79,__ZN6MAUtil10DictionaryIKiNS_4PairIS1_NS_11BasicStringIcEEEEE5clearEv
	.stabs	"this:p(0,39)",160,0,79,-12

.func __ZN6MAUtil10DictionaryIKiNS_4PairIS1_NS_11BasicStringIcEEEEE5clearEv, 1, void
	.line 79
	push rt,fr
	sub  sp,#0x4
	ld   fr,sp
	add  fr,#0xc
	ld   [fr,-12],i0
	.dlab LBB73
	.line 80
	ld   i0,[fr,-12]
	call &_dict_free_nodes
	.dlab LBE73
	add  sp,#0x4
	pop  rt,fr
	ret
Lscope41:
	.stabs	"_ZN6MAUtil10DictionaryIKiNS_4PairIS1_PN8NativeUI16HorizontalLayoutEEEEC2EPFiRS1_S8_Ei:f(0,6)",36,0,44,__ZN6MAUtil10DictionaryIKiNS_4PairIS1_PN8NativeUI16HorizontalLayoutEEEEC2EPFiRS1_S8_Ei
	.stabs	"this:p(0,46)",160,0,44,-12
	.stabs	"cf:p(1,23)",160,0,44,-16
	.stabs	"keyOffset:p(0,3)",160,0,44,-20

.func __ZN6MAUtil10DictionaryIKiNS_4PairIS1_PN8NativeUI16HorizontalLayoutEEEEC2EPFiRS1_S8_Ei, 3, void
	.line 44
	push rt,fr
	sub  sp,#0xc
	ld   fr,sp
	add  fr,#0x14
	ld   [fr,-12],i0
	ld   [fr,-16],i1
	ld   [fr,-20],i2
	.dlab LBB74
	.line 45
	ld   r14,[fr,-12]
	ld   r0,[fr,-20]
	ld   [r14,52],r0
	.line 46
	ld   i0,[fr,-12]
	ld   i1,[fr,-16]
	call &__ZN6MAUtil10DictionaryIKiNS_4PairIS1_PN8NativeUI16HorizontalLayoutEEEE4initEPFiRS1_S8_E
	.dlab LBE74
	add  sp,#0xc
	pop  rt,fr
	ret
Lscope42:
	.stabs	"_ZN6MAUtil10DictionaryIKiNS_4PairIS1_PN8NativeUI16HorizontalLayoutEEEE5clearEv:f(0,6)",36,0,79,__ZN6MAUtil10DictionaryIKiNS_4PairIS1_PN8NativeUI16HorizontalLayoutEEEE5clearEv
	.stabs	"this:p(0,46)",160,0,79,-12

.func __ZN6MAUtil10DictionaryIKiNS_4PairIS1_PN8NativeUI16HorizontalLayoutEEEE5clearEv, 1, void
	.line 79
	push rt,fr
	sub  sp,#0x4
	ld   fr,sp
	add  fr,#0xc
	ld   [fr,-12],i0
	.dlab LBB75
	.line 80
	ld   i0,[fr,-12]
	call &_dict_free_nodes
	.dlab LBE75
	add  sp,#0x4
	pop  rt,fr
	ret
Lscope43:
	.stabs	"_ZN6MAUtil10DictionaryIKiNS_4PairIS1_PN8NativeUI12ListViewItemEEEEC2EPFiRS1_S8_Ei:f(0,6)",36,0,44,__ZN6MAUtil10DictionaryIKiNS_4PairIS1_PN8NativeUI12ListViewItemEEEEC2EPFiRS1_S8_Ei
	.stabs	"this:p(0,53)",160,0,44,-12
	.stabs	"cf:p(1,23)",160,0,44,-16
	.stabs	"keyOffset:p(0,3)",160,0,44,-20

.func __ZN6MAUtil10DictionaryIKiNS_4PairIS1_PN8NativeUI12ListViewItemEEEEC2EPFiRS1_S8_Ei, 3, void
	.line 44
	push rt,fr
	sub  sp,#0xc
	ld   fr,sp
	add  fr,#0x14
	ld   [fr,-12],i0
	ld   [fr,-16],i1
	ld   [fr,-20],i2
	.dlab LBB76
	.line 45
	ld   r14,[fr,-12]
	ld   r0,[fr,-20]
	ld   [r14,52],r0
	.line 46
	ld   i0,[fr,-12]
	ld   i1,[fr,-16]
	call &__ZN6MAUtil10DictionaryIKiNS_4PairIS1_PN8NativeUI12ListViewItemEEEE4initEPFiRS1_S8_E
	.dlab LBE76
	add  sp,#0xc
	pop  rt,fr
	ret
Lscope44:
	.stabs	"_ZN6MAUtil10DictionaryIKiNS_4PairIS1_PN8NativeUI12ListViewItemEEEE5clearEv:f(0,6)",36,0,79,__ZN6MAUtil10DictionaryIKiNS_4PairIS1_PN8NativeUI12ListViewItemEEEE5clearEv
	.stabs	"this:p(0,53)",160,0,79,-12

.func __ZN6MAUtil10DictionaryIKiNS_4PairIS1_PN8NativeUI12ListViewItemEEEE5clearEv, 1, void
	.line 79
	push rt,fr
	sub  sp,#0x4
	ld   fr,sp
	add  fr,#0xc
	ld   [fr,-12],i0
	.dlab LBB77
	.line 80
	ld   i0,[fr,-12]
	call &_dict_free_nodes
	.dlab LBE77
	add  sp,#0x4
	pop  rt,fr
	ret
Lscope45:
	.stabs	"_ZN6MAUtil10DictionaryIKiNS_4PairIS1_PN8NativeUI5LabelEEEEC2EPFiRS1_S8_Ei:f(0,6)",36,0,44,__ZN6MAUtil10DictionaryIKiNS_4PairIS1_PN8NativeUI5LabelEEEEC2EPFiRS1_S8_Ei
	.stabs	"this:p(0,60)",160,0,44,-12
	.stabs	"cf:p(1,23)",160,0,44,-16
	.stabs	"keyOffset:p(0,3)",160,0,44,-20

.func __ZN6MAUtil10DictionaryIKiNS_4PairIS1_PN8NativeUI5LabelEEEEC2EPFiRS1_S8_Ei, 3, void
	.line 44
	push rt,fr
	sub  sp,#0xc
	ld   fr,sp
	add  fr,#0x14
	ld   [fr,-12],i0
	ld   [fr,-16],i1
	ld   [fr,-20],i2
	.dlab LBB78
	.line 45
	ld   r14,[fr,-12]
	ld   r0,[fr,-20]
	ld   [r14,52],r0
	.line 46
	ld   i0,[fr,-12]
	ld   i1,[fr,-16]
	call &__ZN6MAUtil10DictionaryIKiNS_4PairIS1_PN8NativeUI5LabelEEEE4initEPFiRS1_S8_E
	.dlab LBE78
	add  sp,#0xc
	pop  rt,fr
	ret
Lscope46:
	.stabs	"_ZN6MAUtil10DictionaryIKiNS_4PairIS1_PN8NativeUI5LabelEEEE5clearEv:f(0,6)",36,0,79,__ZN6MAUtil10DictionaryIKiNS_4PairIS1_PN8NativeUI5LabelEEEE5clearEv
	.stabs	"this:p(0,60)",160,0,79,-12

.func __ZN6MAUtil10DictionaryIKiNS_4PairIS1_PN8NativeUI5LabelEEEE5clearEv, 1, void
	.line 79
	push rt,fr
	sub  sp,#0x4
	ld   fr,sp
	add  fr,#0xc
	ld   [fr,-12],i0
	.dlab LBB79
	.line 80
	ld   i0,[fr,-12]
	call &_dict_free_nodes
	.dlab LBE79
	add  sp,#0x4
	pop  rt,fr
	ret
Lscope47:
	.stabs	"_ZN6MAUtil4PairIKiPN8NativeUI12ListViewItemEEC1ERS1_RKS4_:f(0,6)",36,0,66,__ZN6MAUtil4PairIKiPN8NativeUI12ListViewItemEEC1ERS1_RKS4_
	.stabs	"this:p(0,96)=k(0,48)",160,0,66,-12
	.stabs	"f:p(1,12)",160,0,66,-16
	.stabs	"s:p(1,121)",160,0,66,-20

.func __ZN6MAUtil4PairIKiPN8NativeUI12ListViewItemEEC1ERS1_RKS4_, 3, void
	.stabs	"c:/MoSync/include/MAUtil/collection_common.h",132,0,0,Ltext24
Ltext24:
	.line 66
	push rt,fr
	sub  sp,#0xc
	ld   fr,sp
	add  fr,#0x14
	ld   [fr,-12],i0
	ld   [fr,-16],i1
	ld   [fr,-20],i2
	.dlab LBB80
	.line 66
	ld   r0,[fr,-12]
	ld   r14,[fr,-16]
	ld   r14,[r14]
	ld   [r0],r14
	ld   r0,[fr,-12]
	ld   r14,[fr,-20]
	ld   r14,[r14]
	ld   [r0,4],r14
	.dlab LBE80
	add  sp,#0xc
	pop  rt,fr
	ret
Lscope48:
	.stabs	"_ZN6MAUtil10DictionaryIKiNS_4PairIS1_PN8NativeUI12ListViewItemEEEE8DictNodeC1ES6_:f(0,6)",36,0,32,__ZN6MAUtil10DictionaryIKiNS_4PairIS1_PN8NativeUI12ListViewItemEEEE8DictNodeC1ES6_
	.stabs	"this:p(0,97)=k(0,64)",160,0,32,-12
	.stabs	"s:p(1,116)",160,0,32,-20

.func __ZN6MAUtil10DictionaryIKiNS_4PairIS1_PN8NativeUI12ListViewItemEEEE8DictNodeC1ES6_, 3, void
	.stabs	"c:/MoSync/include/MAUtil/Dictionary_impl.h",132,0,0,Ltext25
Ltext25:
	.line 32
	push rt,fr
	sub  sp,#0xc
	ld   fr,sp
	add  fr,#0x14
	ld   [fr,-12],i0
	ld   [fr,-20],i1
	ld   [fr,-16],i2
	.dlab LBB81
	.line 33
	ld   i0,[fr,-12]
	call &__ZN7dnode_tC2Ev
	ld   r14,[fr,-12]
	add  r14,#0x18
	ld   r0,[fr,-20]
	ld   [r14],r0
	ld   r0,[fr,-16]
	ld   [r14,4],r0
	.line 34
	ld   i0,[fr,-12]
	ld   i1,#0x0
	ld   i2,#0x18
	call &_memset
	.dlab LBE81
	add  sp,#0xc
	pop  rt,fr
	ret
Lscope49:
	.stabs	"_ZN7dnode_tC2Ev:f(0,6)",36,0,33,__ZN7dnode_tC2Ev
	.stabs	"this:p(0,98)=k(16,4)",160,0,48,-12

.func __ZN7dnode_tC2Ev, 1, void
	.line 33
	push rt,fr
	sub  sp,#0x4
	ld   fr,sp
	add  fr,#0xc
	ld   [fr,-12],i0
	.line 33
	add  sp,#0x4
	pop  rt,fr
	ret
Lscope50:
	.stabs	"_ZN6MAUtil4PairIKiNS_11BasicStringIcEEEC1ERS1_RKS3_:f(0,6)",36,0,66,__ZN6MAUtil4PairIKiNS_11BasicStringIcEEEC1ERS1_RKS3_
	.stabs	"this:p(0,79)",160,0,66,-12
	.stabs	"f:p(1,12)",160,0,66,-16
	.stabs	"s:p(13,38)",160,0,66,-20

.func __ZN6MAUtil4PairIKiNS_11BasicStringIcEEEC1ERS1_RKS3_, 3, void
	.stabs	"c:/MoSync/include/MAUtil/collection_common.h",132,0,0,Ltext26
Ltext26:
	.line 66
	push rt,fr
	sub  sp,#0xc
	ld   fr,sp
	add  fr,#0x14
	ld   [fr,-12],i0
	ld   [fr,-16],i1
	ld   [fr,-20],i2
	.dlab LBB82
	.line 66
	ld   r14,[fr,-12]
	ld   r0,[fr,-16]
	ld   r0,[r0]
	ld   [r14],r0
	ld   r14,[fr,-12]
	add  r14,#0x4
	ld   i0,r14
	ld   i1,[fr,-20]
	call &__ZN6MAUtil11BasicStringIcEC1ERKS1_
	.dlab LBE82
	add  sp,#0xc
	pop  rt,fr
	ret
Lscope51:
	.stabs	"_ZN6MAUtil10DictionaryIKiNS_4PairIS1_NS_11BasicStringIcEEEEE8DictNodeC1ES5_:f(0,6)",36,0,32,__ZN6MAUtil10DictionaryIKiNS_4PairIS1_NS_11BasicStringIcEEEEE8DictNodeC1ES5_
	.stabs	"this:p(0,99)=k(0,72)",160,0,32,-16
	.stabs	"s:a(1,30)",64,0,32,4

.func __ZN6MAUtil10DictionaryIKiNS_4PairIS1_NS_11BasicStringIcEEEEE8DictNodeC1ES5_, 2, void
	.stabs	"c:/MoSync/include/MAUtil/Dictionary_impl.h",132,0,0,Ltext27
Ltext27:
	.line 32
	push rt,d0
	sub  sp,#0x4
	ld   fr,sp
	add  fr,#0x10
	ld   [fr,-16],i0
	ld   d0,i1
	.dlab LBB83
	.line 33
	ld   i0,[fr,-16]
	call &__ZN7dnode_tC2Ev
	ld   r14,[fr,-16]
	add  r14,#0x18
	ld   i0,r14
	ld   i1,d0
	call &__ZN6MAUtil4PairIKiNS_11BasicStringIcEEEC1ERKS4_
	.line 34
	ld   i0,[fr,-16]
	ld   i1,#0x0
	ld   i2,#0x18
	call &_memset
	.dlab LBE83
	add  sp,#0x4
	pop  rt,d0
	ret
Lscope52:
	.stabs	"_ZN6MAUtil4PairIKiPN8NativeUI16HorizontalLayoutEEC1ERS1_RKS4_:f(0,6)",36,0,66,__ZN6MAUtil4PairIKiPN8NativeUI16HorizontalLayoutEEC1ERS1_RKS4_
	.stabs	"this:p(0,100)=k(0,41)",160,0,66,-12
	.stabs	"f:p(1,12)",160,0,66,-16
	.stabs	"s:p(1,76)",160,0,66,-20

.func __ZN6MAUtil4PairIKiPN8NativeUI16HorizontalLayoutEEC1ERS1_RKS4_, 3, void
	.stabs	"c:/MoSync/include/MAUtil/collection_common.h",132,0,0,Ltext28
Ltext28:
	.line 66
	push rt,fr
	sub  sp,#0xc
	ld   fr,sp
	add  fr,#0x14
	ld   [fr,-12],i0
	ld   [fr,-16],i1
	ld   [fr,-20],i2
	.dlab LBB84
	.line 66
	ld   r0,[fr,-12]
	ld   r14,[fr,-16]
	ld   r14,[r14]
	ld   [r0],r14
	ld   r0,[fr,-12]
	ld   r14,[fr,-20]
	ld   r14,[r14]
	ld   [r0,4],r14
	.dlab LBE84
	add  sp,#0xc
	pop  rt,fr
	ret
Lscope53:
	.stabs	"_ZN6MAUtil10DictionaryIKiNS_4PairIS1_PN8NativeUI16HorizontalLayoutEEEE8DictNodeC1ES6_:f(0,6)",36,0,32,__ZN6MAUtil10DictionaryIKiNS_4PairIS1_PN8NativeUI16HorizontalLayoutEEEE8DictNodeC1ES6_
	.stabs	"this:p(0,101)=k(0,82)",160,0,32,-12
	.stabs	"s:p(1,71)",160,0,32,-20

.func __ZN6MAUtil10DictionaryIKiNS_4PairIS1_PN8NativeUI16HorizontalLayoutEEEE8DictNodeC1ES6_, 3, void
	.stabs	"c:/MoSync/include/MAUtil/Dictionary_impl.h",132,0,0,Ltext29
Ltext29:
	.line 32
	push rt,fr
	sub  sp,#0xc
	ld   fr,sp
	add  fr,#0x14
	ld   [fr,-12],i0
	ld   [fr,-20],i1
	ld   [fr,-16],i2
	.dlab LBB85
	.line 33
	ld   i0,[fr,-12]
	call &__ZN7dnode_tC2Ev
	ld   r14,[fr,-12]
	add  r14,#0x18
	ld   r0,[fr,-20]
	ld   [r14],r0
	ld   r0,[fr,-16]
	ld   [r14,4],r0
	.line 34
	ld   i0,[fr,-12]
	ld   i1,#0x0
	ld   i2,#0x18
	call &_memset
	.dlab LBE85
	add  sp,#0xc
	pop  rt,fr
	ret
Lscope54:
	.stabs	"_ZN6MAUtil4PairIKiPN8NativeUI5LabelEEC1ERS1_RKS4_:f(0,6)",36,0,66,__ZN6MAUtil4PairIKiPN8NativeUI5LabelEEC1ERS1_RKS4_
	.stabs	"this:p(0,102)=k(0,55)",160,0,66,-12
	.stabs	"f:p(1,12)",160,0,66,-16
	.stabs	"s:p(1,166)",160,0,66,-20

.func __ZN6MAUtil4PairIKiPN8NativeUI5LabelEEC1ERS1_RKS4_, 3, void
	.stabs	"c:/MoSync/include/MAUtil/collection_common.h",132,0,0,Ltext30
Ltext30:
	.line 66
	push rt,fr
	sub  sp,#0xc
	ld   fr,sp
	add  fr,#0x14
	ld   [fr,-12],i0
	ld   [fr,-16],i1
	ld   [fr,-20],i2
	.dlab LBB86
	.line 66
	ld   r0,[fr,-12]
	ld   r14,[fr,-16]
	ld   r14,[r14]
	ld   [r0],r14
	ld   r0,[fr,-12]
	ld   r14,[fr,-20]
	ld   r14,[r14]
	ld   [r0,4],r14
	.dlab LBE86
	add  sp,#0xc
	pop  rt,fr
	ret
Lscope55:
	.stabs	"_ZN6MAUtil10DictionaryIKiNS_4PairIS1_PN8NativeUI5LabelEEEE8DictNodeC1ES6_:f(0,6)",36,0,32,__ZN6MAUtil10DictionaryIKiNS_4PairIS1_PN8NativeUI5LabelEEEE8DictNodeC1ES6_
	.stabs	"this:p(0,103)=k(0,90)",160,0,32,-12
	.stabs	"s:p(1,161)",160,0,32,-20

.func __ZN6MAUtil10DictionaryIKiNS_4PairIS1_PN8NativeUI5LabelEEEE8DictNodeC1ES6_, 3, void
	.stabs	"c:/MoSync/include/MAUtil/Dictionary_impl.h",132,0,0,Ltext31
Ltext31:
	.line 32
	push rt,fr
	sub  sp,#0xc
	ld   fr,sp
	add  fr,#0x14
	ld   [fr,-12],i0
	ld   [fr,-20],i1
	ld   [fr,-16],i2
	.dlab LBB87
	.line 33
	ld   i0,[fr,-12]
	call &__ZN7dnode_tC2Ev
	ld   r14,[fr,-12]
	add  r14,#0x18
	ld   r0,[fr,-20]
	ld   [r14],r0
	ld   r0,[fr,-16]
	ld   [r14,4],r0
	.line 34
	ld   i0,[fr,-12]
	ld   i1,#0x0
	ld   i2,#0x18
	call &_memset
	.dlab LBE87
	add  sp,#0xc
	pop  rt,fr
	ret
Lscope56:
	.stabs	"_ZN6MAUtil10DictionaryIKiNS_4PairIS1_NS_11BasicStringIcEEEEE4initEPFiRS1_S7_E:f(0,6)",36,0,38,__ZN6MAUtil10DictionaryIKiNS_4PairIS1_NS_11BasicStringIcEEEEE4initEPFiRS1_S7_E
	.stabs	"this:p(0,39)",160,0,38,-12
	.stabs	"cf:p(1,23)",160,0,38,-16

.func __ZN6MAUtil10DictionaryIKiNS_4PairIS1_NS_11BasicStringIcEEEEE4initEPFiRS1_S7_E, 2, void
	.line 38
	push rt,fr
	sub  sp,#0x8
	ld   fr,sp
	add  fr,#0x10
	ld   [fr,-12],i0
	ld   [fr,-16],i1
	.dlab LBB88
	.line 39
	ld   i0,[fr,-12]
	ld   i1,#0xffffffff
	ld   i2,[fr,-16]
	call &_dict_init
	.line 40
	ld   i0,[fr,-12]
	ld   i1,#__ZN6MAUtil10DictionaryIKiNS_4PairIS1_NS_11BasicStringIcEEEEE5allocEPv
	ld   i2,#__ZN6MAUtil10DictionaryIKiNS_4PairIS1_NS_11BasicStringIcEEEEE4freeEP7dnode_tPv
	ld   i3,[fr,-12]
	call &_dict_set_allocator
	.dlab LBE88
	add  sp,#0x8
	pop  rt,fr
	ret
Lscope57:
	.stabs	"_ZN6MAUtil10DictionaryIKiNS_4PairIS1_PN8NativeUI16HorizontalLayoutEEEE4initEPFiRS1_S8_E:f(0,6)",36,0,38,__ZN6MAUtil10DictionaryIKiNS_4PairIS1_PN8NativeUI16HorizontalLayoutEEEE4initEPFiRS1_S8_E
	.stabs	"this:p(0,46)",160,0,38,-12
	.stabs	"cf:p(1,23)",160,0,38,-16

.func __ZN6MAUtil10DictionaryIKiNS_4PairIS1_PN8NativeUI16HorizontalLayoutEEEE4initEPFiRS1_S8_E, 2, void
	.line 38
	push rt,fr
	sub  sp,#0x8
	ld   fr,sp
	add  fr,#0x10
	ld   [fr,-12],i0
	ld   [fr,-16],i1
	.dlab LBB89
	.line 39
	ld   i0,[fr,-12]
	ld   i1,#0xffffffff
	ld   i2,[fr,-16]
	call &_dict_init
	.line 40
	ld   i0,[fr,-12]
	ld   i1,#__ZN6MAUtil10DictionaryIKiNS_4PairIS1_PN8NativeUI16HorizontalLayoutEEEE5allocEPv
	ld   i2,#__ZN6MAUtil10DictionaryIKiNS_4PairIS1_PN8NativeUI16HorizontalLayoutEEEE4freeEP7dnode_tPv
	ld   i3,[fr,-12]
	call &_dict_set_allocator
	.dlab LBE89
	add  sp,#0x8
	pop  rt,fr
	ret
Lscope58:
	.stabs	"_ZN6MAUtil10DictionaryIKiNS_4PairIS1_PN8NativeUI12ListViewItemEEEE4initEPFiRS1_S8_E:f(0,6)",36,0,38,__ZN6MAUtil10DictionaryIKiNS_4PairIS1_PN8NativeUI12ListViewItemEEEE4initEPFiRS1_S8_E
	.stabs	"this:p(0,53)",160,0,38,-12
	.stabs	"cf:p(1,23)",160,0,38,-16

.func __ZN6MAUtil10DictionaryIKiNS_4PairIS1_PN8NativeUI12ListViewItemEEEE4initEPFiRS1_S8_E, 2, void
	.line 38
	push rt,fr
	sub  sp,#0x8
	ld   fr,sp
	add  fr,#0x10
	ld   [fr,-12],i0
	ld   [fr,-16],i1
	.dlab LBB90
	.line 39
	ld   i0,[fr,-12]
	ld   i1,#0xffffffff
	ld   i2,[fr,-16]
	call &_dict_init
	.line 40
	ld   i0,[fr,-12]
	ld   i1,#__ZN6MAUtil10DictionaryIKiNS_4PairIS1_PN8NativeUI12ListViewItemEEEE5allocEPv
	ld   i2,#__ZN6MAUtil10DictionaryIKiNS_4PairIS1_PN8NativeUI12ListViewItemEEEE4freeEP7dnode_tPv
	ld   i3,[fr,-12]
	call &_dict_set_allocator
	.dlab LBE90
	add  sp,#0x8
	pop  rt,fr
	ret
Lscope59:
	.stabs	"_ZN6MAUtil10DictionaryIKiNS_4PairIS1_PN8NativeUI5LabelEEEE4initEPFiRS1_S8_E:f(0,6)",36,0,38,__ZN6MAUtil10DictionaryIKiNS_4PairIS1_PN8NativeUI5LabelEEEE4initEPFiRS1_S8_E
	.stabs	"this:p(0,60)",160,0,38,-12
	.stabs	"cf:p(1,23)",160,0,38,-16

.func __ZN6MAUtil10DictionaryIKiNS_4PairIS1_PN8NativeUI5LabelEEEE4initEPFiRS1_S8_E, 2, void
	.line 38
	push rt,fr
	sub  sp,#0x8
	ld   fr,sp
	add  fr,#0x10
	ld   [fr,-12],i0
	ld   [fr,-16],i1
	.dlab LBB91
	.line 39
	ld   i0,[fr,-12]
	ld   i1,#0xffffffff
	ld   i2,[fr,-16]
	call &_dict_init
	.line 40
	ld   i0,[fr,-12]
	ld   i1,#__ZN6MAUtil10DictionaryIKiNS_4PairIS1_PN8NativeUI5LabelEEEE5allocEPv
	ld   i2,#__ZN6MAUtil10DictionaryIKiNS_4PairIS1_PN8NativeUI5LabelEEEE4freeEP7dnode_tPv
	ld   i3,[fr,-12]
	call &_dict_set_allocator
	.dlab LBE91
	add  sp,#0x8
	pop  rt,fr
	ret
Lscope60:
.data
LC28:
	.ascii "c:/MoSync/include/MAUtil/Dictionary.h\0"
.code
	.stabs	"_ZN6MAUtil10DictionaryIKiNS_4PairIS1_NS_11BasicStringIcEEEEE5allocEPv:f(16,20)",36,0,201,__ZN6MAUtil10DictionaryIKiNS_4PairIS1_NS_11BasicStringIcEEEEE5allocEPv

.func __ZN6MAUtil10DictionaryIKiNS_4PairIS1_NS_11BasicStringIcEEEEE5allocEPv, 1, int
	.stabs	"c:/MoSync/include/MAUtil/Dictionary.h",132,0,0,Ltext32
Ltext32:
	.line 201
	push rt,fr
	sub  sp,#0x4
	ld   fr,sp
	add  fr,#0xc
	ld   [fr,-12],i0
	.dlab LBB92
	.line 201
	ld   i0,#LC28
	call &_FileNameFromPath
	ld   i0,#0x6
	ld   i1,r14
	ld   i2,#0xc9
	call &_bfeHandler
	.dlab LBE92
Lscope61:
	.stabs	"_ZN6MAUtil10DictionaryIKiNS_4PairIS1_NS_11BasicStringIcEEEEE4freeEP7dnode_tPv:f(0,6)",36,0,202,__ZN6MAUtil10DictionaryIKiNS_4PairIS1_NS_11BasicStringIcEEEEE4freeEP7dnode_tPv
	.stabs	"node:p(16,20)",160,0,202,-12

.func __ZN6MAUtil10DictionaryIKiNS_4PairIS1_NS_11BasicStringIcEEEEE4freeEP7dnode_tPv, 2, void
	.line 202
	push rt,fr
	sub  sp,#0xc
	ld   fr,sp
	add  fr,#0x14
	ld   [fr,-12],i0
	ld   [fr,-16],i1
	.dlab LBB93
	.line 202
	ld   r0,[fr,-12]
	ld   [fr,-20],r0
	ld   r14,#0x0
	ld   r0,[fr,-20]
	jc   eq,r0,r14,#L127
	ld   i0,[fr,-20]
	call &__ZN6MAUtil10DictionaryIKiNS_4PairIS1_NS_11BasicStringIcEEEEE8DictNodeD1Ev
	ld   i0,[fr,-20]
	call &__ZdlPv
L127:
	.dlab LBE93
	add  sp,#0xc
	pop  rt,fr
	ret
Lscope62:
	.stabs	"_ZN6MAUtil10DictionaryIKiNS_4PairIS1_NS_11BasicStringIcEEEEE8DictNodeD1Ev:f(0,6)",36,0,202,__ZN6MAUtil10DictionaryIKiNS_4PairIS1_NS_11BasicStringIcEEEEE8DictNodeD1Ev
	.stabs	"this:p(0,99)",160,0,60,-12

.func __ZN6MAUtil10DictionaryIKiNS_4PairIS1_NS_11BasicStringIcEEEEE8DictNodeD1Ev, 1, void
	.line 202
	push rt,fr
	sub  sp,#0x4
	ld   fr,sp
	add  fr,#0xc
	ld   [fr,-12],i0
	.dlab LBB94
	.line 202
	ld   r14,[fr,-12]
	add  r14,#0x18
	ld   i0,r14
	call &__ZN6MAUtil4PairIKiNS_11BasicStringIcEEED1Ev
	.dlab LBE94
	add  sp,#0x4
	pop  rt,fr
	ret
Lscope63:
	.stabs	"_ZN6MAUtil10DictionaryIKiNS_4PairIS1_PN8NativeUI16HorizontalLayoutEEEE5allocEPv:f(16,20)",36,0,201,__ZN6MAUtil10DictionaryIKiNS_4PairIS1_PN8NativeUI16HorizontalLayoutEEEE5allocEPv

.func __ZN6MAUtil10DictionaryIKiNS_4PairIS1_PN8NativeUI16HorizontalLayoutEEEE5allocEPv, 1, int
	.line 201
	push rt,fr
	sub  sp,#0x4
	ld   fr,sp
	add  fr,#0xc
	ld   [fr,-12],i0
	.dlab LBB95
	.line 201
	ld   i0,#LC28
	call &_FileNameFromPath
	ld   i0,#0x6
	ld   i1,r14
	ld   i2,#0xc9
	call &_bfeHandler
	.dlab LBE95
Lscope64:
	.stabs	"_ZN6MAUtil10DictionaryIKiNS_4PairIS1_PN8NativeUI16HorizontalLayoutEEEE4freeEP7dnode_tPv:f(0,6)",36,0,202,__ZN6MAUtil10DictionaryIKiNS_4PairIS1_PN8NativeUI16HorizontalLayoutEEEE4freeEP7dnode_tPv
	.stabs	"node:p(16,20)",160,0,202,-12

.func __ZN6MAUtil10DictionaryIKiNS_4PairIS1_PN8NativeUI16HorizontalLayoutEEEE4freeEP7dnode_tPv, 2, void
	.line 202
	push rt,fr
	sub  sp,#0x8
	ld   fr,sp
	add  fr,#0x10
	ld   [fr,-12],i0
	ld   [fr,-16],i1
	.dlab LBB96
	.line 202
	ld   i0,[fr,-12]
	call &__ZdlPv
	.dlab LBE96
	add  sp,#0x8
	pop  rt,fr
	ret
Lscope65:
	.stabs	"_ZN6MAUtil10DictionaryIKiNS_4PairIS1_PN8NativeUI12ListViewItemEEEE5allocEPv:f(16,20)",36,0,201,__ZN6MAUtil10DictionaryIKiNS_4PairIS1_PN8NativeUI12ListViewItemEEEE5allocEPv

.func __ZN6MAUtil10DictionaryIKiNS_4PairIS1_PN8NativeUI12ListViewItemEEEE5allocEPv, 1, int
	.line 201
	push rt,fr
	sub  sp,#0x4
	ld   fr,sp
	add  fr,#0xc
	ld   [fr,-12],i0
	.dlab LBB97
	.line 201
	ld   i0,#LC28
	call &_FileNameFromPath
	ld   i0,#0x6
	ld   i1,r14
	ld   i2,#0xc9
	call &_bfeHandler
	.dlab LBE97
Lscope66:
	.stabs	"_ZN6MAUtil10DictionaryIKiNS_4PairIS1_PN8NativeUI12ListViewItemEEEE4freeEP7dnode_tPv:f(0,6)",36,0,202,__ZN6MAUtil10DictionaryIKiNS_4PairIS1_PN8NativeUI12ListViewItemEEEE4freeEP7dnode_tPv
	.stabs	"node:p(16,20)",160,0,202,-12

.func __ZN6MAUtil10DictionaryIKiNS_4PairIS1_PN8NativeUI12ListViewItemEEEE4freeEP7dnode_tPv, 2, void
	.line 202
	push rt,fr
	sub  sp,#0x8
	ld   fr,sp
	add  fr,#0x10
	ld   [fr,-12],i0
	ld   [fr,-16],i1
	.dlab LBB98
	.line 202
	ld   i0,[fr,-12]
	call &__ZdlPv
	.dlab LBE98
	add  sp,#0x8
	pop  rt,fr
	ret
Lscope67:
	.stabs	"_ZN6MAUtil10DictionaryIKiNS_4PairIS1_PN8NativeUI5LabelEEEE5allocEPv:f(16,20)",36,0,201,__ZN6MAUtil10DictionaryIKiNS_4PairIS1_PN8NativeUI5LabelEEEE5allocEPv

.func __ZN6MAUtil10DictionaryIKiNS_4PairIS1_PN8NativeUI5LabelEEEE5allocEPv, 1, int
	.line 201
	push rt,fr
	sub  sp,#0x4
	ld   fr,sp
	add  fr,#0xc
	ld   [fr,-12],i0
	.dlab LBB99
	.line 201
	ld   i0,#LC28
	call &_FileNameFromPath
	ld   i0,#0x6
	ld   i1,r14
	ld   i2,#0xc9
	call &_bfeHandler
	.dlab LBE99
Lscope68:
	.stabs	"_ZN6MAUtil10DictionaryIKiNS_4PairIS1_PN8NativeUI5LabelEEEE4freeEP7dnode_tPv:f(0,6)",36,0,202,__ZN6MAUtil10DictionaryIKiNS_4PairIS1_PN8NativeUI5LabelEEEE4freeEP7dnode_tPv
	.stabs	"node:p(16,20)",160,0,202,-12

.func __ZN6MAUtil10DictionaryIKiNS_4PairIS1_PN8NativeUI5LabelEEEE4freeEP7dnode_tPv, 2, void
	.line 202
	push rt,fr
	sub  sp,#0x8
	ld   fr,sp
	add  fr,#0x10
	ld   [fr,-12],i0
	ld   [fr,-16],i1
	.dlab LBB100
	.line 202
	ld   i0,[fr,-12]
	call &__ZdlPv
	.dlab LBE100
	add  sp,#0x8
	pop  rt,fr
	ret
Lscope69:
	.global	__ZTV11TrackingTab
.data
	.align 4
__ZTV11TrackingTab:
	.long	0
	.long	0
	.long	__ZN11TrackingTabD1Ev
	.long	__ZN11TrackingTabD0Ev
	.long	__ZN8NativeUI6Widget25markWidgetHandleAsDeletedEv
	.long	__ZNK8NativeUI6Widget15getWidgetHandleEv
	.long	__ZN8NativeUI6Widget11setPropertyERKN6MAUtil11BasicStringIcEES5_
	.long	__ZN8NativeUI6Widget14setPropertyIntERKN6MAUtil11BasicStringIcEEi
	.long	__ZN8NativeUI6Widget16setPropertyFloatERKN6MAUtil11BasicStringIcEEf
	.long	__ZN8NativeUI6Widget14getPropertyIntERKN6MAUtil11BasicStringIcEERi
	.long	__ZN8NativeUI6Widget14getPropertyIntERKN6MAUtil11BasicStringIcEE
	.long	__ZN8NativeUI6Widget16getPropertyFloatERKN6MAUtil11BasicStringIcEERi
	.long	__ZN8NativeUI6Widget16getPropertyFloatERKN6MAUtil11BasicStringIcEE
	.long	__ZN8NativeUI6Widget17getPropertyStringERKN6MAUtil11BasicStringIcEERi
	.long	__ZN8NativeUI6Widget17getPropertyStringERKN6MAUtil11BasicStringIcEE
	.long	__ZN8NativeUI6Widget8addChildEPS0_
	.long	__ZN8NativeUI6Widget11insertChildEPS0_i
	.long	__ZN8NativeUI6Widget11removeChildEPS0_
	.long	__ZNK8NativeUI6Widget8getChildEi
	.long	__ZNK8NativeUI6Widget17countChildWidgetsEv
	.long	__ZN8NativeUI6Widget11setPositionEii
	.long	__ZN8NativeUI6Widget15setLeftPositionEi
	.long	__ZN8NativeUI6Widget14setTopPositionEi
	.long	__ZN8NativeUI6Widget7setSizeEii
	.long	__ZN8NativeUI6Widget8getWidthEv
	.long	__ZN8NativeUI6Widget9getHeightEv
	.long	__ZN8NativeUI6Widget8setWidthEi
	.long	__ZN8NativeUI6Widget9setHeightEi
	.long	__ZN8NativeUI6Widget21fillSpaceHorizontallyEv
	.long	__ZN8NativeUI6Widget19fillSpaceVerticallyEv
	.long	__ZN8NativeUI6Widget23wrapContentHorizontallyEv
	.long	__ZN8NativeUI6Widget21wrapContentVerticallyEv
	.long	__ZN8NativeUI6Widget18setBackgroundColorEi
	.long	__ZN8NativeUI6Widget18setBackgroundColorEiii
	.long	__ZN8NativeUI6Widget21setBackgroundGradientEii
	.long	__ZN8NativeUI6Widget10setVisibleEb
	.long	__ZN8NativeUI6Widget9isVisibleEv
	.long	__ZN8NativeUI6Widget10setEnabledEb
	.long	__ZN8NativeUI6Widget9isEnabledEv
	.long	__ZN8NativeUI6Widget16addEventListenerEPNS_19WidgetEventListenerE
	.long	__ZN8NativeUI6Widget19removeEventListenerEPNS_19WidgetEventListenerE
	.long	__ZN8NativeUI6Screen17handleWidgetEventEP17MAWidgetEventData
	.long	__ZN8NativeUI6Screen4showEv
	.long	__ZN8NativeUI6Screen21orientationWillChangeEv
	.long	__ZN8NativeUI6Screen20orientationDidChangeEv
	.long	__ZN8NativeUI6Screen17removeOptionsMenuEv
	.long	__ZN8NativeUI6Screen17addScreenListenerEPNS_14ScreenListenerE
	.long	__ZN8NativeUI6Screen20removeScreenListenerEPNS_14ScreenListenerE
	.long	__ZN11TrackingTab14dataDownloadedEii
	.long	-60
	.long	0
	.long	__ZN6MAUtil14HttpConnection9connEventERK15MAConnEventData
	.long	__ZThn60_N11TrackingTabD1Ev
	.long	__ZThn60_N11TrackingTabD0Ev
	.long	__ZThn60_N11TrackingTab14dataDownloadedEii
	.long	__ZN8Wormhole23HighLevelHttpConnection12httpFinishedEPN6MAUtil14HttpConnectionEi
	.long	__ZN8Wormhole23HighLevelHttpConnection17connWriteFinishedEPN6MAUtil10ConnectionEi
	.long	__ZN8Wormhole23HighLevelHttpConnection16connRecvFinishedEPN6MAUtil10ConnectionEi
	.long	__ZN8Wormhole23HighLevelHttpConnection16connReadFinishedEPN6MAUtil10ConnectionEi
	.long	-100
	.long	0
	.long	__ZN6MAUtil18ConnectionListener15connectFinishedEPNS_10ConnectionEi
	.long	__ZThn40_N8Wormhole23HighLevelHttpConnection16connRecvFinishedEPN6MAUtil10ConnectionEi
	.long	__ZThn40_N8Wormhole23HighLevelHttpConnection17connWriteFinishedEPN6MAUtil10ConnectionEi
	.long	__ZThn40_N8Wormhole23HighLevelHttpConnection16connReadFinishedEPN6MAUtil10ConnectionEi
	.long	__ZThn40_N8Wormhole23HighLevelHttpConnection12httpFinishedEPN6MAUtil14HttpConnectionEi
	.stabs	"TrackingTab:Tt(0,27)=s1536!2,020,(68,33);02480,(0,104)=xsHighLevelHttpConnection:;LANGUAGE:/0(0,3),864,32;connERR:/0(0,3),896,32;fonction:/0(1,1),928,32;mBuffer:/0(0,105)=ar(3,57);0;1023;(0,19),960,8192;mIsConnected:/0(0,4),9152,8;bCreateUI:/0(0,4),9160,8;count:/0(0,3),9184,32;contentString:/0(5,1),9216,32;lValert:/0(0,106)=*(0,107)=xsListView:,9248,32;dateLastSend:/0(83,1),9280,32;mapTrackingAlertDesc:/0(1,31),9312,448;mapTrackingAlertDate:/0(1,31),9760,448;mapHLTA:/0(1,72),10208,448;mapLVITA:/0(1,117),10656,448;mapLTADesc:/0(1,162),11104,448;mapLTAHeure:/0(1,162),11552,448;mainLayout:/0(0,108)=*(0,109)=xsVerticalLayout:,12000,32;lastSendAlert:/0(90,1),12032,224;notification:/0(88,33),12256,32;__base_ctor::(0,110)=#(0,27),(0,6),(0,26),(0,3),(0,6);:_ZN11TrackingTabC2Ei;2A.;__comp_ctor::(0,110):_ZN11TrackingTabC1Ei;2A.;__base_dtor::(0,111)=#(0,27),(0,6),(0,26),(0,6);:_ZN11TrackingTabD2Ev;2A.;__comp_dtor::(0,111):_ZN11TrackingTabD1Ev;2A*0;(0,27);;__deleting_dtor::(0,111):_ZN11TrackingTabD0Ev;2A*1;(0,27);;parseJSONTrackingAlert::(0,112)=#(0,27),(0,6),(0,26),(99,35),(0,6);:_ZN11TrackingTab22parseJSONTrackingAlertEPN6MAUtil7YAJLDom5ValueE;2A.;connectUrl::(0,113)=#(0,27),(0,6),(0,26),(5,1),(1,1),(0,6);:_ZN11TrackingTab10connectUrlEN6MAUtil11BasicStringIcEENS_11eTrakingTabE;2A.;dataDownloaded::(0,114)=#(0,27),(0,6),(0,26),(3,10),(0,3),(0,6);:_ZN11TrackingTab14dataDownloadedEii;2A*46;(0,27);;createUI::(0,111):_ZN11TrackingTab8createUIEv;2A.;runTimerEvent::(0,111):_ZN11TrackingTab13runTimerEventEv;2A.;operator=::(0,115)=#(0,27),(0,116)=&(0,27),(0,26),(0,117)=&(0,118)=k(0,27),(0,6);:_ZN11TrackingTabaSERKS_;2A.;__base_ctor::(0,119)=#(0,27),(0,6),(0,26),(0,117),(0,6);:_ZN11TrackingTabC2ERKS_;2A.;__comp_ctor::(0,119):_ZN11TrackingTabC1ERKS_;2A.;;~%(13,78);",128,0,43,0
	.stabs	"HttpConnectionListener:Tt(0,120)=s4!1,020,(0,121)=xsConnectionListener:;httpFinished::(0,122)=#(0,120),(0,6),(0,123)=*(0,120),(0,124)=*(0,125)=xsHttpConnection:,(0,3),(0,6);:_ZN6MAUtil22HttpConnectionListener12httpFinishedEPNS_14HttpConnectionEi;2A*4;(0,120);;operator=::(0,126)=#(0,120),(0,127)=&(0,120),(0,123),(0,128)=&(0,129)=k(0,120),(0,6);:_ZN6MAUtil22HttpConnectionListeneraSERKS0_;2A.;__base_ctor::(0,130)=#(0,120),(0,6),(0,123),(0,128),(0,6);:_ZN6MAUtil22HttpConnectionListenerC2ERKS0_;2A.;__comp_ctor::(0,130):_ZN6MAUtil22HttpConnectionListenerC1ERKS0_;2A.;__base_ctor::(0,131)=#(0,120),(0,6),(0,123),(0,6);:_ZN6MAUtil22HttpConnectionListenerC2Ev;2A.;__comp_ctor::(0,131):_ZN6MAUtil22HttpConnectionListenerC1Ev;2A.;;~%(0,121);",128,0,203,0
	.stabs	"ConnListener:Tt(8,167)=s8_vptr$ConnListener:(0,132)=*(0,1),0,32;_mConn:/0(3,10),32,32;connEvent::(0,133)=#(8,167),(0,6),(8,166),(0,134)=&(0,135)=k(3,93),(0,6);:_ZN6MAUtil12ConnListener9connEventERK15MAConnEventData;2A*0;(8,167);;operator=::(0,136)=#(8,167),(0,137)=&(8,167),(8,166),(0,138)=&(0,139)=k(8,167),(0,6);:_ZN6MAUtil12ConnListeneraSERKS0_;2A.;__base_ctor::(0,140)=#(8,167),(0,6),(8,166),(0,138),(0,6);:_ZN6MAUtil12ConnListenerC2ERKS0_;2A.;__comp_ctor::(0,140):_ZN6MAUtil12ConnListenerC1ERKS0_;2A.;__base_ctor::(0,141)=#(8,167),(0,6),(8,166),(0,6);:_ZN6MAUtil12ConnListenerC2Ev;2A.;__comp_ctor::(0,141):_ZN6MAUtil12ConnListenerC1Ev;2A.;;~%(8,167);",128,0,89,0
LC29:
	.ascii "TEST_EMULATOR\0"
LC30:
	.ascii "SERVICE_NOT_AVAILABLE\0"
LC31:
	.ascii "ACCOUNT_MISSING\0"
LC32:
	.ascii "AUTHENTICATION_FAILED\0"
LC33:
	.ascii "TOO_MANY_REGISTRATIONS\0"
LC34:
	.ascii "INVALID_SENDER\0"
.code
	.stabs	"_Z41__static_initialization_and_destruction_0ii:f(0,6)",36,0,230,__Z41__static_initialization_and_destruction_0ii
	.stabs	"__initialize_p:p(0,3)",160,0,230,-12
	.stabs	"__priority:p(0,3)",160,0,230,-16

.func __Z41__static_initialization_and_destruction_0ii, 2, void
	.stabs	"C:\\Users\\gdr\\Documents\\source\\mobile-app\\MobileApp\\TrackingTab.cpp",132,0,0,Ltext33
Ltext33:
	.line 230
	push rt,fr
	sub  sp,#0x8
	ld   fr,sp
	add  fr,#0x10
	ld   [fr,-12],i0
	ld   [fr,-16],i1
	.stabs	"c:/MoSync/include/Ads/Banner.h",132,0,0,Ltext34
Ltext34:
	.line 99
	ld   r0,[fr,-16]
	ld   r14,#0xffff
	jc   ne,r0,r14,#L140
	ld   r0,[fr,-12]
	ld   r14,#0x1
	jc   ne,r0,r14,#L140
	ld   i0,#__ZN3Ads13TEST_EMULATORE
	ld   i1,#LC29
	call &__ZN6MAUtil11BasicStringIcEC1EPKc
L140:
	.stabs	"c:/MoSync/include/notification/NotificationManager.h",132,0,0,Ltext35
Ltext35:
	.line 87
	ld   r0,[fr,-16]
	ld   r14,#0xffff
	jc   ne,r0,r14,#L141
	ld   r0,[fr,-12]
	ld   r14,#0x1
	jc   ne,r0,r14,#L141
	.line 88
	ld   i0,#__ZN12Notification52NOTIFICATIONS_REGISTRATION_ERR_SERVICE_NOT_AVAILABLEE
	ld   i1,#LC30
	call &__ZN6MAUtil11BasicStringIcEC1EPKc
L141:
	.line 96
	ld   r0,[fr,-16]
	ld   r14,#0xffff
	jc   ne,r0,r14,#L142
	ld   r0,[fr,-12]
	ld   r14,#0x1
	jc   ne,r0,r14,#L142
	.line 97
	ld   i0,#__ZN12Notification46NOTIFICATIONS_REGISTRATION_ERR_ACCOUNT_MISSINGE
	ld   i1,#LC31
	call &__ZN6MAUtil11BasicStringIcEC1EPKc
L142:
	.line 105
	ld   r0,[fr,-16]
	ld   r14,#0xffff
	jc   ne,r0,r14,#L143
	ld   r0,[fr,-12]
	ld   r14,#0x1
	jc   ne,r0,r14,#L143
	.line 106
	ld   i0,#__ZN12Notification52NOTIFICATIONS_REGISTRATION_ERR_AUTHENTICATION_FAILEDE
	ld   i1,#LC32
	call &__ZN6MAUtil11BasicStringIcEC1EPKc
L143:
	.line 114
	ld   r0,[fr,-16]
	ld   r14,#0xffff
	jc   ne,r0,r14,#L144
	ld   r0,[fr,-12]
	ld   r14,#0x1
	jc   ne,r0,r14,#L144
	.line 115
	ld   i0,#__ZN12Notification53NOTIFICATIONS_REGISTRATION_ERR_TOO_MANY_REGISTRATIONSE
	ld   i1,#LC33
	call &__ZN6MAUtil11BasicStringIcEC1EPKc
L144:
	.line 121
	ld   r0,[fr,-16]
	ld   r14,#0xffff
	jc   ne,r0,r14,#L145
	ld   r0,[fr,-12]
	ld   r14,#0x1
	jc   ne,r0,r14,#L145
	.line 122
	ld   i0,#__ZN12Notification45NOTIFICATIONS_REGISTRATION_ERR_INVALID_SENDERE
	ld   i1,#LC34
	call &__ZN6MAUtil11BasicStringIcEC1EPKc
L145:
	.line 121
	ld   r0,[fr,-16]
	ld   r14,#0xffff
	jc   ne,r0,r14,#L146
	ld   r0,[fr,-12]
	ld   r14,#0x0
	jc   ne,r0,r14,#L146
	ld   i0,#__ZN12Notification45NOTIFICATIONS_REGISTRATION_ERR_INVALID_SENDERE
	call &__ZN6MAUtil11BasicStringIcED1Ev
L146:
	.line 114
	ld   r0,[fr,-16]
	ld   r14,#0xffff
	jc   ne,r0,r14,#L147
	ld   r0,[fr,-12]
	ld   r14,#0x0
	jc   ne,r0,r14,#L147
	ld   i0,#__ZN12Notification53NOTIFICATIONS_REGISTRATION_ERR_TOO_MANY_REGISTRATIONSE
	call &__ZN6MAUtil11BasicStringIcED1Ev
L147:
	.line 105
	ld   r0,[fr,-16]
	ld   r14,#0xffff
	jc   ne,r0,r14,#L148
	ld   r0,[fr,-12]
	ld   r14,#0x0
	jc   ne,r0,r14,#L148
	ld   i0,#__ZN12Notification52NOTIFICATIONS_REGISTRATION_ERR_AUTHENTICATION_FAILEDE
	call &__ZN6MAUtil11BasicStringIcED1Ev
L148:
	.line 96
	ld   r0,[fr,-16]
	ld   r14,#0xffff
	jc   ne,r0,r14,#L149
	ld   r0,[fr,-12]
	ld   r14,#0x0
	jc   ne,r0,r14,#L149
	ld   i0,#__ZN12Notification46NOTIFICATIONS_REGISTRATION_ERR_ACCOUNT_MISSINGE
	call &__ZN6MAUtil11BasicStringIcED1Ev
L149:
	.line 87
	ld   r0,[fr,-16]
	ld   r14,#0xffff
	jc   ne,r0,r14,#L150
	ld   r0,[fr,-12]
	ld   r14,#0x0
	jc   ne,r0,r14,#L150
	ld   i0,#__ZN12Notification52NOTIFICATIONS_REGISTRATION_ERR_SERVICE_NOT_AVAILABLEE
	call &__ZN6MAUtil11BasicStringIcED1Ev
L150:
	.stabs	"c:/MoSync/include/Ads/Banner.h",132,0,0,Ltext36
Ltext36:
	.line 99
	ld   r0,[fr,-16]
	ld   r14,#0xffff
	jc   ne,r0,r14,#L139
	ld   r0,[fr,-12]
	ld   r14,#0x0
	jc   ne,r0,r14,#L139
	ld   i0,#__ZN3Ads13TEST_EMULATORE
	call &__ZN6MAUtil11BasicStringIcED1Ev
L139:
	.stabs	"C:\\Users\\gdr\\Documents\\source\\mobile-app\\MobileApp\\TrackingTab.cpp",132,0,0,Ltext37
Ltext37:
	.line 230
	add  sp,#0x8
	pop  rt,fr
	ret
Lscope70:
.data
	.align 4
__ZN8NativeUI8BUF_SIZEE:
	.long	256
	.align 4
__ZN8NativeUI12MAX_BUF_SIZEE:
	.long	2048
.code
	.stabs	"_GLOBAL__I__ZN11TrackingTabC2Ei:f(0,6)",36,0,231,__GLOBAL__I__ZN11TrackingTabC2Ei

.func __GLOBAL__I__ZN11TrackingTabC2Ei, 0, void
	.line 231
	push rt,fr
	ld   fr,sp
	add  fr,#0x8
	.line 231
	ld   i0,#0x1
	ld   i1,#0xffff
	call &__Z41__static_initialization_and_destruction_0ii
	pop  rt,fr
	ret
Lscope71:
	.ctor __GLOBAL__I__ZN11TrackingTabC2Ei
	.stabs	"_GLOBAL__D__ZN11TrackingTabC2Ei:f(0,6)",36,0,232,__GLOBAL__D__ZN11TrackingTabC2Ei

.func __GLOBAL__D__ZN11TrackingTabC2Ei, 0, void
	.line 232
	push rt,fr
	ld   fr,sp
	add  fr,#0x8
	.line 232
	ld   i0,#0x0
	ld   i1,#0xffff
	call &__Z41__static_initialization_and_destruction_0ii
	pop  rt,fr
	ret
Lscope72:
	.dtor __GLOBAL__D__ZN11TrackingTabC2Ei
	.stabs	"_ZN12Notification52NOTIFICATIONS_REGISTRATION_ERR_SERVICE_NOT_AVAILABLEE:S(13,39)",40,0,87,__ZN12Notification52NOTIFICATIONS_REGISTRATION_ERR_SERVICE_NOT_AVAILABLEE
	.stabs	"_ZN12Notification46NOTIFICATIONS_REGISTRATION_ERR_ACCOUNT_MISSINGE:S(13,39)",40,0,96,__ZN12Notification46NOTIFICATIONS_REGISTRATION_ERR_ACCOUNT_MISSINGE
	.stabs	"_ZN12Notification52NOTIFICATIONS_REGISTRATION_ERR_AUTHENTICATION_FAILEDE:S(13,39)",40,0,105,__ZN12Notification52NOTIFICATIONS_REGISTRATION_ERR_AUTHENTICATION_FAILEDE
	.stabs	"_ZN12Notification53NOTIFICATIONS_REGISTRATION_ERR_TOO_MANY_REGISTRATIONSE:S(13,39)",40,0,114,__ZN12Notification53NOTIFICATIONS_REGISTRATION_ERR_TOO_MANY_REGISTRATIONSE
	.stabs	"_ZN12Notification45NOTIFICATIONS_REGISTRATION_ERR_INVALID_SENDERE:S(13,39)",40,0,121,__ZN12Notification45NOTIFICATIONS_REGISTRATION_ERR_INVALID_SENDERE
	.stabs	"_ZN3Ads13TEST_EMULATORE:S(13,39)",40,0,99,__ZN3Ads13TEST_EMULATORE
	.stabs	"_ZN8NativeUI8BUF_SIZEE:S(1,13)",38,0,44,__ZN8NativeUI8BUF_SIZEE
	.stabs	"_ZN8NativeUI12MAX_BUF_SIZEE:S(1,13)",38,0,47,__ZN8NativeUI12MAX_BUF_SIZEE
	.text
	.stabs "",100,0,0,Letext
Letext:
